---
triple:          'x86_64-apple-darwin'
binary-path:     '/Users/eduardo.ruiz/PycharmProjects/Janus/target/debug/deps/libtachyon_rs.dylib'
relocations:
  - { offset: 0x1E, size: 0x8, addend: 0x0, symName: '__ZN5alloc5boxed4iter99_$LT$impl$u20$core..iter..traits..iterator..Iterator$u20$for$u20$alloc..boxed..Box$LT$I$C$A$GT$$GT$4next17h58150ad623f0fb3bE', symObjAddr: 0x0, symBinAddr: 0x860, symSize: 0x20 }
  - { offset: 0x3F, size: 0x8, addend: 0x0, symName: '__ZN5alloc5boxed4iter99_$LT$impl$u20$core..iter..traits..iterator..Iterator$u20$for$u20$alloc..boxed..Box$LT$I$C$A$GT$$GT$4next17h58150ad623f0fb3bE', symObjAddr: 0x0, symBinAddr: 0x860, symSize: 0x20 }
  - { offset: 0x16B, size: 0x8, addend: 0x0, symName: '__ZN63_$LT$I$u20$as$u20$core..iter..traits..collect..IntoIterator$GT$9into_iter17had368661b4898819E', symObjAddr: 0x20, symBinAddr: 0x880, symSize: 0x14 }
  - { offset: 0x617, size: 0x8, addend: 0x0, symName: '__ZN45_$LT$T$u20$as$u20$alloc..string..ToString$GT$9to_string17hb64fdb81469dd627E', symObjAddr: 0x0, symBinAddr: 0x8A0, symSize: 0x30 }
  - { offset: 0x69A, size: 0x8, addend: 0x0, symName: '__ZN45_$LT$T$u20$as$u20$alloc..string..ToString$GT$9to_string17hb64fdb81469dd627E', symObjAddr: 0x0, symBinAddr: 0x8A0, symSize: 0x30 }
  - { offset: 0x726, size: 0x8, addend: 0x0, symName: '__ZN58_$LT$alloc..string..String$u20$as$u20$core..hash..Hash$GT$4hash17h3d236394633a17d1E', symObjAddr: 0xC0, symBinAddr: 0x960, symSize: 0x70 }
  - { offset: 0xA63, size: 0x8, addend: 0x0, symName: '__ZN4core4hash5impls52_$LT$impl$u20$core..hash..Hash$u20$for$u20$$RF$T$GT$4hash17h16645de2c8b199beE', symObjAddr: 0x30, symBinAddr: 0x8D0, symSize: 0x20 }
  - { offset: 0xBB2, size: 0x8, addend: 0x0, symName: '__ZN51_$LT$T$u20$as$u20$core..borrow..Borrow$LT$T$GT$$GT$6borrow17h572c8525214b09b1E', symObjAddr: 0x50, symBinAddr: 0x8F0, symSize: 0x10 }
  - { offset: 0x10F5, size: 0x8, addend: 0x0, symName: '__ZN52_$LT$Q$u20$as$u20$hashbrown..Equivalent$LT$K$GT$$GT$10equivalent17h3e64974ae5ac330fE', symObjAddr: 0x60, symBinAddr: 0x900, symSize: 0x40 }
  - { offset: 0x1166, size: 0x8, addend: 0x0, symName: '__ZN54_$LT$$RF$T$u20$as$u20$pyo3..conversion..ToPyObject$GT$9to_object17hfe5a7997b14742daE', symObjAddr: 0xA0, symBinAddr: 0x940, symSize: 0x20 }
  - { offset: 0x11C5, size: 0x8, addend: 0x0, symName: '__ZN71_$LT$T$u20$as$u20$pyo3..impl_..extract_argument..PyFunctionArgument$GT$7extract17h79d1c4f9a9594970E', symObjAddr: 0x130, symBinAddr: 0x9D0, symSize: 0x26 }
  - { offset: 0x16F9, size: 0x8, addend: 0x0, symName: '__ZN153_$LT$core..result..Result$LT$T$C$F$GT$$u20$as$u20$core..ops..try_trait..FromResidual$LT$core..result..Result$LT$core..convert..Infallible$C$E$GT$$GT$$GT$13from_residual17h0a1beb77f0f968dbE', symObjAddr: 0x0, symBinAddr: 0xA00, symSize: 0x70 }
  - { offset: 0x1C5E, size: 0x8, addend: 0x0, symName: '__ZN153_$LT$core..result..Result$LT$T$C$F$GT$$u20$as$u20$core..ops..try_trait..FromResidual$LT$core..result..Result$LT$core..convert..Infallible$C$E$GT$$GT$$GT$13from_residual17h0a1beb77f0f968dbE', symObjAddr: 0x0, symBinAddr: 0xA00, symSize: 0x70 }
  - { offset: 0x1CE3, size: 0x8, addend: 0x0, symName: '__ZN153_$LT$core..result..Result$LT$T$C$F$GT$$u20$as$u20$core..ops..try_trait..FromResidual$LT$core..result..Result$LT$core..convert..Infallible$C$E$GT$$GT$$GT$13from_residual17h1c618ad9b7da43d5E', symObjAddr: 0x70, symBinAddr: 0xA70, symSize: 0x70 }
  - { offset: 0x1D68, size: 0x8, addend: 0x0, symName: '__ZN153_$LT$core..result..Result$LT$T$C$F$GT$$u20$as$u20$core..ops..try_trait..FromResidual$LT$core..result..Result$LT$core..convert..Infallible$C$E$GT$$GT$$GT$13from_residual17h22eb4c39c72bf87eE', symObjAddr: 0xE0, symBinAddr: 0xAE0, symSize: 0x80 }
  - { offset: 0x1DD0, size: 0x8, addend: 0x0, symName: '__ZN153_$LT$core..result..Result$LT$T$C$F$GT$$u20$as$u20$core..ops..try_trait..FromResidual$LT$core..result..Result$LT$core..convert..Infallible$C$E$GT$$GT$$GT$13from_residual17h25b6fe0678bb193eE', symObjAddr: 0x160, symBinAddr: 0xB60, symSize: 0x70 }
  - { offset: 0x1E55, size: 0x8, addend: 0x0, symName: '__ZN153_$LT$core..result..Result$LT$T$C$F$GT$$u20$as$u20$core..ops..try_trait..FromResidual$LT$core..result..Result$LT$core..convert..Infallible$C$E$GT$$GT$$GT$13from_residual17h323157f65b260902E', symObjAddr: 0x1D0, symBinAddr: 0xBD0, symSize: 0x80 }
  - { offset: 0x1EBD, size: 0x8, addend: 0x0, symName: '__ZN153_$LT$core..result..Result$LT$T$C$F$GT$$u20$as$u20$core..ops..try_trait..FromResidual$LT$core..result..Result$LT$core..convert..Infallible$C$E$GT$$GT$$GT$13from_residual17h3888e17169efb255E', symObjAddr: 0x250, symBinAddr: 0xC50, symSize: 0x70 }
  - { offset: 0x1F42, size: 0x8, addend: 0x0, symName: '__ZN153_$LT$core..result..Result$LT$T$C$F$GT$$u20$as$u20$core..ops..try_trait..FromResidual$LT$core..result..Result$LT$core..convert..Infallible$C$E$GT$$GT$$GT$13from_residual17h519e777bd78ea0abE', symObjAddr: 0x2C0, symBinAddr: 0xCC0, symSize: 0x70 }
  - { offset: 0x1FC7, size: 0x8, addend: 0x0, symName: '__ZN153_$LT$core..result..Result$LT$T$C$F$GT$$u20$as$u20$core..ops..try_trait..FromResidual$LT$core..result..Result$LT$core..convert..Infallible$C$E$GT$$GT$$GT$13from_residual17h5e48abbe758fe742E', symObjAddr: 0x330, symBinAddr: 0xD30, symSize: 0x70 }
  - { offset: 0x204C, size: 0x8, addend: 0x0, symName: '__ZN153_$LT$core..result..Result$LT$T$C$F$GT$$u20$as$u20$core..ops..try_trait..FromResidual$LT$core..result..Result$LT$core..convert..Infallible$C$E$GT$$GT$$GT$13from_residual17h6929b82e57e7fcd8E', symObjAddr: 0x3A0, symBinAddr: 0xDA0, symSize: 0x80 }
  - { offset: 0x20B4, size: 0x8, addend: 0x0, symName: '__ZN153_$LT$core..result..Result$LT$T$C$F$GT$$u20$as$u20$core..ops..try_trait..FromResidual$LT$core..result..Result$LT$core..convert..Infallible$C$E$GT$$GT$$GT$13from_residual17h77812787ca00f67eE', symObjAddr: 0x420, symBinAddr: 0xE20, symSize: 0x70 }
  - { offset: 0x2139, size: 0x8, addend: 0x0, symName: '__ZN153_$LT$core..result..Result$LT$T$C$F$GT$$u20$as$u20$core..ops..try_trait..FromResidual$LT$core..result..Result$LT$core..convert..Infallible$C$E$GT$$GT$$GT$13from_residual17h78cfaeb3422ae4d1E', symObjAddr: 0x490, symBinAddr: 0xE90, symSize: 0x70 }
  - { offset: 0x21BE, size: 0x8, addend: 0x0, symName: '__ZN153_$LT$core..result..Result$LT$T$C$F$GT$$u20$as$u20$core..ops..try_trait..FromResidual$LT$core..result..Result$LT$core..convert..Infallible$C$E$GT$$GT$$GT$13from_residual17h98f04f248db091b4E', symObjAddr: 0x500, symBinAddr: 0xF00, symSize: 0x70 }
  - { offset: 0x2243, size: 0x8, addend: 0x0, symName: '__ZN153_$LT$core..result..Result$LT$T$C$F$GT$$u20$as$u20$core..ops..try_trait..FromResidual$LT$core..result..Result$LT$core..convert..Infallible$C$E$GT$$GT$$GT$13from_residual17h9ecf2665aa4b3b78E', symObjAddr: 0x570, symBinAddr: 0xF70, symSize: 0x70 }
  - { offset: 0x22C8, size: 0x8, addend: 0x0, symName: '__ZN153_$LT$core..result..Result$LT$T$C$F$GT$$u20$as$u20$core..ops..try_trait..FromResidual$LT$core..result..Result$LT$core..convert..Infallible$C$E$GT$$GT$$GT$13from_residual17ha1741b724f069e1dE', symObjAddr: 0x5E0, symBinAddr: 0xFE0, symSize: 0x80 }
  - { offset: 0x2330, size: 0x8, addend: 0x0, symName: '__ZN153_$LT$core..result..Result$LT$T$C$F$GT$$u20$as$u20$core..ops..try_trait..FromResidual$LT$core..result..Result$LT$core..convert..Infallible$C$E$GT$$GT$$GT$13from_residual17ha7378ff500343033E', symObjAddr: 0x660, symBinAddr: 0x1060, symSize: 0x70 }
  - { offset: 0x23B5, size: 0x8, addend: 0x0, symName: '__ZN153_$LT$core..result..Result$LT$T$C$F$GT$$u20$as$u20$core..ops..try_trait..FromResidual$LT$core..result..Result$LT$core..convert..Infallible$C$E$GT$$GT$$GT$13from_residual17hc5329bf37aed73c3E', symObjAddr: 0x6D0, symBinAddr: 0x10D0, symSize: 0x70 }
  - { offset: 0x243A, size: 0x8, addend: 0x0, symName: '__ZN153_$LT$core..result..Result$LT$T$C$F$GT$$u20$as$u20$core..ops..try_trait..FromResidual$LT$core..result..Result$LT$core..convert..Infallible$C$E$GT$$GT$$GT$13from_residual17hc58078ece44a3377E', symObjAddr: 0x740, symBinAddr: 0x1140, symSize: 0x80 }
  - { offset: 0x24A2, size: 0x8, addend: 0x0, symName: '__ZN153_$LT$core..result..Result$LT$T$C$F$GT$$u20$as$u20$core..ops..try_trait..FromResidual$LT$core..result..Result$LT$core..convert..Infallible$C$E$GT$$GT$$GT$13from_residual17hc825846e45126b31E', symObjAddr: 0x7C0, symBinAddr: 0x11C0, symSize: 0x80 }
  - { offset: 0x250A, size: 0x8, addend: 0x0, symName: '__ZN153_$LT$core..result..Result$LT$T$C$F$GT$$u20$as$u20$core..ops..try_trait..FromResidual$LT$core..result..Result$LT$core..convert..Infallible$C$E$GT$$GT$$GT$13from_residual17hce5b5fa573dd68f6E', symObjAddr: 0x840, symBinAddr: 0x1240, symSize: 0x80 }
  - { offset: 0x2572, size: 0x8, addend: 0x0, symName: '__ZN153_$LT$core..result..Result$LT$T$C$F$GT$$u20$as$u20$core..ops..try_trait..FromResidual$LT$core..result..Result$LT$core..convert..Infallible$C$E$GT$$GT$$GT$13from_residual17hf6c67a073f898e7cE', symObjAddr: 0x8C0, symBinAddr: 0x12C0, symSize: 0x70 }
  - { offset: 0x25F7, size: 0x8, addend: 0x0, symName: '__ZN153_$LT$core..result..Result$LT$T$C$F$GT$$u20$as$u20$core..ops..try_trait..FromResidual$LT$core..result..Result$LT$core..convert..Infallible$C$E$GT$$GT$$GT$13from_residual17hf8e6feeb769fbce6E', symObjAddr: 0x930, symBinAddr: 0x1330, symSize: 0x80 }
  - { offset: 0x40FB, size: 0x8, addend: 0x0, symName: __ZN4core6result6Result3Err17hff8d1e36af2ce242E, symObjAddr: 0x1D70, symBinAddr: 0x2770, symSize: 0x10 }
  - { offset: 0x413E, size: 0x8, addend: 0x0, symName: '__ZN79_$LT$core..result..Result$LT$T$C$E$GT$$u20$as$u20$core..ops..try_trait..Try$GT$6branch17h03886de28d7618edE', symObjAddr: 0x1D80, symBinAddr: 0x2780, symSize: 0xD0 }
  - { offset: 0x41BC, size: 0x8, addend: 0x0, symName: '__ZN79_$LT$core..result..Result$LT$T$C$E$GT$$u20$as$u20$core..ops..try_trait..Try$GT$6branch17h063ae5b18facc1bfE', symObjAddr: 0x1E50, symBinAddr: 0x2850, symSize: 0xE0 }
  - { offset: 0x423A, size: 0x8, addend: 0x0, symName: '__ZN79_$LT$core..result..Result$LT$T$C$E$GT$$u20$as$u20$core..ops..try_trait..Try$GT$6branch17h0725d50328db73deE', symObjAddr: 0x1F30, symBinAddr: 0x2930, symSize: 0xB0 }
  - { offset: 0x42B8, size: 0x8, addend: 0x0, symName: '__ZN79_$LT$core..result..Result$LT$T$C$E$GT$$u20$as$u20$core..ops..try_trait..Try$GT$6branch17h09c4160125ffc17dE', symObjAddr: 0x1FE0, symBinAddr: 0x29E0, symSize: 0xB0 }
  - { offset: 0x4336, size: 0x8, addend: 0x0, symName: '__ZN79_$LT$core..result..Result$LT$T$C$E$GT$$u20$as$u20$core..ops..try_trait..Try$GT$6branch17h11f809a0184ac554E', symObjAddr: 0x2090, symBinAddr: 0x2A90, symSize: 0xB0 }
  - { offset: 0x43B4, size: 0x8, addend: 0x0, symName: '__ZN79_$LT$core..result..Result$LT$T$C$E$GT$$u20$as$u20$core..ops..try_trait..Try$GT$6branch17h1b658121708d1f03E', symObjAddr: 0x2140, symBinAddr: 0x2B40, symSize: 0xB0 }
  - { offset: 0x4432, size: 0x8, addend: 0x0, symName: '__ZN79_$LT$core..result..Result$LT$T$C$E$GT$$u20$as$u20$core..ops..try_trait..Try$GT$6branch17h227e93d1fd612226E', symObjAddr: 0x21F0, symBinAddr: 0x2BF0, symSize: 0xB0 }
  - { offset: 0x44B0, size: 0x8, addend: 0x0, symName: '__ZN79_$LT$core..result..Result$LT$T$C$E$GT$$u20$as$u20$core..ops..try_trait..Try$GT$6branch17h22fc7b9acd3457f3E', symObjAddr: 0x22A0, symBinAddr: 0x2CA0, symSize: 0xD0 }
  - { offset: 0x452E, size: 0x8, addend: 0x0, symName: '__ZN79_$LT$core..result..Result$LT$T$C$E$GT$$u20$as$u20$core..ops..try_trait..Try$GT$6branch17h2aa62adb24dd8648E', symObjAddr: 0x2370, symBinAddr: 0x2D70, symSize: 0x100 }
  - { offset: 0x45AC, size: 0x8, addend: 0x0, symName: '__ZN79_$LT$core..result..Result$LT$T$C$E$GT$$u20$as$u20$core..ops..try_trait..Try$GT$6branch17h31d149ea723edaa7E', symObjAddr: 0x2470, symBinAddr: 0x2E70, symSize: 0xB0 }
  - { offset: 0x462A, size: 0x8, addend: 0x0, symName: '__ZN79_$LT$core..result..Result$LT$T$C$E$GT$$u20$as$u20$core..ops..try_trait..Try$GT$6branch17h33dae22be4cdd9d9E', symObjAddr: 0x2520, symBinAddr: 0x2F20, symSize: 0xB0 }
  - { offset: 0x46A8, size: 0x8, addend: 0x0, symName: '__ZN79_$LT$core..result..Result$LT$T$C$E$GT$$u20$as$u20$core..ops..try_trait..Try$GT$6branch17h39a9ca9db9ad0ea4E', symObjAddr: 0x25D0, symBinAddr: 0x2FD0, symSize: 0xB0 }
  - { offset: 0x4726, size: 0x8, addend: 0x0, symName: '__ZN79_$LT$core..result..Result$LT$T$C$E$GT$$u20$as$u20$core..ops..try_trait..Try$GT$6branch17h40910a7cfb270ed9E', symObjAddr: 0x2680, symBinAddr: 0x3080, symSize: 0xB0 }
  - { offset: 0x47A4, size: 0x8, addend: 0x0, symName: '__ZN79_$LT$core..result..Result$LT$T$C$E$GT$$u20$as$u20$core..ops..try_trait..Try$GT$6branch17h4a3cfbd52af15e76E', symObjAddr: 0x2730, symBinAddr: 0x3130, symSize: 0xC0 }
  - { offset: 0x4822, size: 0x8, addend: 0x0, symName: '__ZN79_$LT$core..result..Result$LT$T$C$E$GT$$u20$as$u20$core..ops..try_trait..Try$GT$6branch17h4c8ef5eeaa4e26beE', symObjAddr: 0x27F0, symBinAddr: 0x31F0, symSize: 0xB0 }
  - { offset: 0x48A0, size: 0x8, addend: 0x0, symName: '__ZN79_$LT$core..result..Result$LT$T$C$E$GT$$u20$as$u20$core..ops..try_trait..Try$GT$6branch17h50fc4aef40c403b4E', symObjAddr: 0x28A0, symBinAddr: 0x32A0, symSize: 0x100 }
  - { offset: 0x491E, size: 0x8, addend: 0x0, symName: '__ZN79_$LT$core..result..Result$LT$T$C$E$GT$$u20$as$u20$core..ops..try_trait..Try$GT$6branch17h6336da39f33b880aE', symObjAddr: 0x29A0, symBinAddr: 0x33A0, symSize: 0xB0 }
  - { offset: 0x499C, size: 0x8, addend: 0x0, symName: '__ZN79_$LT$core..result..Result$LT$T$C$E$GT$$u20$as$u20$core..ops..try_trait..Try$GT$6branch17h71f4c9e1daed6eccE', symObjAddr: 0x2A50, symBinAddr: 0x3450, symSize: 0xB0 }
  - { offset: 0x4A1A, size: 0x8, addend: 0x0, symName: '__ZN79_$LT$core..result..Result$LT$T$C$E$GT$$u20$as$u20$core..ops..try_trait..Try$GT$6branch17h97e2a85bacc382c2E', symObjAddr: 0x2B00, symBinAddr: 0x3500, symSize: 0xC0 }
  - { offset: 0x4A98, size: 0x8, addend: 0x0, symName: '__ZN79_$LT$core..result..Result$LT$T$C$E$GT$$u20$as$u20$core..ops..try_trait..Try$GT$6branch17hb3d32ccf7c02c39bE', symObjAddr: 0x2BC0, symBinAddr: 0x35C0, symSize: 0xB0 }
  - { offset: 0x4B16, size: 0x8, addend: 0x0, symName: '__ZN79_$LT$core..result..Result$LT$T$C$E$GT$$u20$as$u20$core..ops..try_trait..Try$GT$6branch17hb821015ea8a71781E', symObjAddr: 0x2C70, symBinAddr: 0x3670, symSize: 0xC0 }
  - { offset: 0x4B94, size: 0x8, addend: 0x0, symName: '__ZN79_$LT$core..result..Result$LT$T$C$E$GT$$u20$as$u20$core..ops..try_trait..Try$GT$6branch17hb9e09204c04948f2E', symObjAddr: 0x2D30, symBinAddr: 0x3730, symSize: 0x100 }
  - { offset: 0x4C12, size: 0x8, addend: 0x0, symName: '__ZN79_$LT$core..result..Result$LT$T$C$E$GT$$u20$as$u20$core..ops..try_trait..Try$GT$6branch17hbb9874d7f346cafdE', symObjAddr: 0x2E30, symBinAddr: 0x3830, symSize: 0xB0 }
  - { offset: 0x4C90, size: 0x8, addend: 0x0, symName: '__ZN79_$LT$core..result..Result$LT$T$C$E$GT$$u20$as$u20$core..ops..try_trait..Try$GT$6branch17hbf44bb1285742211E', symObjAddr: 0x2EE0, symBinAddr: 0x38E0, symSize: 0xB0 }
  - { offset: 0x4D0E, size: 0x8, addend: 0x0, symName: '__ZN79_$LT$core..result..Result$LT$T$C$E$GT$$u20$as$u20$core..ops..try_trait..Try$GT$6branch17hc646d90e8d5ed701E', symObjAddr: 0x2F90, symBinAddr: 0x3990, symSize: 0xB0 }
  - { offset: 0x4D8C, size: 0x8, addend: 0x0, symName: '__ZN79_$LT$core..result..Result$LT$T$C$E$GT$$u20$as$u20$core..ops..try_trait..Try$GT$6branch17hcfe3400fb93eb32dE', symObjAddr: 0x3040, symBinAddr: 0x3A40, symSize: 0xC0 }
  - { offset: 0x4E0A, size: 0x8, addend: 0x0, symName: '__ZN79_$LT$core..result..Result$LT$T$C$E$GT$$u20$as$u20$core..ops..try_trait..Try$GT$6branch17he3c6af92ede0c059E', symObjAddr: 0x3100, symBinAddr: 0x3B00, symSize: 0xB0 }
  - { offset: 0x4E88, size: 0x8, addend: 0x0, symName: '__ZN79_$LT$core..result..Result$LT$T$C$E$GT$$u20$as$u20$core..ops..try_trait..Try$GT$6branch17he739f2f6a5f1db07E', symObjAddr: 0x31B0, symBinAddr: 0x3BB0, symSize: 0xC0 }
  - { offset: 0x4F06, size: 0x8, addend: 0x0, symName: '__ZN79_$LT$core..result..Result$LT$T$C$E$GT$$u20$as$u20$core..ops..try_trait..Try$GT$6branch17hec73499aeeb3e3a8E', symObjAddr: 0x3270, symBinAddr: 0x3C70, symSize: 0xB0 }
  - { offset: 0x4F84, size: 0x8, addend: 0x0, symName: '__ZN79_$LT$core..result..Result$LT$T$C$E$GT$$u20$as$u20$core..ops..try_trait..Try$GT$6branch17heec4118500ec7adcE', symObjAddr: 0x3320, symBinAddr: 0x3D20, symSize: 0xB0 }
  - { offset: 0x5002, size: 0x8, addend: 0x0, symName: '__ZN79_$LT$core..result..Result$LT$T$C$E$GT$$u20$as$u20$core..ops..try_trait..Try$GT$6branch17hf0ed0200f17fff89E', symObjAddr: 0x33D0, symBinAddr: 0x3DD0, symSize: 0xA0 }
  - { offset: 0x5080, size: 0x8, addend: 0x0, symName: '__ZN79_$LT$core..result..Result$LT$T$C$E$GT$$u20$as$u20$core..ops..try_trait..Try$GT$6branch17hfbdef983728c7f4eE', symObjAddr: 0x3470, symBinAddr: 0x3E70, symSize: 0xB0 }
  - { offset: 0x7094, size: 0x8, addend: 0x0, symName: '__ZN88_$LT$core..result..Result$LT$T$C$E$GT$$u20$as$u20$pyo3..impl_..wrap..OkWrap$LT$T$GT$$GT$4wrap17h095932fd8c4737beE', symObjAddr: 0x3520, symBinAddr: 0x3F20, symSize: 0x40 }
  - { offset: 0x70EC, size: 0x8, addend: 0x0, symName: '__ZN88_$LT$core..result..Result$LT$T$C$E$GT$$u20$as$u20$pyo3..impl_..wrap..OkWrap$LT$T$GT$$GT$4wrap17h3af4b50575da254aE', symObjAddr: 0x3560, symBinAddr: 0x3F60, symSize: 0x40 }
  - { offset: 0x7144, size: 0x8, addend: 0x0, symName: '__ZN88_$LT$core..result..Result$LT$T$C$E$GT$$u20$as$u20$pyo3..impl_..wrap..OkWrap$LT$T$GT$$GT$4wrap17he3713573b051dd72E', symObjAddr: 0x35A0, symBinAddr: 0x3FA0, symSize: 0x40 }
  - { offset: 0x7749, size: 0x8, addend: 0x0, symName: '__ZN99_$LT$core..result..Result$LT$T$C$E$GT$$u20$as$u20$pyo3..callback..IntoPyCallbackOutput$LT$U$GT$$GT$7convert17h258414b8f05cf18bE', symObjAddr: 0x35E0, symBinAddr: 0x3FE0, symSize: 0xC0 }
  - { offset: 0x77E5, size: 0x8, addend: 0x0, symName: '__ZN99_$LT$core..result..Result$LT$T$C$E$GT$$u20$as$u20$pyo3..callback..IntoPyCallbackOutput$LT$U$GT$$GT$7convert17h302f597af9ecc1c5E', symObjAddr: 0x36A0, symBinAddr: 0x40A0, symSize: 0xC0 }
  - { offset: 0x7881, size: 0x8, addend: 0x0, symName: '__ZN99_$LT$core..result..Result$LT$T$C$E$GT$$u20$as$u20$pyo3..callback..IntoPyCallbackOutput$LT$U$GT$$GT$7convert17h5f8c69d1a4fe2b33E', symObjAddr: 0x3760, symBinAddr: 0x4160, symSize: 0xD4 }
  - { offset: 0x7A56, size: 0x8, addend: 0x0, symName: '__ZN4core6result19Result$LT$T$C$E$GT$14unwrap_or_else17h238377984ef1cbf5E', symObjAddr: 0x9B0, symBinAddr: 0x13B0, symSize: 0x90 }
  - { offset: 0x7AC3, size: 0x8, addend: 0x0, symName: '__ZN4core6result19Result$LT$T$C$E$GT$14unwrap_or_else17h62f19ed5c58f10a3E', symObjAddr: 0xA40, symBinAddr: 0x1440, symSize: 0x90 }
  - { offset: 0x7B30, size: 0x8, addend: 0x0, symName: '__ZN4core6result19Result$LT$T$C$E$GT$14unwrap_or_else17hae0a9f8518bd511dE', symObjAddr: 0xAD0, symBinAddr: 0x14D0, symSize: 0x90 }
  - { offset: 0x7BD2, size: 0x8, addend: 0x0, symName: '__ZN4core6result19Result$LT$T$C$E$GT$14unwrap_or_else17hd931d49d75c4f75aE', symObjAddr: 0xB60, symBinAddr: 0x1560, symSize: 0x70 }
  - { offset: 0x851F, size: 0x8, addend: 0x0, symName: '__ZN4core6result19Result$LT$T$C$E$GT$3map17h03db2dd12d23b419E', symObjAddr: 0xBD0, symBinAddr: 0x15D0, symSize: 0x50 }
  - { offset: 0x85CB, size: 0x8, addend: 0x0, symName: '__ZN4core6result19Result$LT$T$C$E$GT$3map17h09740050ef1a3cd0E', symObjAddr: 0xC20, symBinAddr: 0x1620, symSize: 0xB0 }
  - { offset: 0x8683, size: 0x8, addend: 0x0, symName: '__ZN4core6result19Result$LT$T$C$E$GT$3map17h141ce9e5934824a9E', symObjAddr: 0xCD0, symBinAddr: 0x16D0, symSize: 0xA0 }
  - { offset: 0x8716, size: 0x8, addend: 0x0, symName: '__ZN4core6result19Result$LT$T$C$E$GT$3map17h2856ea41a40c6a37E', symObjAddr: 0xD70, symBinAddr: 0x1770, symSize: 0xB0 }
  - { offset: 0x87A9, size: 0x8, addend: 0x0, symName: '__ZN4core6result19Result$LT$T$C$E$GT$3map17h3993985bfe33ea75E', symObjAddr: 0xE20, symBinAddr: 0x1820, symSize: 0x50 }
  - { offset: 0x8848, size: 0x8, addend: 0x0, symName: '__ZN4core6result19Result$LT$T$C$E$GT$3map17h4756a1bde19d252cE', symObjAddr: 0xE70, symBinAddr: 0x1870, symSize: 0x50 }
  - { offset: 0x88DA, size: 0x8, addend: 0x0, symName: '__ZN4core6result19Result$LT$T$C$E$GT$3map17h4ef78737a957b553E', symObjAddr: 0xEC0, symBinAddr: 0x18C0, symSize: 0x50 }
  - { offset: 0x896C, size: 0x8, addend: 0x0, symName: '__ZN4core6result19Result$LT$T$C$E$GT$3map17h610abb9b3841e4b9E', symObjAddr: 0xF10, symBinAddr: 0x1910, symSize: 0xE0 }
  - { offset: 0x8A18, size: 0x8, addend: 0x0, symName: '__ZN4core6result19Result$LT$T$C$E$GT$3map17h6c848473a23b3ff0E', symObjAddr: 0xFF0, symBinAddr: 0x19F0, symSize: 0xA0 }
  - { offset: 0x8AC3, size: 0x8, addend: 0x0, symName: '__ZN4core6result19Result$LT$T$C$E$GT$3map17h70c8381796897da4E', symObjAddr: 0x1090, symBinAddr: 0x1A90, symSize: 0xA0 }
  - { offset: 0x8B63, size: 0x8, addend: 0x0, symName: '__ZN4core6result19Result$LT$T$C$E$GT$3map17h826e92e9005cbcb4E', symObjAddr: 0x1130, symBinAddr: 0x1B30, symSize: 0xA0 }
  - { offset: 0x8BF6, size: 0x8, addend: 0x0, symName: '__ZN4core6result19Result$LT$T$C$E$GT$3map17h90b53329803943b7E', symObjAddr: 0x11D0, symBinAddr: 0x1BD0, symSize: 0x50 }
  - { offset: 0x8C88, size: 0x8, addend: 0x0, symName: '__ZN4core6result19Result$LT$T$C$E$GT$3map17ha0783466e701444aE', symObjAddr: 0x1220, symBinAddr: 0x1C20, symSize: 0x50 }
  - { offset: 0x8D1A, size: 0x8, addend: 0x0, symName: '__ZN4core6result19Result$LT$T$C$E$GT$3map17habe2c7e8f3c10f72E', symObjAddr: 0x1270, symBinAddr: 0x1C70, symSize: 0xA0 }
  - { offset: 0x8DBA, size: 0x8, addend: 0x0, symName: '__ZN4core6result19Result$LT$T$C$E$GT$3map17hb23afe6e62c4f86dE', symObjAddr: 0x1310, symBinAddr: 0x1D10, symSize: 0xA0 }
  - { offset: 0x8E4D, size: 0x8, addend: 0x0, symName: '__ZN4core6result19Result$LT$T$C$E$GT$3map17hbeafb75505bd6a21E', symObjAddr: 0x13B0, symBinAddr: 0x1DB0, symSize: 0xB0 }
  - { offset: 0x8EED, size: 0x8, addend: 0x0, symName: '__ZN4core6result19Result$LT$T$C$E$GT$3map17hc48c258962549970E', symObjAddr: 0x1460, symBinAddr: 0x1E60, symSize: 0xA0 }
  - { offset: 0x8FF1, size: 0x8, addend: 0x0, symName: '__ZN4core6result19Result$LT$T$C$E$GT$3map17hc9ef62f72bb5da94E', symObjAddr: 0x1500, symBinAddr: 0x1F00, symSize: 0xA0 }
  - { offset: 0x9084, size: 0x8, addend: 0x0, symName: '__ZN4core6result19Result$LT$T$C$E$GT$3map17hd1cb5c7f046465daE', symObjAddr: 0x15A0, symBinAddr: 0x1FA0, symSize: 0xA0 }
  - { offset: 0x9150, size: 0x8, addend: 0x0, symName: '__ZN4core6result19Result$LT$T$C$E$GT$6is_err17hd015470e924e231eE', symObjAddr: 0x1640, symBinAddr: 0x2040, symSize: 0x20 }
  - { offset: 0x91BB, size: 0x8, addend: 0x0, symName: '__ZN4core6result19Result$LT$T$C$E$GT$7map_err17h0f193da252a14b4cE', symObjAddr: 0x1660, symBinAddr: 0x2060, symSize: 0x90 }
  - { offset: 0x9265, size: 0x8, addend: 0x0, symName: '__ZN4core6result19Result$LT$T$C$E$GT$7map_err17h2b77e50565ee860dE', symObjAddr: 0x16F0, symBinAddr: 0x20F0, symSize: 0x90 }
  - { offset: 0x930F, size: 0x8, addend: 0x0, symName: '__ZN4core6result19Result$LT$T$C$E$GT$7map_err17h55f28af46921c88aE', symObjAddr: 0x1780, symBinAddr: 0x2180, symSize: 0xF0 }
  - { offset: 0x93A3, size: 0x8, addend: 0x0, symName: '__ZN4core6result19Result$LT$T$C$E$GT$7map_err17h597356b604ba394dE', symObjAddr: 0x1870, symBinAddr: 0x2270, symSize: 0x90 }
  - { offset: 0x9435, size: 0x8, addend: 0x0, symName: '__ZN4core6result19Result$LT$T$C$E$GT$7map_err17h7fef595a63e44712E', symObjAddr: 0x1900, symBinAddr: 0x2300, symSize: 0x90 }
  - { offset: 0x94C7, size: 0x8, addend: 0x0, symName: '__ZN4core6result19Result$LT$T$C$E$GT$7map_err17h90c747b35950cf82E', symObjAddr: 0x1990, symBinAddr: 0x2390, symSize: 0xF0 }
  - { offset: 0x9573, size: 0x8, addend: 0x0, symName: '__ZN4core6result19Result$LT$T$C$E$GT$7map_err17hb0f89044166f57f6E', symObjAddr: 0x1A80, symBinAddr: 0x2480, symSize: 0xE0 }
  - { offset: 0x9607, size: 0x8, addend: 0x0, symName: '__ZN4core6result19Result$LT$T$C$E$GT$7map_err17hd32072987bfe3b32E', symObjAddr: 0x1B60, symBinAddr: 0x2560, symSize: 0x90 }
  - { offset: 0x9699, size: 0x8, addend: 0x0, symName: '__ZN4core6result19Result$LT$T$C$E$GT$7map_err17hfeffa2445e94917fE', symObjAddr: 0x1BF0, symBinAddr: 0x25F0, symSize: 0x90 }
  - { offset: 0x972B, size: 0x8, addend: 0x0, symName: '__ZN4core6result19Result$LT$T$C$E$GT$8and_then17h0523f117fdf88213E', symObjAddr: 0x1C80, symBinAddr: 0x2680, symSize: 0x90 }
  - { offset: 0x97BE, size: 0x8, addend: 0x0, symName: '__ZN4core6result19Result$LT$T$C$E$GT$9unwrap_or17hbe21c94a8d3b3292E', symObjAddr: 0x1D10, symBinAddr: 0x2710, symSize: 0x60 }
  - { offset: 0x98AE, size: 0x8, addend: 0x0, symName: __ZN4pyo311type_object11get_tp_free17hea5ca2f314175e42E, symObjAddr: 0x0, symBinAddr: 0x4240, symSize: 0x68 }
  - { offset: 0x9914, size: 0x8, addend: 0x0, symName: __ZN4pyo311type_object11get_tp_free17hea5ca2f314175e42E, symObjAddr: 0x0, symBinAddr: 0x4240, symSize: 0x68 }
  - { offset: 0x9A26, size: 0x8, addend: 0x0, symName: '__ZN4pyo35types4none120_$LT$impl$u20$pyo3..conversion..IntoPy$LT$pyo3..instance..Py$LT$pyo3..types..any..PyAny$GT$$GT$$u20$for$u20$$LP$$RP$$GT$7into_py17h630d29ccfffffe70E', symObjAddr: 0x0, symBinAddr: 0x42B0, symSize: 0x30 }
  - { offset: 0x9AAE, size: 0x8, addend: 0x0, symName: '__ZN4pyo35types4none120_$LT$impl$u20$pyo3..conversion..IntoPy$LT$pyo3..instance..Py$LT$pyo3..types..any..PyAny$GT$$GT$$u20$for$u20$$LP$$RP$$GT$7into_py17h630d29ccfffffe70E', symObjAddr: 0x0, symBinAddr: 0x42B0, symSize: 0x30 }
  - { offset: 0x9D9F, size: 0x8, addend: 0x0, symName: __ZN4pyo35types4none6PyNone3get17h9a1d203e8409355cE, symObjAddr: 0x30, symBinAddr: 0x42E0, symSize: 0x1B }
  - { offset: 0x9DFE, size: 0x8, addend: 0x0, symName: '__ZN4core4hash5impls52_$LT$impl$u20$core..hash..Hash$u20$for$u20$$RF$T$GT$4hash17h06158289eae0cc6dE', symObjAddr: 0x0, symBinAddr: 0x4300, symSize: 0x20 }
  - { offset: 0x9E1F, size: 0x8, addend: 0x0, symName: '__ZN4core4hash5impls52_$LT$impl$u20$core..hash..Hash$u20$for$u20$$RF$T$GT$4hash17h06158289eae0cc6dE', symObjAddr: 0x0, symBinAddr: 0x4300, symSize: 0x20 }
  - { offset: 0x9E70, size: 0x8, addend: 0x0, symName: '__ZN4core4hash5impls52_$LT$impl$u20$core..hash..Hash$u20$for$u20$usize$GT$4hash17hffcb576de6c7e0f4E', symObjAddr: 0x20, symBinAddr: 0x4320, symSize: 0x29 }
  - { offset: 0xA00A, size: 0x8, addend: 0x0, symName: __ZN3std5panic12catch_unwind17h07a1d06ebde8eddeE, symObjAddr: 0x0, symBinAddr: 0x4350, symSize: 0x100 }
  - { offset: 0xB67A, size: 0x8, addend: 0x0, symName: __ZN3std5panic12catch_unwind17h07a1d06ebde8eddeE, symObjAddr: 0x0, symBinAddr: 0x4350, symSize: 0x100 }
  - { offset: 0xB72D, size: 0x8, addend: 0x0, symName: __ZN3std5panic12catch_unwind17h4ec848a80937efbeE, symObjAddr: 0x100, symBinAddr: 0x4450, symSize: 0xB0 }
  - { offset: 0xB7C0, size: 0x8, addend: 0x0, symName: __ZN3std5panic12catch_unwind17h69fa812a25f551ecE, symObjAddr: 0x1B0, symBinAddr: 0x4500, symSize: 0xE0 }
  - { offset: 0xB873, size: 0x8, addend: 0x0, symName: __ZN3std5panic12catch_unwind17h7f84a7010f7d669bE, symObjAddr: 0x290, symBinAddr: 0x45E0, symSize: 0xB0 }
  - { offset: 0xB906, size: 0x8, addend: 0x0, symName: __ZN3std5panic12catch_unwind17hc93aa4582d193845E, symObjAddr: 0x340, symBinAddr: 0x4690, symSize: 0x100 }
  - { offset: 0xB9B9, size: 0x8, addend: 0x0, symName: __ZN3std5panic12catch_unwind17hd3f862ea40cf38ceE, symObjAddr: 0x440, symBinAddr: 0x4790, symSize: 0xB0 }
  - { offset: 0xBA4C, size: 0x8, addend: 0x0, symName: __ZN3std5panic12catch_unwind17hd6ed44517125b86dE, symObjAddr: 0x4F0, symBinAddr: 0x4840, symSize: 0xE0 }
  - { offset: 0xBAFF, size: 0x8, addend: 0x0, symName: __ZN3std5panic12catch_unwind17hd97aa3eea2a1bf0aE, symObjAddr: 0x5D0, symBinAddr: 0x4920, symSize: 0xB0 }
  - { offset: 0xBB92, size: 0x8, addend: 0x0, symName: __ZN3std5panic12catch_unwind17hdc8e6722999f95b7E, symObjAddr: 0x680, symBinAddr: 0x49D0, symSize: 0xB0 }
  - { offset: 0xBC25, size: 0x8, addend: 0x0, symName: __ZN3std5panic12catch_unwind17he861bbd95ff40a3dE, symObjAddr: 0x730, symBinAddr: 0x4A80, symSize: 0x100 }
  - { offset: 0xBF12, size: 0x8, addend: 0x0, symName: __ZN9hashbrown3raw13RawTableInner13drop_elements17h2d21038296c911a0E, symObjAddr: 0x0, symBinAddr: 0x4BC0, symSize: 0x1B0 }
  - { offset: 0xBF41, size: 0x8, addend: 0x0, symName: '__ZN9hashbrown3raw21RawTable$LT$T$C$A$GT$14reserve_rehash28_$u7b$$u7b$closure$u7d$$u7d$17h23f44deda68e9481E', symObjAddr: 0x36C0, symBinAddr: 0x5D20, symSize: 0x30 }
  - { offset: 0xBF91, size: 0x8, addend: 0x0, symName: '__ZN9hashbrown3raw21RawTable$LT$T$C$A$GT$14reserve_rehash28_$u7b$$u7b$closure$u7d$$u7d$17h3f68badf137c4cf0E', symObjAddr: 0x36F0, symBinAddr: 0x5D50, symSize: 0xA0 }
  - { offset: 0xC16F, size: 0x8, addend: 0x0, symName: '__ZN9hashbrown3raw21RawTable$LT$T$C$A$GT$14reserve_rehash28_$u7b$$u7b$closure$u7d$$u7d$17h538d9a9eb12828beE', symObjAddr: 0x3790, symBinAddr: 0x5DF0, symSize: 0xA0 }
  - { offset: 0xC34D, size: 0x8, addend: 0x0, symName: '__ZN9hashbrown3raw21RawTable$LT$T$C$A$GT$14reserve_rehash28_$u7b$$u7b$closure$u7d$$u7d$17h8ff1d3df68e98320E', symObjAddr: 0x3830, symBinAddr: 0x5E90, symSize: 0x30 }
  - { offset: 0xC39D, size: 0x8, addend: 0x0, symName: '__ZN9hashbrown3raw21RawTable$LT$T$C$A$GT$14reserve_rehash28_$u7b$$u7b$closure$u7d$$u7d$17hb5d35cbcaa63a146E', symObjAddr: 0x3860, symBinAddr: 0x5EC0, symSize: 0x30 }
  - { offset: 0xC3ED, size: 0x8, addend: 0x0, symName: '__ZN9hashbrown3raw21RawTable$LT$T$C$A$GT$14reserve_rehash28_$u7b$$u7b$closure$u7d$$u7d$17hd0a935973a1401eaE', symObjAddr: 0x3890, symBinAddr: 0x5EF0, symSize: 0xA0 }
  - { offset: 0xC5E6, size: 0x8, addend: 0x0, symName: '__ZN9hashbrown3raw21RawTable$LT$T$C$A$GT$25find_or_find_insert_index28_$u7b$$u7b$closure$u7d$$u7d$17h1494965837a3ddcaE', symObjAddr: 0x4130, symBinAddr: 0x6790, symSize: 0xA0 }
  - { offset: 0xC7D3, size: 0x8, addend: 0x0, symName: '__ZN9hashbrown3raw21RawTable$LT$T$C$A$GT$25find_or_find_insert_index28_$u7b$$u7b$closure$u7d$$u7d$17hbb4751e31d2bc7d0E', symObjAddr: 0x41D0, symBinAddr: 0x6830, symSize: 0xA0 }
  - { offset: 0xC9C0, size: 0x8, addend: 0x0, symName: '__ZN9hashbrown3raw21RawTable$LT$T$C$A$GT$25find_or_find_insert_index28_$u7b$$u7b$closure$u7d$$u7d$17hc16a6a55cf43094eE', symObjAddr: 0x4270, symBinAddr: 0x68D0, symSize: 0xA0 }
  - { offset: 0xCBB3, size: 0x8, addend: 0x0, symName: '__ZN9hashbrown3raw21RawTable$LT$T$C$A$GT$4find28_$u7b$$u7b$closure$u7d$$u7d$17h4fbc129d873d1667E', symObjAddr: 0x5030, symBinAddr: 0x7690, symSize: 0xA0 }
  - { offset: 0xCD97, size: 0x8, addend: 0x0, symName: '__ZN9hashbrown3raw21RawTable$LT$T$C$A$GT$4find28_$u7b$$u7b$closure$u7d$$u7d$17h874d42a90206e3fdE', symObjAddr: 0x50D0, symBinAddr: 0x7730, symSize: 0xA0 }
  - { offset: 0xCF7B, size: 0x8, addend: 0x0, symName: '__ZN9hashbrown3raw21RawTable$LT$T$C$A$GT$4find28_$u7b$$u7b$closure$u7d$$u7d$17hddd4c172255fcbefE', symObjAddr: 0x5170, symBinAddr: 0x77D0, symSize: 0xA0 }
  - { offset: 0x111F8, size: 0x8, addend: 0x0, symName: __ZN9hashbrown3raw13RawTableInner13drop_elements17h2d21038296c911a0E, symObjAddr: 0x0, symBinAddr: 0x4BC0, symSize: 0x1B0 }
  - { offset: 0x115B9, size: 0x8, addend: 0x0, symName: __ZN9hashbrown3raw13RawTableInner13drop_elements17hc5e3c57e156266cbE, symObjAddr: 0x1B0, symBinAddr: 0x4D70, symSize: 0x1B0 }
  - { offset: 0x1197A, size: 0x8, addend: 0x0, symName: __ZN9hashbrown3raw13RawTableInner13drop_elements17hf1169937a253f9e9E, symObjAddr: 0x360, symBinAddr: 0x4F20, symSize: 0x1B0 }
  - { offset: 0x11D33, size: 0x8, addend: 0x0, symName: __ZN9hashbrown3raw13RawTableInner16drop_inner_table17h114391d44192a61aE, symObjAddr: 0x510, symBinAddr: 0x50D0, symSize: 0xC0 }
  - { offset: 0x11FBD, size: 0x8, addend: 0x0, symName: __ZN9hashbrown3raw13RawTableInner16drop_inner_table17h7c8becbf026aaf42E, symObjAddr: 0x5D0, symBinAddr: 0x5190, symSize: 0xC0 }
  - { offset: 0x12247, size: 0x8, addend: 0x0, symName: __ZN9hashbrown3raw13RawTableInner16drop_inner_table17h925b46f3ebedd45aE, symObjAddr: 0x690, symBinAddr: 0x5250, symSize: 0xC0 }
  - { offset: 0x1247A, size: 0x8, addend: 0x0, symName: '__ZN9hashbrown3raw21RawIterRange$LT$T$GT$3new17h615f358dff29b59aE', symObjAddr: 0x750, symBinAddr: 0x5310, symSize: 0xC0 }
  - { offset: 0x1265A, size: 0x8, addend: 0x0, symName: '__ZN9hashbrown3raw21RawIterRange$LT$T$GT$3new17ha22c42457ac2d118E', symObjAddr: 0x810, symBinAddr: 0x53D0, symSize: 0xC0 }
  - { offset: 0x1283A, size: 0x8, addend: 0x0, symName: '__ZN9hashbrown3raw21RawIterRange$LT$T$GT$3new17hd2cdeec392f1e831E', symObjAddr: 0x8D0, symBinAddr: 0x5490, symSize: 0xC0 }
  - { offset: 0x12B41, size: 0x8, addend: 0x0, symName: '__ZN9hashbrown3raw21RawIterRange$LT$T$GT$9next_impl17hb58427135325f118E', symObjAddr: 0x990, symBinAddr: 0x5550, symSize: 0x220 }
  - { offset: 0x12FF7, size: 0x8, addend: 0x0, symName: '__ZN9hashbrown3raw21RawIterRange$LT$T$GT$9next_impl17hb58ed01253e07352E', symObjAddr: 0xBB0, symBinAddr: 0x5770, symSize: 0x220 }
  - { offset: 0x134AD, size: 0x8, addend: 0x0, symName: '__ZN9hashbrown3raw21RawIterRange$LT$T$GT$9next_impl17he583ca1670096f15E', symObjAddr: 0xDD0, symBinAddr: 0x5990, symSize: 0x220 }
  - { offset: 0x137E4, size: 0x8, addend: 0x0, symName: '__ZN9hashbrown3raw21RawTable$LT$T$C$A$GT$12remove_entry17h64dd57cdb3fb0b94E', symObjAddr: 0xFF0, symBinAddr: 0x5BB0, symSize: 0x100 }
  - { offset: 0x138F6, size: 0x8, addend: 0x0, symName: '__ZN9hashbrown3raw21RawTable$LT$T$C$A$GT$13erase_no_drop17h2a8bd6d1591b6df6E', symObjAddr: 0x10F0, symBinAddr: 0x5CB0, symSize: 0x70 }
  - { offset: 0x13FAF, size: 0x8, addend: 0x0, symName: '__ZN9hashbrown3raw21RawTable$LT$T$C$A$GT$14reserve_rehash17h18dcbaf0b1c01584E', symObjAddr: 0x1160, symBinAddr: 0xA2BA0, symSize: 0xC60 }
  - { offset: 0x14936, size: 0x8, addend: 0x0, symName: '__ZN9hashbrown3raw21RawTable$LT$T$C$A$GT$14reserve_rehash17hb5e3a467a71b8b40E', symObjAddr: 0x1DC0, symBinAddr: 0xA3800, symSize: 0xC80 }
  - { offset: 0x152CA, size: 0x8, addend: 0x0, symName: '__ZN9hashbrown3raw21RawTable$LT$T$C$A$GT$14reserve_rehash17hd9ca53c81c3fe2a2E', symObjAddr: 0x2A40, symBinAddr: 0xA4480, symSize: 0xC80 }
  - { offset: 0x16070, size: 0x8, addend: 0x0, symName: '__ZN9hashbrown3raw21RawTable$LT$T$C$A$GT$16with_capacity_in17he549c5856e90e8f5E', symObjAddr: 0x3930, symBinAddr: 0x5F90, symSize: 0xC0 }
  - { offset: 0x162A5, size: 0x8, addend: 0x0, symName: '__ZN9hashbrown3raw21RawTable$LT$T$C$A$GT$22insert_tagged_at_index17ha6288ee65f319539E', symObjAddr: 0x39F0, symBinAddr: 0x6050, symSize: 0x110 }
  - { offset: 0x167B3, size: 0x8, addend: 0x0, symName: '__ZN9hashbrown3raw21RawTable$LT$T$C$A$GT$22insert_tagged_at_index17hbfa20115e5fabde8E', symObjAddr: 0x3B00, symBinAddr: 0x6160, symSize: 0x120 }
  - { offset: 0x16CC1, size: 0x8, addend: 0x0, symName: '__ZN9hashbrown3raw21RawTable$LT$T$C$A$GT$22insert_tagged_at_index17hfb7ba3bbd0c71e10E', symObjAddr: 0x3C20, symBinAddr: 0x6280, symSize: 0x120 }
  - { offset: 0x1710F, size: 0x8, addend: 0x0, symName: '__ZN9hashbrown3raw21RawTable$LT$T$C$A$GT$25find_or_find_insert_index17ha8b3ff0849c1ab50E', symObjAddr: 0x3D40, symBinAddr: 0x63A0, symSize: 0x150 }
  - { offset: 0x173CA, size: 0x8, addend: 0x0, symName: '__ZN9hashbrown3raw21RawTable$LT$T$C$A$GT$25find_or_find_insert_index17hac0af3894bbe0a2fE', symObjAddr: 0x3E90, symBinAddr: 0x64F0, symSize: 0x150 }
  - { offset: 0x17685, size: 0x8, addend: 0x0, symName: '__ZN9hashbrown3raw21RawTable$LT$T$C$A$GT$25find_or_find_insert_index17he30916b377965b1dE', symObjAddr: 0x3FE0, symBinAddr: 0x6640, symSize: 0x150 }
  - { offset: 0x17F67, size: 0x8, addend: 0x0, symName: '__ZN9hashbrown3raw21RawTable$LT$T$C$A$GT$4find17h876ea78c26b56e10E', symObjAddr: 0x4310, symBinAddr: 0x6970, symSize: 0x460 }
  - { offset: 0x18558, size: 0x8, addend: 0x0, symName: '__ZN9hashbrown3raw21RawTable$LT$T$C$A$GT$4find17hb9b0ac978565d98fE', symObjAddr: 0x4770, symBinAddr: 0x6DD0, symSize: 0x460 }
  - { offset: 0x18B49, size: 0x8, addend: 0x0, symName: '__ZN9hashbrown3raw21RawTable$LT$T$C$A$GT$4find17hf7071d5dc2eabbdaE', symObjAddr: 0x4BD0, symBinAddr: 0x7230, symSize: 0x460 }
  - { offset: 0x19531, size: 0x8, addend: 0x0, symName: '__ZN9hashbrown3raw21RawTable$LT$T$C$A$GT$6remove17hb1a06cca6ad5c821E', symObjAddr: 0x5210, symBinAddr: 0x7870, symSize: 0x140 }
  - { offset: 0x1978C, size: 0x8, addend: 0x0, symName: '__ZN9hashbrown3raw21RawTable$LT$T$C$A$GT$7reserve17h0f4e5eb358db3a99E', symObjAddr: 0x5350, symBinAddr: 0x79B0, symSize: 0xA0 }
  - { offset: 0x19890, size: 0x8, addend: 0x0, symName: '__ZN9hashbrown3raw21RawTable$LT$T$C$A$GT$7reserve17h48388d9fd2bfda74E', symObjAddr: 0x53F0, symBinAddr: 0x7A50, symSize: 0xA0 }
  - { offset: 0x19994, size: 0x8, addend: 0x0, symName: '__ZN9hashbrown3raw21RawTable$LT$T$C$A$GT$7reserve17h5b3375894656ab31E', symObjAddr: 0x5490, symBinAddr: 0x7AF0, symSize: 0x9D }
  - { offset: 0x19A93, size: 0x8, addend: 0x0, symName: __ZN4core5alloc6layout6Layout25from_size_align_unchecked18precondition_check17hf10d2039746fa957E, symObjAddr: 0x0, symBinAddr: 0x7B90, symSize: 0x5C }
  - { offset: 0x19AB9, size: 0x8, addend: 0x0, symName: __ZN4core5alloc6layout6Layout25from_size_align_unchecked18precondition_check17hf10d2039746fa957E, symObjAddr: 0x0, symBinAddr: 0x7B90, symSize: 0x5C }
  - { offset: 0x19B64, size: 0x8, addend: 0x0, symName: '__ZN106_$LT$core..slice..iter..Iter$LT$T$GT$$u20$as$u20$core..iter..traits..double_ended..DoubleEndedIterator$GT$15advance_back_by17h096744db480e7194E', symObjAddr: 0x0, symBinAddr: 0x7BF0, symSize: 0xD0 }
  - { offset: 0x19CA9, size: 0x8, addend: 0x0, symName: '__ZN106_$LT$core..slice..iter..Iter$LT$T$GT$$u20$as$u20$core..iter..traits..double_ended..DoubleEndedIterator$GT$15advance_back_by17h096744db480e7194E', symObjAddr: 0x0, symBinAddr: 0x7BF0, symSize: 0xD0 }
  - { offset: 0x19E1B, size: 0x8, addend: 0x0, symName: '__ZN106_$LT$core..slice..iter..Iter$LT$T$GT$$u20$as$u20$core..iter..traits..double_ended..DoubleEndedIterator$GT$8nth_back17hedbaf07643e9665cE', symObjAddr: 0xD0, symBinAddr: 0x7CC0, symSize: 0x1A0 }
  - { offset: 0x1A072, size: 0x8, addend: 0x0, symName: '__ZN106_$LT$core..slice..iter..Iter$LT$T$GT$$u20$as$u20$core..iter..traits..double_ended..DoubleEndedIterator$GT$9next_back17h13b4144b4384c2a0E', symObjAddr: 0x270, symBinAddr: 0x7E60, symSize: 0xC0 }
  - { offset: 0x1A1CD, size: 0x8, addend: 0x0, symName: '__ZN106_$LT$core..slice..iter..Iter$LT$T$GT$$u20$as$u20$core..iter..traits..double_ended..DoubleEndedIterator$GT$9next_back17h44757f23d4ca24c6E', symObjAddr: 0x330, symBinAddr: 0x7F20, symSize: 0xC0 }
  - { offset: 0x1A3C3, size: 0x8, addend: 0x0, symName: '__ZN91_$LT$core..slice..iter..Iter$LT$T$GT$$u20$as$u20$core..iter..traits..iterator..Iterator$GT$10advance_by17hf41720b81bc8d476E', symObjAddr: 0x6F0, symBinAddr: 0x82E0, symSize: 0xA0 }
  - { offset: 0x1A503, size: 0x8, addend: 0x0, symName: '__ZN91_$LT$core..slice..iter..Iter$LT$T$GT$$u20$as$u20$core..iter..traits..iterator..Iterator$GT$24__iterator_get_unchecked17h76a0c1cc7eda8659E', symObjAddr: 0x790, symBinAddr: 0x8380, symSize: 0x20 }
  - { offset: 0x1A55E, size: 0x8, addend: 0x0, symName: '__ZN91_$LT$core..slice..iter..Iter$LT$T$GT$$u20$as$u20$core..iter..traits..iterator..Iterator$GT$3nth17h6dc393b3ff94150eE', symObjAddr: 0x7B0, symBinAddr: 0x83A0, symSize: 0x120 }
  - { offset: 0x1A723, size: 0x8, addend: 0x0, symName: '__ZN91_$LT$core..slice..iter..Iter$LT$T$GT$$u20$as$u20$core..iter..traits..iterator..Iterator$GT$4fold17h72303d2a9f598130E', symObjAddr: 0x8D0, symBinAddr: 0x84C0, symSize: 0x160 }
  - { offset: 0x1A859, size: 0x8, addend: 0x0, symName: '__ZN91_$LT$core..slice..iter..Iter$LT$T$GT$$u20$as$u20$core..iter..traits..iterator..Iterator$GT$4next17h87c6e11d399954c4E', symObjAddr: 0xA30, symBinAddr: 0x8620, symSize: 0x70 }
  - { offset: 0x1A96F, size: 0x8, addend: 0x0, symName: '__ZN91_$LT$core..slice..iter..Iter$LT$T$GT$$u20$as$u20$core..iter..traits..iterator..Iterator$GT$8position17h26d74b3ca5660f3dE', symObjAddr: 0xAA0, symBinAddr: 0x8690, symSize: 0x170 }
  - { offset: 0x1AB10, size: 0x8, addend: 0x0, symName: '__ZN91_$LT$core..slice..iter..Iter$LT$T$GT$$u20$as$u20$core..iter..traits..iterator..Iterator$GT$8position17hf745a0457f277a83E', symObjAddr: 0xC10, symBinAddr: 0x8800, symSize: 0x170 }
  - { offset: 0x1AC62, size: 0x8, addend: 0x0, symName: '__ZN91_$LT$core..slice..iter..Iter$LT$T$GT$$u20$as$u20$core..iter..traits..iterator..Iterator$GT$9size_hint17head248e893a5ed81E', symObjAddr: 0xD80, symBinAddr: 0x8970, symSize: 0x60 }
  - { offset: 0x1ACD1, size: 0x8, addend: 0x0, symName: '__ZN91_$LT$core..slice..iter..Iter$LT$T$GT$$u20$as$u20$core..iter..traits..iterator..Iterator$GT$9size_hint17hfed8d53975480ff2E', symObjAddr: 0xDE0, symBinAddr: 0x89D0, symSize: 0x55 }
  - { offset: 0x1B69C, size: 0x8, addend: 0x0, symName: __ZN4core4iter6traits12double_ended19DoubleEndedIterator5rfold17h65d19f4845e995ccE, symObjAddr: 0x3F0, symBinAddr: 0x7FE0, symSize: 0xC0 }
  - { offset: 0x1B738, size: 0x8, addend: 0x0, symName: __ZN4core4iter6traits8iterator8Iterator3map17hf9c9ab7babf7b6dfE, symObjAddr: 0x4B0, symBinAddr: 0x80A0, symSize: 0x20 }
  - { offset: 0x1B790, size: 0x8, addend: 0x0, symName: __ZN4core4iter6traits8iterator8Iterator3rev17h6c7bd5ba03ea7de6E, symObjAddr: 0x4D0, symBinAddr: 0x80C0, symSize: 0x20 }
  - { offset: 0x1B7C7, size: 0x8, addend: 0x0, symName: __ZN4core4iter6traits8iterator8Iterator3rev17h7094a82b997fa396E, symObjAddr: 0x4F0, symBinAddr: 0x80E0, symSize: 0x20 }
  - { offset: 0x1B7FE, size: 0x8, addend: 0x0, symName: __ZN4core4iter6traits8iterator8Iterator3zip17h2d9df49ce8d1d500E, symObjAddr: 0x510, symBinAddr: 0x8100, symSize: 0xD0 }
  - { offset: 0x1B874, size: 0x8, addend: 0x0, symName: __ZN4core4iter6traits8iterator8Iterator6cloned17he0cfe14d44027773E, symObjAddr: 0x5E0, symBinAddr: 0x81D0, symSize: 0x20 }
  - { offset: 0x1B8F2, size: 0x8, addend: 0x0, symName: '__ZN63_$LT$I$u20$as$u20$core..iter..traits..collect..IntoIterator$GT$9into_iter17hceaa81dc91ea7bf8E', symObjAddr: 0x6D0, symBinAddr: 0x82C0, symSize: 0x20 }
  - { offset: 0x1B9B2, size: 0x8, addend: 0x0, symName: __ZN4core4iter8adapters3zip27TrustedRandomAccessNoCoerce4size17h11231f69b2564495E, symObjAddr: 0x600, symBinAddr: 0x81F0, symSize: 0x30 }
  - { offset: 0x1C686, size: 0x8, addend: 0x0, symName: '__ZN4core5slice4iter13Iter$LT$T$GT$3new17h33793f6f9fa05ff0E', symObjAddr: 0x630, symBinAddr: 0x8220, symSize: 0x50 }
  - { offset: 0x1C826, size: 0x8, addend: 0x0, symName: '__ZN4core5slice4iter13Iter$LT$T$GT$3new17h5bdd461555332fecE', symObjAddr: 0x680, symBinAddr: 0x8270, symSize: 0x50 }
  - { offset: 0x1CC0B, size: 0x8, addend: 0x0, symName: '__ZN4pyo35types10boolobject63_$LT$impl$u20$pyo3..conversion..ToPyObject$u20$for$u20$bool$GT$9to_object17h9ee13fb683d83b93E', symObjAddr: 0x0, symBinAddr: 0x8A30, symSize: 0x34 }
  - { offset: 0x1CC93, size: 0x8, addend: 0x0, symName: '__ZN4pyo35types10boolobject63_$LT$impl$u20$pyo3..conversion..ToPyObject$u20$for$u20$bool$GT$9to_object17h9ee13fb683d83b93E', symObjAddr: 0x0, symBinAddr: 0x8A30, symSize: 0x34 }
  - { offset: 0x1CF81, size: 0x8, addend: 0x0, symName: __ZN4core9core_arch3x864sse212_mm_or_si12817h44ae0ef4e7e04325E, symObjAddr: 0x0, symBinAddr: 0x8A70, symSize: 0x20 }
  - { offset: 0x1CFA2, size: 0x8, addend: 0x0, symName: __ZN4core9core_arch3x864sse212_mm_or_si12817h44ae0ef4e7e04325E, symObjAddr: 0x0, symBinAddr: 0x8A70, symSize: 0x20 }
  - { offset: 0x1D0B1, size: 0x8, addend: 0x0, symName: __ZN4core9core_arch3x864sse213_mm_set1_epi817h500a913668a2720dE, symObjAddr: 0x20, symBinAddr: 0x8A90, symSize: 0x90 }
  - { offset: 0x1D20B, size: 0x8, addend: 0x0, symName: __ZN4core9core_arch3x864sse214_mm_cmpeq_epi817he7e7bda80bf3d6d9E, symObjAddr: 0xB0, symBinAddr: 0x8B20, symSize: 0x80 }
  - { offset: 0x1D24B, size: 0x8, addend: 0x0, symName: __ZN4core9core_arch3x864sse214_mm_cmpgt_epi817h11c1012c3401c9c8E, symObjAddr: 0x130, symBinAddr: 0x8BA0, symSize: 0x80 }
  - { offset: 0x1D28B, size: 0x8, addend: 0x0, symName: __ZN4core9core_arch3x864sse214_mm_load_si12817hb714943afdb6fbc9E, symObjAddr: 0x1B0, symBinAddr: 0x8C20, symSize: 0x20 }
  - { offset: 0x1D2CA, size: 0x8, addend: 0x0, symName: __ZN4core9core_arch3x864sse215_mm_loadu_si12817h98bf6bf27af0720cE, symObjAddr: 0x1D0, symBinAddr: 0x8C40, symSize: 0x90 }
  - { offset: 0x1D359, size: 0x8, addend: 0x0, symName: __ZN4core9core_arch3x864sse215_mm_store_si12817h146a571f7772ee40E, symObjAddr: 0x260, symBinAddr: 0x8CD0, symSize: 0x20 }
  - { offset: 0x1D392, size: 0x8, addend: 0x0, symName: __ZN4core9core_arch3x864sse217_mm_movemask_epi817h3dcc2dbec937cb41E, symObjAddr: 0x280, symBinAddr: 0x8CF0, symSize: 0x50 }
  - { offset: 0x1D3FE, size: 0x8, addend: 0x0, symName: __ZN4core9core_arch3x864sse217_mm_setzero_si12817h30b1c6bc4756e230E, symObjAddr: 0x2D0, symBinAddr: 0x8D40, symSize: 0xF }
  - { offset: 0x1D63E, size: 0x8, addend: 0x0, symName: __ZN4pyo310exceptions15PyOverflowError7new_err17hbad0a0f52cad083eE, symObjAddr: 0x0, symBinAddr: 0x8D50, symSize: 0x20 }
  - { offset: 0x1D923, size: 0x8, addend: 0x0, symName: __ZN4pyo311type_object10PyTypeInfo11type_object17h82a9a966f212e94bE, symObjAddr: 0x20, symBinAddr: 0x8D70, symSize: 0x20 }
  - { offset: 0x1D963, size: 0x8, addend: 0x0, symName: __ZN4pyo311type_object10PyTypeInfo11type_object17h9171b3c2c1d35222E, symObjAddr: 0x40, symBinAddr: 0x8D90, symSize: 0x1B }
  - { offset: 0x1DD5C, size: 0x8, addend: 0x0, symName: __ZN4pyo310exceptions15PyOverflowError7new_err17hbad0a0f52cad083eE, symObjAddr: 0x0, symBinAddr: 0x8D50, symSize: 0x20 }
  - { offset: 0x1DDEA, size: 0x8, addend: 0x0, symName: __ZN4core3fmt9Arguments17from_str_nonconst17h9fc3e61b1d0e9176E, symObjAddr: 0x0, symBinAddr: 0x8DB0, symSize: 0x20 }
  - { offset: 0x1E136, size: 0x8, addend: 0x0, symName: __ZN4core3fmt9Arguments17from_str_nonconst17h9fc3e61b1d0e9176E, symObjAddr: 0x0, symBinAddr: 0x8DB0, symSize: 0x20 }
  - { offset: 0x1E159, size: 0x8, addend: 0x0, symName: __ZN4core3fmt9Arguments8from_str17h0511655181b1602dE, symObjAddr: 0x20, symBinAddr: 0x8DD0, symSize: 0x16 }
  - { offset: 0x1E19A, size: 0x8, addend: 0x0, symName: __ZN4core9ub_checks23maybe_is_nonoverlapping7runtime17hf38e7212f93536b4E, symObjAddr: 0x0, symBinAddr: 0x8DF0, symSize: 0xBD }
  - { offset: 0x1E31F, size: 0x8, addend: 0x0, symName: __ZN4core9ub_checks23maybe_is_nonoverlapping7runtime17hf38e7212f93536b4E, symObjAddr: 0x0, symBinAddr: 0x8DF0, symSize: 0xBD }
  - { offset: 0x1E533, size: 0x8, addend: 0x0, symName: __ZN4pyo35types6string8PyString6to_str17hd99db8853fc4d00fE, symObjAddr: 0x0, symBinAddr: 0x8EB0, symSize: 0x140 }
  - { offset: 0x1E57E, size: 0x8, addend: 0x0, symName: '__ZN73_$LT$pyo3..types..string..PyString$u20$as$u20$core..ops..deref..Deref$GT$5deref17h18b816e58c222830E', symObjAddr: 0x140, symBinAddr: 0x8FF0, symSize: 0x10 }
  - { offset: 0x1E5B0, size: 0x8, addend: 0x0, symName: '__ZN79_$LT$pyo3..types..string..PyString$u20$as$u20$pyo3..type_object..PyTypeInfo$GT$10is_type_of17h3ae71d8576f79465E', symObjAddr: 0x150, symBinAddr: 0x9000, symSize: 0x27 }
  - { offset: 0x1EBF4, size: 0x8, addend: 0x0, symName: __ZN4pyo35types6string8PyString6to_str17hd99db8853fc4d00fE, symObjAddr: 0x0, symBinAddr: 0x8EB0, symSize: 0x140 }
  - { offset: 0x1ECCB, size: 0x8, addend: 0x0, symName: '__ZN110_$LT$core..iter..adapters..enumerate..Enumerate$LT$I$GT$$u20$as$u20$core..iter..traits..iterator..Iterator$GT$4next17h0ba3470244bfa1fbE', symObjAddr: 0x0, symBinAddr: 0x9030, symSize: 0xE0 }
  - { offset: 0x1F0BC, size: 0x8, addend: 0x0, symName: '__ZN110_$LT$core..iter..adapters..enumerate..Enumerate$LT$I$GT$$u20$as$u20$core..iter..traits..iterator..Iterator$GT$4next17h0ba3470244bfa1fbE', symObjAddr: 0x0, symBinAddr: 0x9030, symSize: 0xE0 }
  - { offset: 0x1F1A2, size: 0x8, addend: 0x0, symName: '__ZN110_$LT$core..iter..adapters..enumerate..Enumerate$LT$I$GT$$u20$as$u20$core..iter..traits..iterator..Iterator$GT$4next17h232c1c34f74163bcE', symObjAddr: 0xE0, symBinAddr: 0x9110, symSize: 0x170 }
  - { offset: 0x1F372, size: 0x8, addend: 0x0, symName: '__ZN63_$LT$I$u20$as$u20$core..iter..traits..collect..IntoIterator$GT$9into_iter17h07356a03a71cb6abE', symObjAddr: 0x250, symBinAddr: 0x9280, symSize: 0x30 }
  - { offset: 0x1F3AA, size: 0x8, addend: 0x0, symName: '__ZN63_$LT$I$u20$as$u20$core..iter..traits..collect..IntoIterator$GT$9into_iter17h2d17f9b049f49347E', symObjAddr: 0x280, symBinAddr: 0x92B0, symSize: 0x23 }
  - { offset: 0x1F61F, size: 0x8, addend: 0x0, symName: '__ZN4core3cmp5impls69_$LT$impl$u20$core..cmp..PartialEq$LT$$RF$B$GT$$u20$for$u20$$RF$A$GT$2eq17h311e193f50529c45E', symObjAddr: 0x0, symBinAddr: 0x92E0, symSize: 0x23 }
  - { offset: 0x1F640, size: 0x8, addend: 0x0, symName: '__ZN4core3cmp5impls69_$LT$impl$u20$core..cmp..PartialEq$LT$$RF$B$GT$$u20$for$u20$$RF$A$GT$2eq17h311e193f50529c45E', symObjAddr: 0x0, symBinAddr: 0x92E0, symSize: 0x23 }
  - { offset: 0x1F6D9, size: 0x8, addend: 0x0, symName: '__ZN118_$LT$pyo3..impl_..pyclass..SendablePyClass$LT$T$GT$$u20$as$u20$pyo3..impl_..pyclass..PyClassThreadChecker$LT$T$GT$$GT$3new17h2e6123e5d3dee6abE', symObjAddr: 0x0, symBinAddr: 0x9310, symSize: 0x10 }
  - { offset: 0x1FA05, size: 0x8, addend: 0x0, symName: '__ZN118_$LT$pyo3..impl_..pyclass..SendablePyClass$LT$T$GT$$u20$as$u20$pyo3..impl_..pyclass..PyClassThreadChecker$LT$T$GT$$GT$3new17h2e6123e5d3dee6abE', symObjAddr: 0x0, symBinAddr: 0x9310, symSize: 0x10 }
  - { offset: 0x1FA29, size: 0x8, addend: 0x0, symName: '__ZN118_$LT$pyo3..impl_..pyclass..SendablePyClass$LT$T$GT$$u20$as$u20$pyo3..impl_..pyclass..PyClassThreadChecker$LT$T$GT$$GT$3new17h968dc50c0de4ae1fE', symObjAddr: 0x10, symBinAddr: 0x9320, symSize: 0x10 }
  - { offset: 0x1FA4D, size: 0x8, addend: 0x0, symName: '__ZN118_$LT$pyo3..impl_..pyclass..SendablePyClass$LT$T$GT$$u20$as$u20$pyo3..impl_..pyclass..PyClassThreadChecker$LT$T$GT$$GT$3new17hf005399a5ea6c06aE', symObjAddr: 0x20, symBinAddr: 0x9330, symSize: 0x10 }
  - { offset: 0x1FA71, size: 0x8, addend: 0x0, symName: '__ZN118_$LT$pyo3..impl_..pyclass..SendablePyClass$LT$T$GT$$u20$as$u20$pyo3..impl_..pyclass..PyClassThreadChecker$LT$T$GT$$GT$6ensure17h897490fb214fbd76E', symObjAddr: 0x30, symBinAddr: 0x9340, symSize: 0x10 }
  - { offset: 0x1FAA4, size: 0x8, addend: 0x0, symName: '__ZN118_$LT$pyo3..impl_..pyclass..SendablePyClass$LT$T$GT$$u20$as$u20$pyo3..impl_..pyclass..PyClassThreadChecker$LT$T$GT$$GT$6ensure17h91f85d23e66afc5dE', symObjAddr: 0x40, symBinAddr: 0x9350, symSize: 0x10 }
  - { offset: 0x1FAD7, size: 0x8, addend: 0x0, symName: '__ZN118_$LT$pyo3..impl_..pyclass..SendablePyClass$LT$T$GT$$u20$as$u20$pyo3..impl_..pyclass..PyClassThreadChecker$LT$T$GT$$GT$6ensure17hac2aeb787333d7dbE', symObjAddr: 0x50, symBinAddr: 0x9360, symSize: 0x10 }
  - { offset: 0x1FB0A, size: 0x8, addend: 0x0, symName: '__ZN118_$LT$pyo3..impl_..pyclass..SendablePyClass$LT$T$GT$$u20$as$u20$pyo3..impl_..pyclass..PyClassThreadChecker$LT$T$GT$$GT$8can_drop17h2e57efea8a120b55E', symObjAddr: 0x60, symBinAddr: 0x9370, symSize: 0x10 }
  - { offset: 0x1FB5C, size: 0x8, addend: 0x0, symName: '__ZN118_$LT$pyo3..impl_..pyclass..SendablePyClass$LT$T$GT$$u20$as$u20$pyo3..impl_..pyclass..PyClassThreadChecker$LT$T$GT$$GT$8can_drop17h5fa1a63970792f09E', symObjAddr: 0x70, symBinAddr: 0x9380, symSize: 0x10 }
  - { offset: 0x1FBAE, size: 0x8, addend: 0x0, symName: '__ZN118_$LT$pyo3..impl_..pyclass..SendablePyClass$LT$T$GT$$u20$as$u20$pyo3..impl_..pyclass..PyClassThreadChecker$LT$T$GT$$GT$8can_drop17hfda6753ee8a002ffE', symObjAddr: 0x80, symBinAddr: 0x9390, symSize: 0x10 }
  - { offset: 0x1FC01, size: 0x8, addend: 0x0, symName: __ZN4pyo35impl_7pyclass10tp_dealloc17h038c990b8a21eccaE, symObjAddr: 0x90, symBinAddr: 0x93A0, symSize: 0x30 }
  - { offset: 0x1FC34, size: 0x8, addend: 0x0, symName: __ZN4pyo35impl_7pyclass10tp_dealloc17h0898d2dfebb02758E, symObjAddr: 0xC0, symBinAddr: 0x93D0, symSize: 0x30 }
  - { offset: 0x1FC67, size: 0x8, addend: 0x0, symName: __ZN4pyo35impl_7pyclass10tp_dealloc17h1c42ce9c2ccbfbe9E, symObjAddr: 0xF0, symBinAddr: 0x9400, symSize: 0x30 }
  - { offset: 0x1FC9F, size: 0x8, addend: 0x0, symName: __ZN4pyo35impl_7pyclass11PyClassDict10clear_dict17hd49929d2a31c597aE, symObjAddr: 0x120, symBinAddr: 0x9430, symSize: 0x10 }
  - { offset: 0x1FCEF, size: 0x8, addend: 0x0, symName: __ZN4pyo35impl_7pyclass14PyClassWeakRef14clear_weakrefs17he28be9f7d9f15860E, symObjAddr: 0x130, symBinAddr: 0x9440, symSize: 0x10 }
  - { offset: 0x1FD48, size: 0x8, addend: 0x0, symName: __ZN4pyo35impl_7pyclass18tp_dealloc_with_gc17haf416704925c5d49E, symObjAddr: 0x140, symBinAddr: 0x9450, symSize: 0x40 }
  - { offset: 0x1FD99, size: 0x8, addend: 0x0, symName: __ZN4pyo35impl_7pyclass18tp_dealloc_with_gc17hb59bd5f908c54770E, symObjAddr: 0x180, symBinAddr: 0x9490, symSize: 0x40 }
  - { offset: 0x1FDEA, size: 0x8, addend: 0x0, symName: __ZN4pyo35impl_7pyclass18tp_dealloc_with_gc17hf043af60f415c78eE, symObjAddr: 0x1C0, symBinAddr: 0x94D0, symSize: 0x40 }
  - { offset: 0x20841, size: 0x8, addend: 0x0, symName: '__ZN4pyo35impl_7pyclass29PyClassImplCollector$LT$T$GT$3new17h560aecf545452a89E', symObjAddr: 0x200, symBinAddr: 0x9510, symSize: 0x10 }
  - { offset: 0x2085E, size: 0x8, addend: 0x0, symName: '__ZN4pyo35impl_7pyclass29PyClassImplCollector$LT$T$GT$3new17hb54f8557a946a45fE', symObjAddr: 0x210, symBinAddr: 0x9520, symSize: 0x10 }
  - { offset: 0x2087B, size: 0x8, addend: 0x0, symName: '__ZN4pyo35impl_7pyclass29PyClassImplCollector$LT$T$GT$3new17hd2d63da5745ccbb3E', symObjAddr: 0x220, symBinAddr: 0x9530, symSize: 0x6 }
  - { offset: 0x20929, size: 0x8, addend: 0x0, symName: __ZN4pyo35types10typeobject6PyType11as_type_ptr17h3d1323f9289d46faE, symObjAddr: 0x0, symBinAddr: 0x9540, symSize: 0x20 }
  - { offset: 0x20974, size: 0x8, addend: 0x0, symName: '__ZN75_$LT$pyo3..types..typeobject..PyType$u20$as$u20$core..ops..deref..Deref$GT$5deref17hda0b5f9708f7165dE', symObjAddr: 0x20, symBinAddr: 0x9560, symSize: 0xD }
  - { offset: 0x20A67, size: 0x8, addend: 0x0, symName: __ZN4pyo35types10typeobject6PyType11as_type_ptr17h3d1323f9289d46faE, symObjAddr: 0x0, symBinAddr: 0x9540, symSize: 0x20 }
  - { offset: 0x20AB4, size: 0x8, addend: 0x0, symName: '__ZN75_$LT$usize$u20$as$u20$core..slice..index..SliceIndex$LT$$u5b$T$u5d$$GT$$GT$3get17h4c6a3f6e6a46d6d9E', symObjAddr: 0x0, symBinAddr: 0x9570, symSize: 0x40 }
  - { offset: 0x20AD5, size: 0x8, addend: 0x0, symName: '__ZN75_$LT$usize$u20$as$u20$core..slice..index..SliceIndex$LT$$u5b$T$u5d$$GT$$GT$3get17h4c6a3f6e6a46d6d9E', symObjAddr: 0x0, symBinAddr: 0x9570, symSize: 0x40 }
  - { offset: 0x20D1E, size: 0x8, addend: 0x0, symName: '__ZN111_$LT$alloc..vec..Vec$LT$T$GT$$u20$as$u20$alloc..vec..spec_from_iter_nested..SpecFromIterNested$LT$T$C$I$GT$$GT$9from_iter17h97b39373c4906f41E', symObjAddr: 0x0, symBinAddr: 0x95B0, symSize: 0x130 }
  - { offset: 0x22652, size: 0x8, addend: 0x0, symName: '__ZN111_$LT$alloc..vec..Vec$LT$T$GT$$u20$as$u20$alloc..vec..spec_from_iter_nested..SpecFromIterNested$LT$T$C$I$GT$$GT$9from_iter17h97b39373c4906f41E', symObjAddr: 0x0, symBinAddr: 0x95B0, symSize: 0x130 }
  - { offset: 0x22715, size: 0x8, addend: 0x0, symName: '__ZN111_$LT$alloc..vec..Vec$LT$T$GT$$u20$as$u20$alloc..vec..spec_from_iter_nested..SpecFromIterNested$LT$T$C$I$GT$$GT$9from_iter17h9a48aeb43d855926E', symObjAddr: 0x130, symBinAddr: 0x96E0, symSize: 0x130 }
  - { offset: 0x227DE, size: 0x8, addend: 0x0, symName: '__ZN111_$LT$alloc..vec..Vec$LT$T$GT$$u20$as$u20$alloc..vec..spec_from_iter_nested..SpecFromIterNested$LT$T$C$I$GT$$GT$9from_iter17ha4c83b691532e6ddE', symObjAddr: 0x260, symBinAddr: 0x9810, symSize: 0x310 }
  - { offset: 0x22CB9, size: 0x8, addend: 0x0, symName: '__ZN72_$LT$alloc..vec..Vec$LT$T$C$A$GT$$u20$as$u20$core..ops..deref..Deref$GT$5deref17h3743adde09a4be5bE', symObjAddr: 0x15E0, symBinAddr: 0xAB90, symSize: 0x20 }
  - { offset: 0x22CF9, size: 0x8, addend: 0x0, symName: '__ZN72_$LT$alloc..vec..Vec$LT$T$C$A$GT$$u20$as$u20$core..ops..deref..Deref$GT$5deref17h3eb2d576ac9e086bE', symObjAddr: 0x1600, symBinAddr: 0xABB0, symSize: 0x20 }
  - { offset: 0x22D39, size: 0x8, addend: 0x0, symName: '__ZN72_$LT$alloc..vec..Vec$LT$T$C$A$GT$$u20$as$u20$core..ops..deref..Deref$GT$5deref17hc19221992df4cd4dE', symObjAddr: 0x1620, symBinAddr: 0xABD0, symSize: 0x20 }
  - { offset: 0x22E25, size: 0x8, addend: 0x0, symName: '__ZN81_$LT$alloc..vec..Vec$LT$T$C$A$GT$$u20$as$u20$core..ops..index..Index$LT$I$GT$$GT$5index17h8ca1ad99afb64c92E', symObjAddr: 0x1660, symBinAddr: 0xAC10, symSize: 0x70 }
  - { offset: 0x22FB2, size: 0x8, addend: 0x0, symName: '__ZN5alloc3vec10partial_eq117_$LT$impl$u20$core..cmp..PartialEq$LT$alloc..vec..Vec$LT$U$C$A2$GT$$GT$$u20$for$u20$alloc..vec..Vec$LT$T$C$A1$GT$$GT$2eq17he0945fb41978c049E', symObjAddr: 0x6E0, symBinAddr: 0x9C90, symSize: 0xC0 }
  - { offset: 0x236EB, size: 0x8, addend: 0x0, symName: '__ZN5alloc3vec16Vec$LT$T$C$A$GT$14extend_trusted28_$u7b$$u7b$closure$u7d$$u7d$17h07295d57bef73cf2E', symObjAddr: 0xCE0, symBinAddr: 0xA290, symSize: 0x30 }
  - { offset: 0x23793, size: 0x8, addend: 0x0, symName: '__ZN5alloc3vec16Vec$LT$T$C$A$GT$14extend_trusted28_$u7b$$u7b$closure$u7d$$u7d$17h6b27ff9887347d74E', symObjAddr: 0xD10, symBinAddr: 0xA2C0, symSize: 0x30 }
  - { offset: 0x23842, size: 0x8, addend: 0x0, symName: '__ZN75_$LT$alloc..vec..Vec$LT$T$C$A$GT$$u20$as$u20$core..ops..deref..DerefMut$GT$9deref_mut17h85bc1b8b51236314E', symObjAddr: 0x1640, symBinAddr: 0xABF0, symSize: 0x20 }
  - { offset: 0x23888, size: 0x8, addend: 0x0, symName: '__ZN90_$LT$alloc..vec..Vec$LT$T$C$A$GT$$u20$as$u20$core..iter..traits..collect..IntoIterator$GT$9into_iter17h397d91b07063d600E', symObjAddr: 0x16D0, symBinAddr: 0xAC80, symSize: 0xA0 }
  - { offset: 0x23A8E, size: 0x8, addend: 0x0, symName: '__ZN90_$LT$alloc..vec..Vec$LT$T$C$A$GT$$u20$as$u20$core..iter..traits..collect..IntoIterator$GT$9into_iter17h464dc861625d1327E', symObjAddr: 0x1770, symBinAddr: 0xAD20, symSize: 0xA0 }
  - { offset: 0x23C94, size: 0x8, addend: 0x0, symName: '__ZN90_$LT$alloc..vec..Vec$LT$T$C$A$GT$$u20$as$u20$core..iter..traits..collect..IntoIterator$GT$9into_iter17h8fe472dca2452d2fE', symObjAddr: 0x1810, symBinAddr: 0xADC0, symSize: 0xA0 }
  - { offset: 0x23EA0, size: 0x8, addend: 0x0, symName: '__ZN94_$LT$$RF$alloc..vec..Vec$LT$T$C$A$GT$$u20$as$u20$core..iter..traits..collect..IntoIterator$GT$9into_iter17hf12050c1c7d9fe3bE', symObjAddr: 0x18B0, symBinAddr: 0xAE60, symSize: 0x90 }
  - { offset: 0x240F5, size: 0x8, addend: 0x0, symName: '__ZN95_$LT$alloc..vec..Vec$LT$T$GT$$u20$as$u20$core..iter..traits..collect..FromIterator$LT$T$GT$$GT$9from_iter17h51397b9f254314acE', symObjAddr: 0x1940, symBinAddr: 0xAEF0, symSize: 0x50 }
  - { offset: 0x24135, size: 0x8, addend: 0x0, symName: '__ZN95_$LT$alloc..vec..Vec$LT$T$GT$$u20$as$u20$core..iter..traits..collect..FromIterator$LT$T$GT$$GT$9from_iter17h5e9a305783fc7bddE', symObjAddr: 0x1990, symBinAddr: 0xAF40, symSize: 0x30 }
  - { offset: 0x24176, size: 0x8, addend: 0x0, symName: '__ZN95_$LT$alloc..vec..Vec$LT$T$GT$$u20$as$u20$core..iter..traits..collect..FromIterator$LT$T$GT$$GT$9from_iter17haed6d24e910e7167E', symObjAddr: 0x19C0, symBinAddr: 0xAF70, symSize: 0x50 }
  - { offset: 0x241C1, size: 0x8, addend: 0x0, symName: '__ZN97_$LT$alloc..vec..Vec$LT$T$C$A$GT$$u20$as$u20$alloc..vec..spec_extend..SpecExtend$LT$T$C$I$GT$$GT$11spec_extend17h1c77f75cab170820E', symObjAddr: 0x1A10, symBinAddr: 0xAFC0, symSize: 0x20 }
  - { offset: 0x24212, size: 0x8, addend: 0x0, symName: '__ZN97_$LT$alloc..vec..Vec$LT$T$C$A$GT$$u20$as$u20$alloc..vec..spec_extend..SpecExtend$LT$T$C$I$GT$$GT$11spec_extend17h5a2b277d01eec04eE', symObjAddr: 0x1A30, symBinAddr: 0xAFE0, symSize: 0x20 }
  - { offset: 0x24269, size: 0x8, addend: 0x0, symName: '__ZN97_$LT$alloc..vec..Vec$LT$T$C$A$GT$$u20$as$u20$alloc..vec..spec_extend..SpecExtend$LT$T$C$I$GT$$GT$11spec_extend17he8e5f93d395d9b3aE', symObjAddr: 0x1A50, symBinAddr: 0xB000, symSize: 0x20 }
  - { offset: 0x242C7, size: 0x8, addend: 0x0, symName: '__ZN98_$LT$alloc..vec..Vec$LT$T$GT$$u20$as$u20$alloc..vec..spec_from_iter..SpecFromIter$LT$T$C$I$GT$$GT$9from_iter17h376f949a8b24eb84E', symObjAddr: 0x1A70, symBinAddr: 0xB020, symSize: 0x30 }
  - { offset: 0x24305, size: 0x8, addend: 0x0, symName: '__ZN98_$LT$alloc..vec..Vec$LT$T$GT$$u20$as$u20$alloc..vec..spec_from_iter..SpecFromIter$LT$T$C$I$GT$$GT$9from_iter17h9ad2e5d167031ecdE', symObjAddr: 0x1AA0, symBinAddr: 0xB050, symSize: 0x30 }
  - { offset: 0x24343, size: 0x8, addend: 0x0, symName: '__ZN98_$LT$alloc..vec..Vec$LT$T$GT$$u20$as$u20$alloc..vec..spec_from_iter..SpecFromIter$LT$T$C$I$GT$$GT$9from_iter17hea494580f4609525E', symObjAddr: 0x1AD0, symBinAddr: 0xB080, symSize: 0x1E }
  - { offset: 0x24C3D, size: 0x8, addend: 0x0, symName: '__ZN4pyo35types8sequence85_$LT$impl$u20$pyo3..conversion..FromPyObject$u20$for$u20$alloc..vec..Vec$LT$T$GT$$GT$7extract17hefef67f4a761fa15E', symObjAddr: 0x650, symBinAddr: 0x9C00, symSize: 0x90 }
  - { offset: 0x24CF5, size: 0x8, addend: 0x0, symName: '__ZN4pyo311conversions3std3vec136_$LT$impl$u20$pyo3..conversion..IntoPy$LT$pyo3..instance..Py$LT$pyo3..types..any..PyAny$GT$$GT$$u20$for$u20$alloc..vec..Vec$LT$T$GT$$GT$7into_py17h06672bd3fef25f84E', symObjAddr: 0x570, symBinAddr: 0x9B20, symSize: 0xE0 }
  - { offset: 0x24E09, size: 0x8, addend: 0x0, symName: '__ZN71_$LT$T$u20$as$u20$pyo3..impl_..extract_argument..PyFunctionArgument$GT$7extract17h4632d99c8de40514E', symObjAddr: 0x15B0, symBinAddr: 0xAB60, symSize: 0x30 }
  - { offset: 0x254CE, size: 0x8, addend: 0x0, symName: '__ZN5alloc3vec12Vec$LT$T$GT$13with_capacity17hb2707c5561663bc2E', symObjAddr: 0x7A0, symBinAddr: 0x9D50, symSize: 0x50 }
  - { offset: 0x256F8, size: 0x8, addend: 0x0, symName: '__ZN5alloc3vec12Vec$LT$T$GT$3new17h5a4073acf72696b2E', symObjAddr: 0x7F0, symBinAddr: 0x9DA0, symSize: 0x30 }
  - { offset: 0x25715, size: 0x8, addend: 0x0, symName: '__ZN5alloc3vec12Vec$LT$T$GT$3new17h812b0bcf10952f53E', symObjAddr: 0x820, symBinAddr: 0x9DD0, symSize: 0x30 }
  - { offset: 0x25732, size: 0x8, addend: 0x0, symName: '__ZN5alloc3vec12Vec$LT$T$GT$3new17haeb090676fa74921E', symObjAddr: 0x850, symBinAddr: 0x9E00, symSize: 0x30 }
  - { offset: 0x2576D, size: 0x8, addend: 0x0, symName: '__ZN5alloc3vec12Vec$LT$T$GT$3new17hc900d6d103035b52E', symObjAddr: 0x880, symBinAddr: 0x9E30, symSize: 0x30 }
  - { offset: 0x25919, size: 0x8, addend: 0x0, symName: '__ZN5alloc3vec16Vec$LT$T$C$A$GT$10try_remove17h7cdcb76d1a456a6fE', symObjAddr: 0x8B0, symBinAddr: 0x9E60, symSize: 0x180 }
  - { offset: 0x25C26, size: 0x8, addend: 0x0, symName: '__ZN5alloc3vec16Vec$LT$T$C$A$GT$12as_mut_slice17h01a0fd641df3bdfcE', symObjAddr: 0xA30, symBinAddr: 0x9FE0, symSize: 0x50 }
  - { offset: 0x25DA1, size: 0x8, addend: 0x0, symName: '__ZN5alloc3vec16Vec$LT$T$C$A$GT$14extend_trusted17h65b69e1732ccc947E', symObjAddr: 0xA80, symBinAddr: 0xA030, symSize: 0x130 }
  - { offset: 0x25F96, size: 0x8, addend: 0x0, symName: '__ZN5alloc3vec16Vec$LT$T$C$A$GT$14extend_trusted17hb67a0d7b7fc8e197E', symObjAddr: 0xBB0, symBinAddr: 0xA160, symSize: 0x130 }
  - { offset: 0x2645B, size: 0x8, addend: 0x0, symName: '__ZN5alloc3vec16Vec$LT$T$C$A$GT$16extend_desugared17hb01135ee650803c1E', symObjAddr: 0xD40, symBinAddr: 0xA2F0, symSize: 0x220 }
  - { offset: 0x267E4, size: 0x8, addend: 0x0, symName: '__ZN5alloc3vec16Vec$LT$T$C$A$GT$17from_raw_parts_in17h5a405f7631252ee7E', symObjAddr: 0xF60, symBinAddr: 0xA510, symSize: 0x90 }
  - { offset: 0x26A47, size: 0x8, addend: 0x0, symName: '__ZN5alloc3vec16Vec$LT$T$C$A$GT$17from_raw_parts_in17hc9de3072609b870fE', symObjAddr: 0xFF0, symBinAddr: 0xA5A0, symSize: 0x90 }
  - { offset: 0x26BCB, size: 0x8, addend: 0x0, symName: '__ZN5alloc3vec16Vec$LT$T$C$A$GT$3len17hfe37ec65c8cd2a89E', symObjAddr: 0x1080, symBinAddr: 0xA630, symSize: 0x10 }
  - { offset: 0x26C00, size: 0x8, addend: 0x0, symName: '__ZN5alloc3vec16Vec$LT$T$C$A$GT$4push17h1e957bfc5fe511f3E', symObjAddr: 0x1090, symBinAddr: 0xA640, symSize: 0x20 }
  - { offset: 0x26C51, size: 0x8, addend: 0x0, symName: '__ZN5alloc3vec16Vec$LT$T$C$A$GT$4push17he34963501a9ad7a4E', symObjAddr: 0x10B0, symBinAddr: 0xA660, symSize: 0x20 }
  - { offset: 0x26C95, size: 0x8, addend: 0x0, symName: '__ZN5alloc3vec16Vec$LT$T$C$A$GT$4push17hebc07a5a372142a0E', symObjAddr: 0x10D0, symBinAddr: 0xA680, symSize: 0x20 }
  - { offset: 0x26CFE, size: 0x8, addend: 0x0, symName: '__ZN5alloc3vec16Vec$LT$T$C$A$GT$6remove17h90bf057c11d93853E', symObjAddr: 0x10F0, symBinAddr: 0xA6A0, symSize: 0x70 }
  - { offset: 0x26E90, size: 0x8, addend: 0x0, symName: '__ZN5alloc3vec16Vec$LT$T$C$A$GT$7reserve17h63bcba4b9236b3e1E', symObjAddr: 0x1160, symBinAddr: 0xA710, symSize: 0x90 }
  - { offset: 0x270F5, size: 0x8, addend: 0x0, symName: '__ZN5alloc3vec16Vec$LT$T$C$A$GT$7reserve17hb562fa0910f1b51dE', symObjAddr: 0x11F0, symBinAddr: 0xA7A0, symSize: 0x90 }
  - { offset: 0x272DB, size: 0x8, addend: 0x0, symName: '__ZN5alloc3vec16Vec$LT$T$C$A$GT$8as_slice17h0b1eaca8925d1bfeE', symObjAddr: 0x1280, symBinAddr: 0xA830, symSize: 0x50 }
  - { offset: 0x27430, size: 0x8, addend: 0x0, symName: '__ZN5alloc3vec16Vec$LT$T$C$A$GT$8as_slice17h86e24ef2986850b2E', symObjAddr: 0x12D0, symBinAddr: 0xA880, symSize: 0x50 }
  - { offset: 0x275A8, size: 0x8, addend: 0x0, symName: '__ZN5alloc3vec16Vec$LT$T$C$A$GT$8as_slice17habf378de2c43a7daE', symObjAddr: 0x1320, symBinAddr: 0xA8D0, symSize: 0x50 }
  - { offset: 0x27742, size: 0x8, addend: 0x0, symName: '__ZN5alloc3vec16Vec$LT$T$C$A$GT$8push_mut17h0a124b27dbaeb8a7E', symObjAddr: 0x1370, symBinAddr: 0xA920, symSize: 0xB0 }
  - { offset: 0x279E5, size: 0x8, addend: 0x0, symName: '__ZN5alloc3vec16Vec$LT$T$C$A$GT$8push_mut17h9713080481dc4a65E', symObjAddr: 0x1420, symBinAddr: 0xA9D0, symSize: 0xD0 }
  - { offset: 0x27C62, size: 0x8, addend: 0x0, symName: '__ZN5alloc3vec16Vec$LT$T$C$A$GT$8push_mut17hc1f66371b8f72717E', symObjAddr: 0x14F0, symBinAddr: 0xAAA0, symSize: 0xC0 }
  - { offset: 0x2840B, size: 0x8, addend: 0x0, symName: '__ZN94_$LT$pyo3..types..tuple..PyTupleIterator$u20$as$u20$core..iter..traits..iterator..Iterator$GT$4next17hda790549c3b305deE', symObjAddr: 0x0, symBinAddr: 0xB0A0, symSize: 0x82 }
  - { offset: 0x2842C, size: 0x8, addend: 0x0, symName: '__ZN94_$LT$pyo3..types..tuple..PyTupleIterator$u20$as$u20$core..iter..traits..iterator..Iterator$GT$4next17hda790549c3b305deE', symObjAddr: 0x0, symBinAddr: 0xB0A0, symSize: 0x82 }
  - { offset: 0x28623, size: 0x8, addend: 0x0, symName: '__ZN4core3num23_$LT$impl$u20$isize$GT$13unchecked_neg18precondition_check17h7d7d152b3cfdb2ebE', symObjAddr: 0x0, symBinAddr: 0xB130, symSize: 0x60 }
  - { offset: 0x28662, size: 0x8, addend: 0x0, symName: '__ZN4core3num23_$LT$impl$u20$isize$GT$13unchecked_neg18precondition_check17h7d7d152b3cfdb2ebE', symObjAddr: 0x0, symBinAddr: 0xB130, symSize: 0x60 }
  - { offset: 0x28719, size: 0x8, addend: 0x0, symName: '__ZN4core3num23_$LT$impl$u20$usize$GT$13unchecked_add18precondition_check17h10bb3050252c1fd0E', symObjAddr: 0x60, symBinAddr: 0xB190, symSize: 0x52 }
  - { offset: 0x28857, size: 0x8, addend: 0x0, symName: __ZN10tachyon_rs6engine11TrackedDict11__delitem__17heb0d36f51e806bdbE, symObjAddr: 0x0, symBinAddr: 0xB1F0, symSize: 0x300 }
  - { offset: 0x29B99, size: 0x8, addend: 0x0, symName: __ZN10tachyon_rs6engine1_1_11__INVENTORY17h347300f224bffdd4E, symObjAddr: 0x10970, symBinAddr: 0xD4D80, symSize: 0x0 }
  - { offset: 0x29BB4, size: 0x8, addend: 0x0, symName: __ZN10tachyon_rs6engine1_1_11__INVENTORY17hc01c7c5e7b139359E, symObjAddr: 0x10988, symBinAddr: 0xD4D98, symSize: 0x0 }
  - { offset: 0x29BCE, size: 0x8, addend: 0x0, symName: __ZN10tachyon_rs6engine1_1_11__INVENTORY17heb9c8810b1e9d8b0E, symObjAddr: 0x109A0, symBinAddr: 0xD4DB0, symSize: 0x0 }
  - { offset: 0x29BE0, size: 0x8, addend: 0x0, symName: __ZN10tachyon_rs6engine1_1_11__INVENTORY10trampoline17h00b52abfc5c30695E, symObjAddr: 0x5F50, symBinAddr: 0x11140, symSize: 0x30 }
  - { offset: 0x29C0E, size: 0x8, addend: 0x0, symName: __ZN10tachyon_rs6engine1_1_11__INVENTORY10trampoline17h01fc9674f84c598bE, symObjAddr: 0x5F80, symBinAddr: 0x11170, symSize: 0x40 }
  - { offset: 0x29C5A, size: 0x8, addend: 0x0, symName: __ZN10tachyon_rs6engine1_1_11__INVENTORY10trampoline17h04db2d1bb6d07346E, symObjAddr: 0x5FC0, symBinAddr: 0x111B0, symSize: 0x40 }
  - { offset: 0x29CA2, size: 0x8, addend: 0x0, symName: __ZN10tachyon_rs6engine1_1_11__INVENTORY10trampoline17h088639c3ac38a1e4E, symObjAddr: 0x6000, symBinAddr: 0x111F0, symSize: 0x40 }
  - { offset: 0x29CEE, size: 0x8, addend: 0x0, symName: __ZN10tachyon_rs6engine1_1_11__INVENTORY10trampoline17h0bb330e383d6f801E, symObjAddr: 0x6040, symBinAddr: 0x11230, symSize: 0x40 }
  - { offset: 0x29D36, size: 0x8, addend: 0x0, symName: __ZN10tachyon_rs6engine1_1_11__INVENTORY10trampoline17h1675b75d74deb507E, symObjAddr: 0x6080, symBinAddr: 0x11270, symSize: 0x30 }
  - { offset: 0x29D64, size: 0x8, addend: 0x0, symName: __ZN10tachyon_rs6engine1_1_11__INVENTORY10trampoline17h24216674569c22f0E, symObjAddr: 0x60B0, symBinAddr: 0x112A0, symSize: 0x40 }
  - { offset: 0x29DA1, size: 0x8, addend: 0x0, symName: __ZN10tachyon_rs6engine1_1_11__INVENTORY10trampoline17h35026a006eef8994E, symObjAddr: 0x60F0, symBinAddr: 0x112E0, symSize: 0x40 }
  - { offset: 0x29DE9, size: 0x8, addend: 0x0, symName: __ZN10tachyon_rs6engine1_1_11__INVENTORY10trampoline17h512555b589f42847E, symObjAddr: 0x6130, symBinAddr: 0x11320, symSize: 0x30 }
  - { offset: 0x29E26, size: 0x8, addend: 0x0, symName: __ZN10tachyon_rs6engine1_1_11__INVENTORY10trampoline17h60b4530b309f52dfE, symObjAddr: 0x6160, symBinAddr: 0x11350, symSize: 0x40 }
  - { offset: 0x29E6E, size: 0x8, addend: 0x0, symName: __ZN10tachyon_rs6engine1_1_11__INVENTORY10trampoline17h76cabf16e064faf3E, symObjAddr: 0x61A0, symBinAddr: 0x11390, symSize: 0x40 }
  - { offset: 0x29EAB, size: 0x8, addend: 0x0, symName: __ZN10tachyon_rs6engine1_1_11__INVENTORY10trampoline17h84616c7704c6c000E, symObjAddr: 0x61E0, symBinAddr: 0x113D0, symSize: 0x40 }
  - { offset: 0x29EF7, size: 0x8, addend: 0x0, symName: __ZN10tachyon_rs6engine1_1_11__INVENTORY10trampoline17h84a1c31f964e9f76E, symObjAddr: 0x6220, symBinAddr: 0x11410, symSize: 0x40 }
  - { offset: 0x29F3F, size: 0x8, addend: 0x0, symName: __ZN10tachyon_rs6engine1_1_11__INVENTORY10trampoline17h8d079041c2506b31E, symObjAddr: 0x6260, symBinAddr: 0x11450, symSize: 0x40 }
  - { offset: 0x29F87, size: 0x8, addend: 0x0, symName: __ZN10tachyon_rs6engine1_1_11__INVENTORY10trampoline17h92e307a0792a17eaE, symObjAddr: 0x62A0, symBinAddr: 0x11490, symSize: 0x40 }
  - { offset: 0x29FCF, size: 0x8, addend: 0x0, symName: __ZN10tachyon_rs6engine1_1_11__INVENTORY10trampoline17ha548100dade1459aE, symObjAddr: 0x62E0, symBinAddr: 0x114D0, symSize: 0x40 }
  - { offset: 0x2A017, size: 0x8, addend: 0x0, symName: __ZN10tachyon_rs6engine1_1_11__INVENTORY10trampoline17hbaa0e9159503c980E, symObjAddr: 0x6320, symBinAddr: 0x11510, symSize: 0x40 }
  - { offset: 0x2A05F, size: 0x8, addend: 0x0, symName: __ZN10tachyon_rs6engine1_1_11__INVENTORY10trampoline17hc2fea37cb50863c3E, symObjAddr: 0x6360, symBinAddr: 0x11550, symSize: 0x40 }
  - { offset: 0x2A0AB, size: 0x8, addend: 0x0, symName: __ZN10tachyon_rs6engine1_1_11__INVENTORY10trampoline17hc4b936edbd880b32E, symObjAddr: 0x63A0, symBinAddr: 0x11590, symSize: 0x30 }
  - { offset: 0x2A0D9, size: 0x8, addend: 0x0, symName: __ZN10tachyon_rs6engine1_1_11__INVENTORY10trampoline17hc65e7d44204140d8E, symObjAddr: 0x63D0, symBinAddr: 0x115C0, symSize: 0x40 }
  - { offset: 0x2A125, size: 0x8, addend: 0x0, symName: __ZN10tachyon_rs6engine1_1_11__INVENTORY10trampoline17hf52a6fdea4f6063eE, symObjAddr: 0x6410, symBinAddr: 0x11600, symSize: 0x40 }
  - { offset: 0x2A162, size: 0x8, addend: 0x0, symName: __ZN10tachyon_rs6engine1_1_11__INVENTORY10trampoline17hf97b5fc916bd8d7fE, symObjAddr: 0x6450, symBinAddr: 0x11640, symSize: 0x40 }
  - { offset: 0x2A1AA, size: 0x8, addend: 0x0, symName: __ZN10tachyon_rs6engine1_1_11__INVENTORY6__wrap17hc898060045f6de7bE, symObjAddr: 0x6490, symBinAddr: 0x11680, symSize: 0x40 }
  - { offset: 0x2A1F7, size: 0x8, addend: 0x0, symName: __ZN10tachyon_rs6engine1_1_6__ctor17h51029ea677a5b09cE, symObjAddr: 0x64D0, symBinAddr: 0x116C0, symSize: 0x30 }
  - { offset: 0x2A211, size: 0x8, addend: 0x0, symName: __ZN10tachyon_rs6engine1_1_6__ctor17hce38195608dbce53E, symObjAddr: 0x6500, symBinAddr: 0x116F0, symSize: 0x30 }
  - { offset: 0x2A22B, size: 0x8, addend: 0x0, symName: __ZN10tachyon_rs6engine1_1_6__ctor17hf2ab48f4e6a9641cE, symObjAddr: 0x6530, symBinAddr: 0x11720, symSize: 0x30 }
  - { offset: 0x2A25E, size: 0x8, addend: 0x0, symName: '__ZN10tachyon_rs6engine1_95_$LT$impl$u20$pyo3..impl_..pyclass..PyClassImpl$u20$for$u20$tachyon_rs..engine..TrackedDict$GT$10items_iter15INTRINSIC_ITEMS17h49fdefb4a844d2e6E', symObjAddr: 0x108F8, symBinAddr: 0xB3980, symSize: 0x0 }
  - { offset: 0x2A279, size: 0x8, addend: 0x0, symName: '__ZN10tachyon_rs6engine1_95_$LT$impl$u20$pyo3..impl_..pyclass..PyClassImpl$u20$for$u20$tachyon_rs..engine..TrackedList$GT$10items_iter15INTRINSIC_ITEMS17h891120e06da02d47E', symObjAddr: 0x10918, symBinAddr: 0xB39A0, symSize: 0x0 }
  - { offset: 0x2A293, size: 0x8, addend: 0x0, symName: '__ZN10tachyon_rs6engine1_97_$LT$impl$u20$pyo3..impl_..pyclass..PyClassImpl$u20$for$u20$tachyon_rs..engine..TachyonEngine$GT$10items_iter15INTRINSIC_ITEMS17hf029ab05b748c04dE', symObjAddr: 0x10938, symBinAddr: 0xB39C0, symSize: 0x0 }
  - { offset: 0x2A2B4, size: 0x8, addend: 0x0, symName: '__ZN10tachyon_rs6engine1_95_$LT$impl$u20$pyo3..impl_..pyclass..PyClassImpl$u20$for$u20$tachyon_rs..engine..TrackedDict$GT$16lazy_type_object11TYPE_OBJECT17h988454b38ccad45dE', symObjAddr: 0x109B8, symBinAddr: 0xD4DC8, symSize: 0x0 }
  - { offset: 0x2A2CF, size: 0x8, addend: 0x0, symName: '__ZN10tachyon_rs6engine1_95_$LT$impl$u20$pyo3..impl_..pyclass..PyClassImpl$u20$for$u20$tachyon_rs..engine..TrackedList$GT$16lazy_type_object11TYPE_OBJECT17h51003dc05b1d8948E', symObjAddr: 0x10A18, symBinAddr: 0xD4E28, symSize: 0x0 }
  - { offset: 0x2A2E9, size: 0x8, addend: 0x0, symName: '__ZN10tachyon_rs6engine1_97_$LT$impl$u20$pyo3..impl_..pyclass..PyClassImpl$u20$for$u20$tachyon_rs..engine..TachyonEngine$GT$16lazy_type_object11TYPE_OBJECT17hcfcad5844c74cc51E', symObjAddr: 0x10A78, symBinAddr: 0xD4E88, symSize: 0x0 }
  - { offset: 0x2A30A, size: 0x8, addend: 0x0, symName: '__ZN10tachyon_rs6engine1_95_$LT$impl$u20$pyo3..impl_..pyclass..PyClassImpl$u20$for$u20$tachyon_rs..engine..TrackedDict$GT$3doc3DOC17h42d0cc40c1b49932E', symObjAddr: 0x10A00, symBinAddr: 0xD4E10, symSize: 0x0 }
  - { offset: 0x2A325, size: 0x8, addend: 0x0, symName: '__ZN10tachyon_rs6engine1_95_$LT$impl$u20$pyo3..impl_..pyclass..PyClassImpl$u20$for$u20$tachyon_rs..engine..TrackedList$GT$3doc3DOC17hc2c5a3e5aa63f360E', symObjAddr: 0x10A60, symBinAddr: 0xD4E70, symSize: 0x0 }
  - { offset: 0x2A33F, size: 0x8, addend: 0x0, symName: '__ZN10tachyon_rs6engine1_97_$LT$impl$u20$pyo3..impl_..pyclass..PyClassImpl$u20$for$u20$tachyon_rs..engine..TachyonEngine$GT$3doc3DOC17h8ad5cd9b78a74e6dE', symObjAddr: 0x10AC0, symBinAddr: 0xD4ED0, symSize: 0x0 }
  - { offset: 0x2A34D, size: 0x8, addend: 0x0, symName: '__ZN10tachyon_rs6engine1_95_$LT$impl$u20$pyo3..impl_..pyclass..PyClassImpl$u20$for$u20$tachyon_rs..engine..TrackedDict$GT$10items_iter17hc6b35b46a32cbf6cE', symObjAddr: 0xDDC0, symBinAddr: 0x18FB0, symSize: 0x90 }
  - { offset: 0x2A3A8, size: 0x8, addend: 0x0, symName: '__ZN10tachyon_rs6engine1_95_$LT$impl$u20$pyo3..impl_..pyclass..PyClassImpl$u20$for$u20$tachyon_rs..engine..TrackedDict$GT$16lazy_type_object17h084ad962b6d81448E', symObjAddr: 0xDE50, symBinAddr: 0x19040, symSize: 0x10 }
  - { offset: 0x2A3C6, size: 0x8, addend: 0x0, symName: '__ZN10tachyon_rs6engine1_95_$LT$impl$u20$pyo3..impl_..pyclass..PyClassImpl$u20$for$u20$tachyon_rs..engine..TrackedDict$GT$3doc17hdff1d3b5298da1ffE', symObjAddr: 0xDE60, symBinAddr: 0x19050, symSize: 0x40 }
  - { offset: 0x2A400, size: 0x8, addend: 0x0, symName: '__ZN10tachyon_rs6engine1_95_$LT$impl$u20$pyo3..impl_..pyclass..PyClassImpl$u20$for$u20$tachyon_rs..engine..TrackedList$GT$10items_iter17h02c196514368599aE', symObjAddr: 0xDEA0, symBinAddr: 0x19090, symSize: 0x90 }
  - { offset: 0x2A45B, size: 0x8, addend: 0x0, symName: '__ZN10tachyon_rs6engine1_95_$LT$impl$u20$pyo3..impl_..pyclass..PyClassImpl$u20$for$u20$tachyon_rs..engine..TrackedList$GT$16lazy_type_object17h59f0885e15975398E', symObjAddr: 0xDF30, symBinAddr: 0x19120, symSize: 0x10 }
  - { offset: 0x2A479, size: 0x8, addend: 0x0, symName: '__ZN10tachyon_rs6engine1_95_$LT$impl$u20$pyo3..impl_..pyclass..PyClassImpl$u20$for$u20$tachyon_rs..engine..TrackedList$GT$3doc17h6aed44102612f05eE', symObjAddr: 0xDF40, symBinAddr: 0x19130, symSize: 0x40 }
  - { offset: 0x2A4B3, size: 0x8, addend: 0x0, symName: '__ZN10tachyon_rs6engine1_97_$LT$impl$u20$pyo3..impl_..pyclass..PyClassImpl$u20$for$u20$tachyon_rs..engine..TachyonEngine$GT$10items_iter17hfe77b607b2b7f204E', symObjAddr: 0xDF80, symBinAddr: 0x19170, symSize: 0x90 }
  - { offset: 0x2A50B, size: 0x8, addend: 0x0, symName: '__ZN10tachyon_rs6engine1_97_$LT$impl$u20$pyo3..impl_..pyclass..PyClassImpl$u20$for$u20$tachyon_rs..engine..TachyonEngine$GT$16lazy_type_object17h0c6badff9935d37aE', symObjAddr: 0xE010, symBinAddr: 0x19200, symSize: 0x10 }
  - { offset: 0x2A528, size: 0x8, addend: 0x0, symName: '__ZN10tachyon_rs6engine1_97_$LT$impl$u20$pyo3..impl_..pyclass..PyClassImpl$u20$for$u20$tachyon_rs..engine..TachyonEngine$GT$3doc17ha24267ef0b23dddcE', symObjAddr: 0xE020, symBinAddr: 0x19210, symSize: 0x40 }
  - { offset: 0x2A5B7, size: 0x8, addend: 0x0, symName: '__ZN96_$LT$tachyon_rs..engine.._..Pyo3MethodsInventoryForTrackedDict$u20$as$u20$inventory..Collect$GT$8registry8REGISTRY17hdc76ed2bedad36c7E', symObjAddr: 0x2E060, symBinAddr: 0xD5C38, symSize: 0x0 }
  - { offset: 0x2A5D2, size: 0x8, addend: 0x0, symName: '__ZN96_$LT$tachyon_rs..engine.._..Pyo3MethodsInventoryForTrackedList$u20$as$u20$inventory..Collect$GT$8registry8REGISTRY17h8c06186db123975fE', symObjAddr: 0x2E068, symBinAddr: 0xD5C40, symSize: 0x0 }
  - { offset: 0x2A5EC, size: 0x8, addend: 0x0, symName: '__ZN98_$LT$tachyon_rs..engine.._..Pyo3MethodsInventoryForTachyonEngine$u20$as$u20$inventory..Collect$GT$8registry8REGISTRY17hb60971d2f22f6f1cE', symObjAddr: 0x2E070, symBinAddr: 0xD5C48, symSize: 0x0 }
  - { offset: 0x2A5FA, size: 0x8, addend: 0x0, symName: '__ZN96_$LT$tachyon_rs..engine.._..Pyo3MethodsInventoryForTrackedDict$u20$as$u20$inventory..Collect$GT$8registry17h97810ce6b29f8ce4E', symObjAddr: 0xE090, symBinAddr: 0x19280, symSize: 0x10 }
  - { offset: 0x2A618, size: 0x8, addend: 0x0, symName: '__ZN96_$LT$tachyon_rs..engine.._..Pyo3MethodsInventoryForTrackedList$u20$as$u20$inventory..Collect$GT$8registry17h4fcdeef28743f3bdE', symObjAddr: 0xE0A0, symBinAddr: 0x19290, symSize: 0x10 }
  - { offset: 0x2A636, size: 0x8, addend: 0x0, symName: '__ZN98_$LT$tachyon_rs..engine.._..Pyo3MethodsInventoryForTachyonEngine$u20$as$u20$inventory..Collect$GT$8registry17h9008646966b21047E', symObjAddr: 0xE0B0, symBinAddr: 0x192A0, symSize: 0xD }
  - { offset: 0x2A65A, size: 0x8, addend: 0x0, symName: '__ZN10tachyon_rs6engine1_91_$LT$impl$u20$pyo3..type_object..PyTypeInfo$u20$for$u20$tachyon_rs..engine..TrackedDict$GT$15type_object_raw17hc5340c820d81d15aE', symObjAddr: 0xDD30, symBinAddr: 0x18F20, symSize: 0x30 }
  - { offset: 0x2A694, size: 0x8, addend: 0x0, symName: '__ZN10tachyon_rs6engine1_91_$LT$impl$u20$pyo3..type_object..PyTypeInfo$u20$for$u20$tachyon_rs..engine..TrackedList$GT$15type_object_raw17h6b1a4da940524e26E', symObjAddr: 0xDD60, symBinAddr: 0x18F50, symSize: 0x30 }
  - { offset: 0x2A6CE, size: 0x8, addend: 0x0, symName: '__ZN10tachyon_rs6engine1_93_$LT$impl$u20$pyo3..type_object..PyTypeInfo$u20$for$u20$tachyon_rs..engine..TachyonEngine$GT$15type_object_raw17h9c47a853bc8ff200E', symObjAddr: 0xDD90, symBinAddr: 0x18F80, symSize: 0x30 }
  - { offset: 0x2A70B, size: 0x8, addend: 0x0, symName: '__ZN116_$LT$tachyon_rs..engine.._..Pyo3MethodsInventoryForTrackedDict$u20$as$u20$pyo3..impl_..pyclass..PyClassInventory$GT$5items17h42248848f42d7887E', symObjAddr: 0xE060, symBinAddr: 0x19250, symSize: 0x10 }
  - { offset: 0x2A739, size: 0x8, addend: 0x0, symName: '__ZN116_$LT$tachyon_rs..engine.._..Pyo3MethodsInventoryForTrackedList$u20$as$u20$pyo3..impl_..pyclass..PyClassInventory$GT$5items17h4e1c147231b88227E', symObjAddr: 0xE070, symBinAddr: 0x19260, symSize: 0x10 }
  - { offset: 0x2A767, size: 0x8, addend: 0x0, symName: '__ZN118_$LT$tachyon_rs..engine.._..Pyo3MethodsInventoryForTachyonEngine$u20$as$u20$pyo3..impl_..pyclass..PyClassInventory$GT$5items17h7630b5dcbe3e0986E', symObjAddr: 0xE080, symBinAddr: 0x19270, symSize: 0x10 }
  - { offset: 0x2C87B, size: 0x8, addend: 0x0, symName: __ZN10tachyon_rs6engine11TrackedDict11__delitem__17heb0d36f51e806bdbE, symObjAddr: 0x0, symBinAddr: 0xB1F0, symSize: 0x300 }
  - { offset: 0x2C905, size: 0x8, addend: 0x0, symName: __ZN10tachyon_rs6engine11TrackedDict11__getitem__17h969d1eb6162c16ceE, symObjAddr: 0x300, symBinAddr: 0xB4F0, symSize: 0xC0 }
  - { offset: 0x2C939, size: 0x8, addend: 0x0, symName: __ZN10tachyon_rs6engine11TrackedDict11__setitem__17h2704184bc572379dE, symObjAddr: 0x3C0, symBinAddr: 0xB5B0, symSize: 0x390 }
  - { offset: 0x2C9CE, size: 0x8, addend: 0x0, symName: __ZN10tachyon_rs6engine11TrackedDict12__contains__17h19ab9b233183be14E, symObjAddr: 0x750, symBinAddr: 0xB940, symSize: 0x60 }
  - { offset: 0x2CA01, size: 0x8, addend: 0x0, symName: __ZN10tachyon_rs6engine11TrackedDict3get17h72e27273c11976ffE, symObjAddr: 0x7B0, symBinAddr: 0xB9A0, symSize: 0xB0 }
  - { offset: 0x2CA5E, size: 0x8, addend: 0x0, symName: __ZN10tachyon_rs6engine11TrackedDict3new17h1a6e2536ee259151E, symObjAddr: 0x860, symBinAddr: 0xBA50, symSize: 0x60 }
  - { offset: 0x2CAA1, size: 0x8, addend: 0x0, symName: __ZN10tachyon_rs6engine11TrackedDict4keys17h71ea900107bafd4bE, symObjAddr: 0x8C0, symBinAddr: 0xBAB0, symSize: 0xE0 }
  - { offset: 0x2CAFF, size: 0x8, addend: 0x0, symName: __ZN10tachyon_rs6engine11TrackedDict7__len__17h77fd992021c67b38E, symObjAddr: 0x9A0, symBinAddr: 0xBB90, symSize: 0x20 }
  - { offset: 0x2CB2F, size: 0x8, addend: 0x0, symName: __ZN10tachyon_rs6engine11TrackedDict8__iter__17h58e7e5ed1cbeb0d1E, symObjAddr: 0x9C0, symBinAddr: 0xBBB0, symSize: 0x240 }
  - { offset: 0x2CBDB, size: 0x8, addend: 0x0, symName: __ZN10tachyon_rs6engine11TrackedList11__getitem__17h2ead497effb7d7a1E, symObjAddr: 0xC00, symBinAddr: 0xBDF0, symSize: 0x60 }
  - { offset: 0x2CC0D, size: 0x8, addend: 0x0, symName: __ZN10tachyon_rs6engine11TrackedList3new17hfd9a8a1b4a0791a8E, symObjAddr: 0xC60, symBinAddr: 0xBE50, symSize: 0x40 }
  - { offset: 0x2CC5D, size: 0x8, addend: 0x0, symName: __ZN10tachyon_rs6engine11TrackedList3pop17h62f5bb8767ce66f0E, symObjAddr: 0xCA0, symBinAddr: 0xBE90, symSize: 0x2F0 }
  - { offset: 0x2CD06, size: 0x8, addend: 0x0, symName: __ZN10tachyon_rs6engine11TrackedList6append17hcbf89a6a35c2770cE, symObjAddr: 0xF90, symBinAddr: 0xC180, symSize: 0x180 }
  - { offset: 0x2CD81, size: 0x8, addend: 0x0, symName: __ZN10tachyon_rs6engine11TrackedList7__len__17h3e0e19637732ad15E, symObjAddr: 0x1110, symBinAddr: 0xC300, symSize: 0x20 }
  - { offset: 0x2CDB1, size: 0x8, addend: 0x0, symName: __ZN10tachyon_rs6engine13TachyonEngine11append_node17h11b125e21afffaebE, symObjAddr: 0x1130, symBinAddr: 0xC320, symSize: 0x360 }
  - { offset: 0x2CE0F, size: 0x8, addend: 0x0, symName: __ZN10tachyon_rs6engine13TachyonEngine12log_list_pop17h26ab6f98c74c3cdaE, symObjAddr: 0x1490, symBinAddr: 0xC680, symSize: 0x190 }
  - { offset: 0x2CE72, size: 0x8, addend: 0x0, symName: __ZN10tachyon_rs6engine13TachyonEngine13create_branch17h4b07e45734e2e336E, symObjAddr: 0x1620, symBinAddr: 0xC810, symSize: 0x50 }
  - { offset: 0x2CEA3, size: 0x8, addend: 0x0, symName: __ZN10tachyon_rs6engine13TachyonEngine13log_plugin_op17h6c07b9e1aa30a7cbE, symObjAddr: 0x1670, symBinAddr: 0xC860, symSize: 0x190 }
  - { offset: 0x2CF07, size: 0x8, addend: 0x0, symName: __ZN10tachyon_rs6engine13TachyonEngine13switch_branch17ha21ad7c42470d487E, symObjAddr: 0x1800, symBinAddr: 0xC9F0, symSize: 0x970 }
  - { offset: 0x2D0E4, size: 0x8, addend: 0x0, symName: __ZN10tachyon_rs6engine13TachyonEngine15log_dict_delete17haf6f8b415eca74ebE, symObjAddr: 0x2170, symBinAddr: 0xD360, symSize: 0x190 }
  - { offset: 0x2D147, size: 0x8, addend: 0x0, symName: __ZN10tachyon_rs6engine13TachyonEngine15log_dict_update17h22c2f62d61344cb9E, symObjAddr: 0x2300, symBinAddr: 0xD4F0, symSize: 0x1A0 }
  - { offset: 0x2D1B8, size: 0x8, addend: 0x0, symName: __ZN10tachyon_rs6engine13TachyonEngine15log_list_insert17hf42e781f05f592c3E, symObjAddr: 0x24A0, symBinAddr: 0xD690, symSize: 0x190 }
  - { offset: 0x2D21B, size: 0x8, addend: 0x0, symName: __ZN10tachyon_rs6engine13TachyonEngine15log_update_attr17ha5225a1fcee867c8E, symObjAddr: 0x2630, symBinAddr: 0xD820, symSize: 0x190 }
  - { offset: 0x2D28B, size: 0x8, addend: 0x0, symName: __ZN10tachyon_rs6engine13TachyonEngine16extract_timeline17hb0f92d15fd51aed3E, symObjAddr: 0x27C0, symBinAddr: 0xD9B0, symSize: 0x1D40 }
  - { offset: 0x2D7B0, size: 0x8, addend: 0x0, symName: __ZN10tachyon_rs6engine13TachyonEngine17apply_node_deltas17hdb873efb654c285dE, symObjAddr: 0x4500, symBinAddr: 0xF6F0, symSize: 0x1100 }
  - { offset: 0x2DB55, size: 0x8, addend: 0x0, symName: __ZN10tachyon_rs6engine13TachyonEngine17get_shortest_path17h92029a92a0dbe65fE, symObjAddr: 0x5600, symBinAddr: 0x107F0, symSize: 0x510 }
  - { offset: 0x2DC54, size: 0x8, addend: 0x0, symName: __ZN10tachyon_rs6engine13TachyonEngine21get_root_to_node_path17heb4b9611de075271E, symObjAddr: 0x5B10, symBinAddr: 0x10D00, symSize: 0x130 }
  - { offset: 0x2DCC4, size: 0x8, addend: 0x0, symName: __ZN10tachyon_rs6engine13TachyonEngine3new17h7afdfe74dd212e31E, symObjAddr: 0x5C40, symBinAddr: 0x10E30, symSize: 0x310 }
  - { offset: 0x2DD22, size: 0x8, addend: 0x0, symName: '__ZN10tachyon_rs6engine1_203_$LT$impl$u20$pyo3..impl_..pyclass..PyClass__delitem__SlotFragment$LT$tachyon_rs..engine..TrackedDict$GT$$u20$for$u20$pyo3..impl_..pyclass..PyClassImplCollector$LT$tachyon_rs..engine..TrackedDict$GT$$GT$11__delitem__49_$LT$impl$u20$tachyon_rs..engine..TrackedDict$GT$24__pymethod___delitem____17h56d4063267ebfa89E', symObjAddr: 0x6560, symBinAddr: 0x11750, symSize: 0x2E0 }
  - { offset: 0x2DDD4, size: 0x8, addend: 0x0, symName: '__ZN10tachyon_rs6engine1_203_$LT$impl$u20$pyo3..impl_..pyclass..PyClass__setitem__SlotFragment$LT$tachyon_rs..engine..TrackedDict$GT$$u20$for$u20$pyo3..impl_..pyclass..PyClassImplCollector$LT$tachyon_rs..engine..TrackedDict$GT$$GT$11__setitem__49_$LT$impl$u20$tachyon_rs..engine..TrackedDict$GT$24__pymethod___setitem____17h385a845fd2787eccE', symObjAddr: 0x6840, symBinAddr: 0x11A30, symSize: 0x480 }
  - { offset: 0x2DEDE, size: 0x8, addend: 0x0, symName: '__ZN10tachyon_rs6engine1_49_$LT$impl$u20$tachyon_rs..engine..TrackedDict$GT$16__pymethod_get__17h56b13c05eeca0e74E', symObjAddr: 0x6CC0, symBinAddr: 0x11EB0, symSize: 0x5D0 }
  - { offset: 0x2E028, size: 0x8, addend: 0x0, symName: '__ZN10tachyon_rs6engine1_49_$LT$impl$u20$tachyon_rs..engine..TrackedDict$GT$17__pymethod_keys__17h14748c7be93f55c4E', symObjAddr: 0x7290, symBinAddr: 0x12480, symSize: 0x180 }
  - { offset: 0x2E09D, size: 0x8, addend: 0x0, symName: '__ZN10tachyon_rs6engine1_49_$LT$impl$u20$tachyon_rs..engine..TrackedDict$GT$20__pymethod___len____17h2f3e4b0649732381E', symObjAddr: 0x7410, symBinAddr: 0x12600, symSize: 0x160 }
  - { offset: 0x2E129, size: 0x8, addend: 0x0, symName: '__ZN10tachyon_rs6engine1_49_$LT$impl$u20$tachyon_rs..engine..TrackedDict$GT$20__pymethod___new____17hafdd2ef672c0c9b7E', symObjAddr: 0x7570, symBinAddr: 0x12760, symSize: 0x960 }
  - { offset: 0x2E334, size: 0x8, addend: 0x0, symName: '__ZN10tachyon_rs6engine1_49_$LT$impl$u20$tachyon_rs..engine..TrackedDict$GT$21__pymethod___iter____17h5c5d54c6720aa80aE', symObjAddr: 0x7ED0, symBinAddr: 0x130C0, symSize: 0x130 }
  - { offset: 0x2E3CD, size: 0x8, addend: 0x0, symName: '__ZN10tachyon_rs6engine1_49_$LT$impl$u20$tachyon_rs..engine..TrackedDict$GT$24__pymethod___getitem____17h53b3d69b330fe0d3E', symObjAddr: 0x8000, symBinAddr: 0x131F0, symSize: 0x2E0 }
  - { offset: 0x2E47A, size: 0x8, addend: 0x0, symName: '__ZN10tachyon_rs6engine1_49_$LT$impl$u20$tachyon_rs..engine..TrackedDict$GT$25__pymethod___contains____17hf10c6bd396754759E', symObjAddr: 0x82E0, symBinAddr: 0x134D0, symSize: 0x2E0 }
  - { offset: 0x2E527, size: 0x8, addend: 0x0, symName: '__ZN10tachyon_rs6engine1_49_$LT$impl$u20$tachyon_rs..engine..TrackedList$GT$16__pymethod_pop__17h65112edacb313940E', symObjAddr: 0x85C0, symBinAddr: 0x137B0, symSize: 0x390 }
  - { offset: 0x2E62B, size: 0x8, addend: 0x0, symName: '__ZN10tachyon_rs6engine1_49_$LT$impl$u20$tachyon_rs..engine..TrackedList$GT$19__pymethod_append__17h700d39a25ab891aeE', symObjAddr: 0x8950, symBinAddr: 0x13B40, symSize: 0x390 }
  - { offset: 0x2E72F, size: 0x8, addend: 0x0, symName: '__ZN10tachyon_rs6engine1_49_$LT$impl$u20$tachyon_rs..engine..TrackedList$GT$20__pymethod___len____17h1d08d5f12e7f705cE', symObjAddr: 0x8CE0, symBinAddr: 0x13ED0, symSize: 0x160 }
  - { offset: 0x2E7BB, size: 0x8, addend: 0x0, symName: '__ZN10tachyon_rs6engine1_49_$LT$impl$u20$tachyon_rs..engine..TrackedList$GT$20__pymethod___new____17hcfc32ab947837b8dE', symObjAddr: 0x8E40, symBinAddr: 0x14030, symSize: 0xA70 }
  - { offset: 0x2E9C6, size: 0x8, addend: 0x0, symName: '__ZN10tachyon_rs6engine1_49_$LT$impl$u20$tachyon_rs..engine..TrackedList$GT$24__pymethod___getitem____17hc4c922b49efc3541E', symObjAddr: 0x98B0, symBinAddr: 0x14AA0, symSize: 0x290 }
  - { offset: 0x2EA73, size: 0x8, addend: 0x0, symName: '__ZN10tachyon_rs6engine1_51_$LT$impl$u20$tachyon_rs..engine..TachyonEngine$GT$20__pymethod___new____17hb698c5ddc6a0d065E', symObjAddr: 0x9B40, symBinAddr: 0x14D30, symSize: 0x760 }
  - { offset: 0x2EC2D, size: 0x8, addend: 0x0, symName: '__ZN10tachyon_rs6engine1_51_$LT$impl$u20$tachyon_rs..engine..TachyonEngine$GT$25__pymethod_log_list_pop__17h07a08827e4e2d41bE', symObjAddr: 0xA2A0, symBinAddr: 0x15490, symSize: 0x710 }
  - { offset: 0x2ED87, size: 0x8, addend: 0x0, symName: '__ZN10tachyon_rs6engine1_51_$LT$impl$u20$tachyon_rs..engine..TachyonEngine$GT$26__pymethod_create_branch__17hb35426559d2e1cf4E', symObjAddr: 0xA9B0, symBinAddr: 0x15BA0, symSize: 0x3D0 }
  - { offset: 0x2EE7F, size: 0x8, addend: 0x0, symName: '__ZN10tachyon_rs6engine1_51_$LT$impl$u20$tachyon_rs..engine..TachyonEngine$GT$26__pymethod_log_plugin_op__17h830b2cd95ad473b7E', symObjAddr: 0xAD80, symBinAddr: 0x15F70, symSize: 0x7E0 }
  - { offset: 0x2EFF7, size: 0x8, addend: 0x0, symName: '__ZN10tachyon_rs6engine1_51_$LT$impl$u20$tachyon_rs..engine..TachyonEngine$GT$26__pymethod_switch_branch__17hcc4a359c8040b056E', symObjAddr: 0xB560, symBinAddr: 0x16750, symSize: 0x3E0 }
  - { offset: 0x2F0EF, size: 0x8, addend: 0x0, symName: '__ZN10tachyon_rs6engine1_51_$LT$impl$u20$tachyon_rs..engine..TachyonEngine$GT$28__pymethod_log_dict_delete__17hc6c2d912bf7cf518E', symObjAddr: 0xB940, symBinAddr: 0x16B30, symSize: 0x7A0 }
  - { offset: 0x2F267, size: 0x8, addend: 0x0, symName: '__ZN10tachyon_rs6engine1_51_$LT$impl$u20$tachyon_rs..engine..TachyonEngine$GT$28__pymethod_log_dict_update__17hc662dd5b3c09dd95E', symObjAddr: 0xC0E0, symBinAddr: 0x172D0, symSize: 0x9C0 }
  - { offset: 0x2F41B, size: 0x8, addend: 0x0, symName: '__ZN10tachyon_rs6engine1_51_$LT$impl$u20$tachyon_rs..engine..TachyonEngine$GT$28__pymethod_log_list_insert__17h9aa11ca86f61103fE', symObjAddr: 0xCAA0, symBinAddr: 0x17C90, symSize: 0x710 }
  - { offset: 0x2F575, size: 0x8, addend: 0x0, symName: '__ZN10tachyon_rs6engine1_51_$LT$impl$u20$tachyon_rs..engine..TachyonEngine$GT$28__pymethod_log_update_attr__17hc54ba77b75f95c46E', symObjAddr: 0xD1B0, symBinAddr: 0x183A0, symSize: 0x7A0 }
  - { offset: 0x2F6ED, size: 0x8, addend: 0x0, symName: '__ZN10tachyon_rs6engine1_51_$LT$impl$u20$tachyon_rs..engine..TachyonEngine$GT$29__pymethod_extract_timeline__17hc6a95a2d99fd0354E', symObjAddr: 0xD950, symBinAddr: 0x18B40, symSize: 0x3E0 }
  - { offset: 0x2FCB3, size: 0x8, addend: 0x0, symName: __ZN4pyo35types8sequence16extract_sequence17hb883e71af443adaaE, symObjAddr: 0x0, symBinAddr: 0x192B0, symSize: 0x4F2 }
  - { offset: 0x2FCCF, size: 0x8, addend: 0x0, symName: __ZN4pyo35types8sequence16extract_sequence17hb883e71af443adaaE, symObjAddr: 0x0, symBinAddr: 0x192B0, symSize: 0x4F2 }
  - { offset: 0x305C1, size: 0x8, addend: 0x0, symName: '__ZN103_$LT$alloc..vec..into_iter..IntoIter$LT$T$C$A$GT$$u20$as$u20$core..iter..traits..iterator..Iterator$GT$4next17h45bc882141c64f67E', symObjAddr: 0x0, symBinAddr: 0x197B0, symSize: 0xC0 }
  - { offset: 0x31536, size: 0x8, addend: 0x0, symName: __ZN4core4iter6traits10exact_size17ExactSizeIterator3len17h915d5479c5594bd4E, symObjAddr: 0x820, symBinAddr: 0x19FD0, symSize: 0xA0 }
  - { offset: 0x31644, size: 0x8, addend: 0x0, symName: __ZN4core4iter6traits10exact_size17ExactSizeIterator3len17hee0a358c6069f139E, symObjAddr: 0x8C0, symBinAddr: 0x1A070, symSize: 0xA0 }
  - { offset: 0x31908, size: 0x8, addend: 0x0, symName: __ZN4core4iter6traits8iterator8Iterator3map17h1882d4d45e499a88E, symObjAddr: 0x960, symBinAddr: 0x1A110, symSize: 0x30 }
  - { offset: 0x31975, size: 0x8, addend: 0x0, symName: __ZN4core4iter6traits8iterator8Iterator3map17h87d6868f6b8216edE, symObjAddr: 0x990, symBinAddr: 0x1A140, symSize: 0x30 }
  - { offset: 0x319E2, size: 0x8, addend: 0x0, symName: __ZN4core4iter6traits8iterator8Iterator3map17hc46d29babd4f8f18E, symObjAddr: 0x9C0, symBinAddr: 0x1A170, symSize: 0x30 }
  - { offset: 0x31D01, size: 0x8, addend: 0x0, symName: '__ZN103_$LT$alloc..vec..into_iter..IntoIter$LT$T$C$A$GT$$u20$as$u20$core..iter..traits..iterator..Iterator$GT$4next17h45bc882141c64f67E', symObjAddr: 0x0, symBinAddr: 0x197B0, symSize: 0xC0 }
  - { offset: 0x31E5E, size: 0x8, addend: 0x0, symName: '__ZN103_$LT$alloc..vec..into_iter..IntoIter$LT$T$C$A$GT$$u20$as$u20$core..iter..traits..iterator..Iterator$GT$4next17h6f719905b9030be7E', symObjAddr: 0xC0, symBinAddr: 0x19870, symSize: 0x80 }
  - { offset: 0x31FB7, size: 0x8, addend: 0x0, symName: '__ZN103_$LT$alloc..vec..into_iter..IntoIter$LT$T$C$A$GT$$u20$as$u20$core..iter..traits..iterator..Iterator$GT$4next17hfed80303634b2d06E', symObjAddr: 0x140, symBinAddr: 0x198F0, symSize: 0x90 }
  - { offset: 0x32110, size: 0x8, addend: 0x0, symName: '__ZN103_$LT$alloc..vec..into_iter..IntoIter$LT$T$C$A$GT$$u20$as$u20$core..iter..traits..iterator..Iterator$GT$8try_fold17h32cc3dbcc98980c4E', symObjAddr: 0x1D0, symBinAddr: 0x19980, symSize: 0x1E0 }
  - { offset: 0x322E9, size: 0x8, addend: 0x0, symName: '__ZN103_$LT$alloc..vec..into_iter..IntoIter$LT$T$C$A$GT$$u20$as$u20$core..iter..traits..iterator..Iterator$GT$8try_fold17h4cfaa74f28741e88E', symObjAddr: 0x3B0, symBinAddr: 0x19B60, symSize: 0x170 }
  - { offset: 0x324C2, size: 0x8, addend: 0x0, symName: '__ZN103_$LT$alloc..vec..into_iter..IntoIter$LT$T$C$A$GT$$u20$as$u20$core..iter..traits..iterator..Iterator$GT$8try_fold17h7fed489029cbd70aE', symObjAddr: 0x520, symBinAddr: 0x19CD0, symSize: 0x1E0 }
  - { offset: 0x3269B, size: 0x8, addend: 0x0, symName: '__ZN103_$LT$alloc..vec..into_iter..IntoIter$LT$T$C$A$GT$$u20$as$u20$core..iter..traits..iterator..Iterator$GT$9size_hint17hab18ca8b14c914b9E', symObjAddr: 0x700, symBinAddr: 0x19EB0, symSize: 0x60 }
  - { offset: 0x326F6, size: 0x8, addend: 0x0, symName: '__ZN103_$LT$alloc..vec..into_iter..IntoIter$LT$T$C$A$GT$$u20$as$u20$core..iter..traits..iterator..Iterator$GT$9size_hint17hda21c94dad83c113E', symObjAddr: 0x760, symBinAddr: 0x19F10, symSize: 0x60 }
  - { offset: 0x3280B, size: 0x8, addend: 0x0, symName: '__ZN114_$LT$alloc..vec..into_iter..IntoIter$LT$T$C$A$GT$$u20$as$u20$core..iter..traits..exact_size..ExactSizeIterator$GT$8is_empty17h3c4f1d75dc2b8c77E', symObjAddr: 0x7C0, symBinAddr: 0x19F70, symSize: 0x30 }
  - { offset: 0x3286E, size: 0x8, addend: 0x0, symName: '__ZN114_$LT$alloc..vec..into_iter..IntoIter$LT$T$C$A$GT$$u20$as$u20$core..iter..traits..exact_size..ExactSizeIterator$GT$8is_empty17h460b8467d64ccd85E', symObjAddr: 0x7F0, symBinAddr: 0x19FA0, symSize: 0x30 }
  - { offset: 0x32FED, size: 0x8, addend: 0x0, symName: '__ZN5alloc3vec9into_iter21IntoIter$LT$T$C$A$GT$16as_raw_mut_slice17h81525ebb3a087e1aE', symObjAddr: 0x9F0, symBinAddr: 0x1A1A0, symSize: 0xB0 }
  - { offset: 0x331C5, size: 0x8, addend: 0x0, symName: '__ZN5alloc3vec9into_iter21IntoIter$LT$T$C$A$GT$16as_raw_mut_slice17hb0041d4c5bf256a7E', symObjAddr: 0xAA0, symBinAddr: 0x1A250, symSize: 0xB0 }
  - { offset: 0x3339D, size: 0x8, addend: 0x0, symName: '__ZN5alloc3vec9into_iter21IntoIter$LT$T$C$A$GT$16as_raw_mut_slice17hfea641ec92d23684E', symObjAddr: 0xB50, symBinAddr: 0x1A300, symSize: 0xAF }
  - { offset: 0x33584, size: 0x8, addend: 0x0, symName: __ZN4core4iter6traits8iterator8Iterator4take17h3159559db7383921E, symObjAddr: 0x0, symBinAddr: 0x1A3B0, symSize: 0x20 }
  - { offset: 0x33603, size: 0x8, addend: 0x0, symName: __ZN4core4iter6traits8iterator8Iterator4take17h3159559db7383921E, symObjAddr: 0x0, symBinAddr: 0x1A3B0, symSize: 0x20 }
  - { offset: 0x33664, size: 0x8, addend: 0x0, symName: '__ZN72_$LT$$RF$mut$u20$I$u20$as$u20$core..iter..traits..iterator..Iterator$GT$4next17hcf69201778295a86E', symObjAddr: 0x20, symBinAddr: 0x1A3D0, symSize: 0x20 }
  - { offset: 0x336A7, size: 0x8, addend: 0x0, symName: '__ZN83_$LT$$RF$mut$u20$I$u20$as$u20$core..iter..traits..exact_size..ExactSizeIterator$GT$3len17h2280f9ae2f497d4eE', symObjAddr: 0x40, symBinAddr: 0x1A3F0, symSize: 0x1F }
  - { offset: 0x33921, size: 0x8, addend: 0x0, symName: '__ZN145_$LT$core..option..Option$LT$T$GT$$u20$as$u20$core..ops..try_trait..FromResidual$LT$core..option..Option$LT$core..convert..Infallible$GT$$GT$$GT$13from_residual17h4dd684bceeda2303E', symObjAddr: 0x0, symBinAddr: 0x1A410, symSize: 0x10 }
  - { offset: 0x339FE, size: 0x8, addend: 0x0, symName: '__ZN145_$LT$core..option..Option$LT$T$GT$$u20$as$u20$core..ops..try_trait..FromResidual$LT$core..option..Option$LT$core..convert..Infallible$GT$$GT$$GT$13from_residual17h4dd684bceeda2303E', symObjAddr: 0x0, symBinAddr: 0x1A410, symSize: 0x10 }
  - { offset: 0x33A31, size: 0x8, addend: 0x0, symName: '__ZN145_$LT$core..option..Option$LT$T$GT$$u20$as$u20$core..ops..try_trait..FromResidual$LT$core..option..Option$LT$core..convert..Infallible$GT$$GT$$GT$13from_residual17hc9687b3387a5328bE', symObjAddr: 0x10, symBinAddr: 0x1A420, symSize: 0x10 }
  - { offset: 0x33A64, size: 0x8, addend: 0x0, symName: '__ZN145_$LT$core..option..Option$LT$T$GT$$u20$as$u20$core..ops..try_trait..FromResidual$LT$core..option..Option$LT$core..convert..Infallible$GT$$GT$$GT$13from_residual17hffb39c45643b113aE', symObjAddr: 0x20, symBinAddr: 0x1A430, symSize: 0x10 }
  - { offset: 0x34D9F, size: 0x8, addend: 0x0, symName: __ZN4core6option6Option4Some17hd4878e860b18ce02E, symObjAddr: 0xF00, symBinAddr: 0x1B310, symSize: 0x10 }
  - { offset: 0x34DD2, size: 0x8, addend: 0x0, symName: __ZN4core6option6Option4Some17hf44f2629e6f030f0E, symObjAddr: 0xF10, symBinAddr: 0x1B320, symSize: 0x20 }
  - { offset: 0x34E0C, size: 0x8, addend: 0x0, symName: '__ZN75_$LT$core..option..Option$LT$T$GT$$u20$as$u20$core..ops..try_trait..Try$GT$6branch17h9dba22b2b62d1ca7E', symObjAddr: 0xF30, symBinAddr: 0x1B340, symSize: 0x3F }
  - { offset: 0x3683B, size: 0x8, addend: 0x0, symName: '__ZN4core6option15Option$LT$T$GT$10ok_or_else17h13262c6ff408cf8fE', symObjAddr: 0x30, symBinAddr: 0x1A440, symSize: 0xC0 }
  - { offset: 0x368A8, size: 0x8, addend: 0x0, symName: '__ZN4core6option15Option$LT$T$GT$10ok_or_else17hb04e016d34e9b405E', symObjAddr: 0xF0, symBinAddr: 0x1A500, symSize: 0x90 }
  - { offset: 0x369AA, size: 0x8, addend: 0x0, symName: '__ZN4core6option15Option$LT$T$GT$14unwrap_or_else17h69473867d02c52adE', symObjAddr: 0x180, symBinAddr: 0x1A590, symSize: 0x60 }
  - { offset: 0x369FB, size: 0x8, addend: 0x0, symName: '__ZN4core6option15Option$LT$T$GT$14unwrap_or_else17h6f4422ac675e8ec3E', symObjAddr: 0x1E0, symBinAddr: 0x1A5F0, symSize: 0x50 }
  - { offset: 0x36A3F, size: 0x8, addend: 0x0, symName: '__ZN4core6option15Option$LT$T$GT$14unwrap_or_else17h75a19a0e8b3e2613E', symObjAddr: 0x230, symBinAddr: 0x1A640, symSize: 0x50 }
  - { offset: 0x36A83, size: 0x8, addend: 0x0, symName: '__ZN4core6option15Option$LT$T$GT$14unwrap_or_else17he698b35bb3a6cc32E', symObjAddr: 0x280, symBinAddr: 0x1A690, symSize: 0x50 }
  - { offset: 0x36DE7, size: 0x8, addend: 0x0, symName: '__ZN4core6option15Option$LT$T$GT$3map17h18348b10a9669226E', symObjAddr: 0x2D0, symBinAddr: 0x1A6E0, symSize: 0x60 }
  - { offset: 0x36E5F, size: 0x8, addend: 0x0, symName: '__ZN4core6option15Option$LT$T$GT$3map17hd7d4f49f7a4f98a6E', symObjAddr: 0x330, symBinAddr: 0x1A740, symSize: 0x50 }
  - { offset: 0x36EE4, size: 0x8, addend: 0x0, symName: '__ZN4core6option15Option$LT$T$GT$3map17he6956e0a8f0eaf9eE', symObjAddr: 0x380, symBinAddr: 0x1A790, symSize: 0x50 }
  - { offset: 0x36FB5, size: 0x8, addend: 0x0, symName: '__ZN4core6option15Option$LT$T$GT$6as_ref17h0964c2aa250f5c5aE', symObjAddr: 0x3D0, symBinAddr: 0x1A7E0, symSize: 0x40 }
  - { offset: 0x3707C, size: 0x8, addend: 0x0, symName: '__ZN4core6option15Option$LT$T$GT$6insert17h23efb1a176d45ae5E', symObjAddr: 0x410, symBinAddr: 0x1A820, symSize: 0xA0 }
  - { offset: 0x37182, size: 0x8, addend: 0x0, symName: '__ZN4core6option15Option$LT$T$GT$6insert17h82a43f6f21499854E', symObjAddr: 0x4B0, symBinAddr: 0x1A8C0, symSize: 0xA0 }
  - { offset: 0x37295, size: 0x8, addend: 0x0, symName: '__ZN4core6option15Option$LT$T$GT$6insert17h85ded9a5cbfc39dcE', symObjAddr: 0x550, symBinAddr: 0x1A960, symSize: 0xA0 }
  - { offset: 0x3739B, size: 0x8, addend: 0x0, symName: '__ZN4core6option15Option$LT$T$GT$6insert17hc1454111d1e24608E', symObjAddr: 0x5F0, symBinAddr: 0x1AA00, symSize: 0xA0 }
  - { offset: 0x374AE, size: 0x8, addend: 0x0, symName: '__ZN4core6option15Option$LT$T$GT$6insert17he3d5c152a2474a95E', symObjAddr: 0x690, symBinAddr: 0x1AAA0, symSize: 0xA0 }
  - { offset: 0x375B4, size: 0x8, addend: 0x0, symName: '__ZN4core6option15Option$LT$T$GT$6insert17hfb4910c6ef192901E', symObjAddr: 0x730, symBinAddr: 0x1AB40, symSize: 0xA0 }
  - { offset: 0x3764A, size: 0x8, addend: 0x0, symName: '__ZN4core6option15Option$LT$T$GT$6map_or17h0a44096e9c5207b0E', symObjAddr: 0x7D0, symBinAddr: 0x1ABE0, symSize: 0x90 }
  - { offset: 0x376BC, size: 0x8, addend: 0x0, symName: '__ZN4core6option15Option$LT$T$GT$6map_or17h330093c3b0465e48E', symObjAddr: 0x860, symBinAddr: 0x1AC70, symSize: 0x90 }
  - { offset: 0x3774D, size: 0x8, addend: 0x0, symName: '__ZN4core6option15Option$LT$T$GT$6map_or17h3ac5adb714f556a8E', symObjAddr: 0x8F0, symBinAddr: 0x1AD00, symSize: 0x90 }
  - { offset: 0x377BF, size: 0x8, addend: 0x0, symName: '__ZN4core6option15Option$LT$T$GT$6map_or17h3f2525b468b36ea2E', symObjAddr: 0x980, symBinAddr: 0x1AD90, symSize: 0x90 }
  - { offset: 0x37831, size: 0x8, addend: 0x0, symName: '__ZN4core6option15Option$LT$T$GT$6map_or17h77b56c55c4b799feE', symObjAddr: 0xA10, symBinAddr: 0x1AE20, symSize: 0x90 }
  - { offset: 0x378A3, size: 0x8, addend: 0x0, symName: '__ZN4core6option15Option$LT$T$GT$6map_or17hd787bd00ea8330a3E', symObjAddr: 0xAA0, symBinAddr: 0x1AEB0, symSize: 0x90 }
  - { offset: 0x37936, size: 0x8, addend: 0x0, symName: '__ZN4core6option15Option$LT$T$GT$7is_some17h7dfa6fbd2534dda8E', symObjAddr: 0xB30, symBinAddr: 0x1AF40, symSize: 0x30 }
  - { offset: 0x3798D, size: 0x8, addend: 0x0, symName: '__ZN4core6option15Option$LT$T$GT$7is_some17h8a92809cb20c0e8bE', symObjAddr: 0xB60, symBinAddr: 0x1AF70, symSize: 0x30 }
  - { offset: 0x379B9, size: 0x8, addend: 0x0, symName: '__ZN4core6option15Option$LT$T$GT$7is_some17ha23d6a08513fec26E', symObjAddr: 0xB90, symBinAddr: 0x1AFA0, symSize: 0x30 }
  - { offset: 0x379F2, size: 0x8, addend: 0x0, symName: '__ZN4core6option15Option$LT$T$GT$7or_else17h04c5295ea4edd3c4E', symObjAddr: 0xBC0, symBinAddr: 0x1AFD0, symSize: 0xB0 }
  - { offset: 0x37A43, size: 0x8, addend: 0x0, symName: '__ZN4core6option15Option$LT$T$GT$7or_else17h360ed33db47800daE', symObjAddr: 0xC70, symBinAddr: 0x1B080, symSize: 0xB0 }
  - { offset: 0x37A94, size: 0x8, addend: 0x0, symName: '__ZN4core6option15Option$LT$T$GT$7or_else17h898bae5fc5584976E', symObjAddr: 0xD20, symBinAddr: 0x1B130, symSize: 0xB0 }
  - { offset: 0x37AE5, size: 0x8, addend: 0x0, symName: '__ZN4core6option15Option$LT$T$GT$7replace17h20bd7332a41949b9E', symObjAddr: 0xDD0, symBinAddr: 0x1B1E0, symSize: 0x20 }
  - { offset: 0x37B4B, size: 0x8, addend: 0x0, symName: '__ZN4core6option15Option$LT$T$GT$8and_then17ha81eda55cb3d57a3E', symObjAddr: 0xDF0, symBinAddr: 0x1B200, symSize: 0x60 }
  - { offset: 0x37BC3, size: 0x8, addend: 0x0, symName: '__ZN4core6option19Option$LT$$RF$T$GT$6cloned17h4b777a5642cc2872E', symObjAddr: 0xE50, symBinAddr: 0x1B260, symSize: 0x50 }
  - { offset: 0x37C1A, size: 0x8, addend: 0x0, symName: '__ZN4core6option19Option$LT$$RF$T$GT$6cloned17hcc934ff0351a3ccdE', symObjAddr: 0xEA0, symBinAddr: 0x1B2B0, symSize: 0x60 }
  - { offset: 0x37E21, size: 0x8, addend: 0x0, symName: '__ZN100_$LT$core..iter..adapters..take..Take$LT$I$GT$$u20$as$u20$core..iter..traits..iterator..Iterator$GT$4next17h6be173b381810718E', symObjAddr: 0x0, symBinAddr: 0x1B380, symSize: 0x50 }
  - { offset: 0x37E47, size: 0x8, addend: 0x0, symName: '__ZN100_$LT$core..iter..adapters..take..Take$LT$I$GT$$u20$as$u20$core..iter..traits..iterator..Iterator$GT$4next17h6be173b381810718E', symObjAddr: 0x0, symBinAddr: 0x1B380, symSize: 0x50 }
  - { offset: 0x37E7C, size: 0x8, addend: 0x0, symName: '__ZN100_$LT$core..iter..adapters..take..Take$LT$I$GT$$u20$as$u20$core..iter..traits..iterator..Iterator$GT$4next17h7077158f5b20b066E', symObjAddr: 0x50, symBinAddr: 0x1B3D0, symSize: 0x50 }
  - { offset: 0x37F65, size: 0x8, addend: 0x0, symName: __ZN4core4iter6traits8iterator8Iterator9enumerate17h5bc6c953d7ebf228E, symObjAddr: 0xA0, symBinAddr: 0x1B420, symSize: 0x30 }
  - { offset: 0x37FBD, size: 0x8, addend: 0x0, symName: '__ZN63_$LT$I$u20$as$u20$core..iter..traits..collect..IntoIterator$GT$9into_iter17h919a98acb38117bdE', symObjAddr: 0xD0, symBinAddr: 0x1B450, symSize: 0x1F }
  - { offset: 0x382FC, size: 0x8, addend: 0x0, symName: __ZN4pyo33err5PyErr3new17h5fbc2d331ba38de9E, symObjAddr: 0x0, symBinAddr: 0x1B470, symSize: 0x70 }
  - { offset: 0x38364, size: 0x8, addend: 0x0, symName: '__ZN4pyo33err5PyErr3new28_$u7b$$u7b$closure$u7d$$u7d$17h008082dd4c15e521E', symObjAddr: 0x1C0, symBinAddr: 0x1B630, symSize: 0xD0 }
  - { offset: 0x383BD, size: 0x8, addend: 0x0, symName: '__ZN4pyo33err5PyErr3new28_$u7b$$u7b$closure$u7d$$u7d$17h603756a2d7d39388E', symObjAddr: 0x290, symBinAddr: 0x1B700, symSize: 0xA0 }
  - { offset: 0x38415, size: 0x8, addend: 0x0, symName: '__ZN4pyo33err5PyErr3new28_$u7b$$u7b$closure$u7d$$u7d$17hcf720a6b2bb12996E', symObjAddr: 0x330, symBinAddr: 0x1B7A0, symSize: 0xB0 }
  - { offset: 0x38C75, size: 0x8, addend: 0x0, symName: '__ZN50_$LT$T$u20$as$u20$core..convert..Into$LT$U$GT$$GT$4into17h36f23e86937ee5e0E', symObjAddr: 0x3E0, symBinAddr: 0x1B850, symSize: 0x27 }
  - { offset: 0x38E05, size: 0x8, addend: 0x0, symName: __ZN4pyo33err5PyErr3new17h5fbc2d331ba38de9E, symObjAddr: 0x0, symBinAddr: 0x1B470, symSize: 0x70 }
  - { offset: 0x38E5A, size: 0x8, addend: 0x0, symName: __ZN4pyo33err5PyErr3new17ha58408cbc3e9c789E, symObjAddr: 0x70, symBinAddr: 0x1B4E0, symSize: 0xA0 }
  - { offset: 0x38EB8, size: 0x8, addend: 0x0, symName: __ZN4pyo33err5PyErr3new17hf955789ef7f700b1E, symObjAddr: 0x110, symBinAddr: 0x1B580, symSize: 0xB0 }
  - { offset: 0x38F60, size: 0x8, addend: 0x0, symName: __ZN8pyo3_ffi6object17PyType_HasFeature17h780d8c62ca44f8b8E, symObjAddr: 0x0, symBinAddr: 0x1B880, symSize: 0x40 }
  - { offset: 0x38F77, size: 0x8, addend: 0x0, symName: __ZN8pyo3_ffi6object17PyType_HasFeature17h780d8c62ca44f8b8E, symObjAddr: 0x0, symBinAddr: 0x1B880, symSize: 0x40 }
  - { offset: 0x38FB4, size: 0x8, addend: 0x0, symName: __ZN8pyo3_ffi6object18PyObject_TypeCheck17hd9b63c50f614d216E, symObjAddr: 0x40, symBinAddr: 0x1B8C0, symSize: 0x60 }
  - { offset: 0x38FF1, size: 0x8, addend: 0x0, symName: __ZN8pyo3_ffi6object19PyType_FastSubclass17h69ffee061f1d8e09E, symObjAddr: 0xA0, symBinAddr: 0x1B920, symSize: 0x20 }
  - { offset: 0x3902E, size: 0x8, addend: 0x0, symName: __ZN8pyo3_ffi6object7Py_None17he701ec3b84339f55E, symObjAddr: 0xC0, symBinAddr: 0x1B940, symSize: 0x10 }
  - { offset: 0x3904C, size: 0x8, addend: 0x0, symName: __ZN8pyo3_ffi6object7Py_TYPE17hce5cbf3ef4698f8dE, symObjAddr: 0xD0, symBinAddr: 0x1B950, symSize: 0x5E }
  - { offset: 0x39118, size: 0x8, addend: 0x0, symName: __ZN4pyo33err5PyErr10from_state17h04643c23762d48e7E, symObjAddr: 0x0, symBinAddr: 0x1B9B0, symSize: 0x70 }
  - { offset: 0x3984A, size: 0x8, addend: 0x0, symName: __ZN4pyo33err5PyErr10from_state17h04643c23762d48e7E, symObjAddr: 0x0, symBinAddr: 0x1B9B0, symSize: 0x70 }
  - { offset: 0x398D0, size: 0x8, addend: 0x0, symName: __ZN4pyo33err5PyErr16write_unraisable17h72514ba28fb6489fE, symObjAddr: 0x70, symBinAddr: 0x1BA20, symSize: 0x60 }
  - { offset: 0x3993A, size: 0x8, addend: 0x0, symName: __ZN4pyo33err5PyErr7restore17hb7b69221eacca42bE, symObjAddr: 0xD0, symBinAddr: 0x1BA80, symSize: 0x76 }
  - { offset: 0x399B5, size: 0x8, addend: 0x0, symName: '__ZN4pyo310conversion13FromPyPointer26from_borrowed_ptr_or_panic28_$u7b$$u7b$closure$u7d$$u7d$17h625cbffd4e581140E', symObjAddr: 0x0, symBinAddr: 0x1BB00, symSize: 0x20 }
  - { offset: 0x39A3D, size: 0x8, addend: 0x0, symName: '__ZN4pyo310conversion13FromPyPointer26from_borrowed_ptr_or_panic28_$u7b$$u7b$closure$u7d$$u7d$17h625cbffd4e581140E', symObjAddr: 0x0, symBinAddr: 0x1BB00, symSize: 0x20 }
  - { offset: 0x39A9F, size: 0x8, addend: 0x0, symName: '__ZN53_$LT$T$u20$as$u20$pyo3..conversion..FromPyPointer$GT$24from_borrowed_ptr_or_opt28_$u7b$$u7b$closure$u7d$$u7d$17h0fe0b8e4074a1c26E', symObjAddr: 0x20, symBinAddr: 0x1BB20, symSize: 0x60 }
  - { offset: 0x39AE1, size: 0x8, addend: 0x0, symName: '__ZN53_$LT$T$u20$as$u20$pyo3..conversion..FromPyPointer$GT$24from_borrowed_ptr_or_opt28_$u7b$$u7b$closure$u7d$$u7d$17hb3cbf0902b97a446E', symObjAddr: 0x80, symBinAddr: 0x1BB80, symSize: 0x60 }
  - { offset: 0x39B38, size: 0x8, addend: 0x0, symName: '__ZN54_$LT$$RF$T$u20$as$u20$pyo3..conversion..ToPyObject$GT$9to_object17hc45d4d5deb2859f6E', symObjAddr: 0xE0, symBinAddr: 0x1BBE0, symSize: 0x1A }
  - { offset: 0x39EED, size: 0x8, addend: 0x0, symName: '__ZN102_$LT$core..iter..adapters..map..Map$LT$I$C$F$GT$$u20$as$u20$core..iter..traits..iterator..Iterator$GT$4next17h1ebfe90e98c228f4E', symObjAddr: 0x0, symBinAddr: 0x1BC00, symSize: 0x80 }
  - { offset: 0x3AB33, size: 0x8, addend: 0x0, symName: '__ZN102_$LT$core..iter..adapters..map..Map$LT$I$C$F$GT$$u20$as$u20$core..iter..traits..iterator..Iterator$GT$4next17h1ebfe90e98c228f4E', symObjAddr: 0x0, symBinAddr: 0x1BC00, symSize: 0x80 }
  - { offset: 0x3ABDF, size: 0x8, addend: 0x0, symName: '__ZN102_$LT$core..iter..adapters..map..Map$LT$I$C$F$GT$$u20$as$u20$core..iter..traits..iterator..Iterator$GT$4next17h21a1c84439bf12fdE', symObjAddr: 0x80, symBinAddr: 0x1BC80, symSize: 0x80 }
  - { offset: 0x3AC8B, size: 0x8, addend: 0x0, symName: '__ZN102_$LT$core..iter..adapters..map..Map$LT$I$C$F$GT$$u20$as$u20$core..iter..traits..iterator..Iterator$GT$4next17h5fbe3eec893ae382E', symObjAddr: 0x100, symBinAddr: 0x1BD00, symSize: 0x80 }
  - { offset: 0x3AD37, size: 0x8, addend: 0x0, symName: '__ZN102_$LT$core..iter..adapters..map..Map$LT$I$C$F$GT$$u20$as$u20$core..iter..traits..iterator..Iterator$GT$4next17hb3ecee04be4a880dE', symObjAddr: 0x180, symBinAddr: 0x1BD80, symSize: 0x80 }
  - { offset: 0x3ADE3, size: 0x8, addend: 0x0, symName: '__ZN102_$LT$core..iter..adapters..map..Map$LT$I$C$F$GT$$u20$as$u20$core..iter..traits..iterator..Iterator$GT$4next17hc2c1aa92d92770a4E', symObjAddr: 0x200, symBinAddr: 0x1BE00, symSize: 0xB0 }
  - { offset: 0x3AE90, size: 0x8, addend: 0x0, symName: '__ZN102_$LT$core..iter..adapters..map..Map$LT$I$C$F$GT$$u20$as$u20$core..iter..traits..iterator..Iterator$GT$4next17hc2daacaa1a9700d2E', symObjAddr: 0x2B0, symBinAddr: 0x1BEB0, symSize: 0x80 }
  - { offset: 0x3AF3C, size: 0x8, addend: 0x0, symName: '__ZN102_$LT$core..iter..adapters..map..Map$LT$I$C$F$GT$$u20$as$u20$core..iter..traits..iterator..Iterator$GT$4next17hd49e1da3c8853d62E', symObjAddr: 0x330, symBinAddr: 0x1BF30, symSize: 0xB0 }
  - { offset: 0x3AFE9, size: 0x8, addend: 0x0, symName: '__ZN102_$LT$core..iter..adapters..map..Map$LT$I$C$F$GT$$u20$as$u20$core..iter..traits..iterator..Iterator$GT$4next17hdad3f5afcbbebb92E', symObjAddr: 0x3E0, symBinAddr: 0x1BFE0, symSize: 0x80 }
  - { offset: 0x3B095, size: 0x8, addend: 0x0, symName: '__ZN102_$LT$core..iter..adapters..map..Map$LT$I$C$F$GT$$u20$as$u20$core..iter..traits..iterator..Iterator$GT$8try_fold17h0a13ba477f47bec1E', symObjAddr: 0x460, symBinAddr: 0x1C060, symSize: 0x30 }
  - { offset: 0x3B113, size: 0x8, addend: 0x0, symName: '__ZN102_$LT$core..iter..adapters..map..Map$LT$I$C$F$GT$$u20$as$u20$core..iter..traits..iterator..Iterator$GT$8try_fold17h1ebde92624d2b2eeE', symObjAddr: 0x490, symBinAddr: 0x1C090, symSize: 0x30 }
  - { offset: 0x3B191, size: 0x8, addend: 0x0, symName: '__ZN102_$LT$core..iter..adapters..map..Map$LT$I$C$F$GT$$u20$as$u20$core..iter..traits..iterator..Iterator$GT$8try_fold17h26d967ded426a05cE', symObjAddr: 0x4C0, symBinAddr: 0x1C0C0, symSize: 0x30 }
  - { offset: 0x3B20F, size: 0x8, addend: 0x0, symName: '__ZN102_$LT$core..iter..adapters..map..Map$LT$I$C$F$GT$$u20$as$u20$core..iter..traits..iterator..Iterator$GT$8try_fold17h36fc48e13beeed9aE', symObjAddr: 0x4F0, symBinAddr: 0x1C0F0, symSize: 0x30 }
  - { offset: 0x3B28D, size: 0x8, addend: 0x0, symName: '__ZN102_$LT$core..iter..adapters..map..Map$LT$I$C$F$GT$$u20$as$u20$core..iter..traits..iterator..Iterator$GT$8try_fold17h7950dc658e8e10e0E', symObjAddr: 0x520, symBinAddr: 0x1C120, symSize: 0x30 }
  - { offset: 0x3B30B, size: 0x8, addend: 0x0, symName: '__ZN102_$LT$core..iter..adapters..map..Map$LT$I$C$F$GT$$u20$as$u20$core..iter..traits..iterator..Iterator$GT$8try_fold17h9ceb79530fe73ff2E', symObjAddr: 0x550, symBinAddr: 0x1C150, symSize: 0x30 }
  - { offset: 0x3B389, size: 0x8, addend: 0x0, symName: '__ZN102_$LT$core..iter..adapters..map..Map$LT$I$C$F$GT$$u20$as$u20$core..iter..traits..iterator..Iterator$GT$8try_fold17hcb0fec401bd6c5fdE', symObjAddr: 0x580, symBinAddr: 0x1C180, symSize: 0x30 }
  - { offset: 0x3B407, size: 0x8, addend: 0x0, symName: '__ZN102_$LT$core..iter..adapters..map..Map$LT$I$C$F$GT$$u20$as$u20$core..iter..traits..iterator..Iterator$GT$8try_fold17hdc25900cb55c8cf7E', symObjAddr: 0x5B0, symBinAddr: 0x1C1B0, symSize: 0x30 }
  - { offset: 0x3B485, size: 0x8, addend: 0x0, symName: '__ZN102_$LT$core..iter..adapters..map..Map$LT$I$C$F$GT$$u20$as$u20$core..iter..traits..iterator..Iterator$GT$9size_hint17h40800554fd963d1eE', symObjAddr: 0x5E0, symBinAddr: 0x1C1E0, symSize: 0x30 }
  - { offset: 0x3B4CC, size: 0x8, addend: 0x0, symName: '__ZN102_$LT$core..iter..adapters..map..Map$LT$I$C$F$GT$$u20$as$u20$core..iter..traits..iterator..Iterator$GT$9size_hint17h643a62b6ff4d0893E', symObjAddr: 0x610, symBinAddr: 0x1C210, symSize: 0x30 }
  - { offset: 0x3B513, size: 0x8, addend: 0x0, symName: '__ZN102_$LT$core..iter..adapters..map..Map$LT$I$C$F$GT$$u20$as$u20$core..iter..traits..iterator..Iterator$GT$9size_hint17h673291984c7cf4fcE', symObjAddr: 0x640, symBinAddr: 0x1C240, symSize: 0x30 }
  - { offset: 0x3B55A, size: 0x8, addend: 0x0, symName: '__ZN102_$LT$core..iter..adapters..map..Map$LT$I$C$F$GT$$u20$as$u20$core..iter..traits..iterator..Iterator$GT$9size_hint17hacb9b2ebebcbf7f4E', symObjAddr: 0x670, symBinAddr: 0x1C270, symSize: 0x30 }
  - { offset: 0x3B5A1, size: 0x8, addend: 0x0, symName: '__ZN102_$LT$core..iter..adapters..map..Map$LT$I$C$F$GT$$u20$as$u20$core..iter..traits..iterator..Iterator$GT$9size_hint17hbc9f04b457fa161cE', symObjAddr: 0x6A0, symBinAddr: 0x1C2A0, symSize: 0x30 }
  - { offset: 0x3B5E8, size: 0x8, addend: 0x0, symName: '__ZN102_$LT$core..iter..adapters..map..Map$LT$I$C$F$GT$$u20$as$u20$core..iter..traits..iterator..Iterator$GT$9size_hint17hc4fe89f2964eef96E', symObjAddr: 0x6D0, symBinAddr: 0x1C2D0, symSize: 0x30 }
  - { offset: 0x3B62F, size: 0x8, addend: 0x0, symName: '__ZN102_$LT$core..iter..adapters..map..Map$LT$I$C$F$GT$$u20$as$u20$core..iter..traits..iterator..Iterator$GT$9size_hint17hd7afdf09f90d98d9E', symObjAddr: 0x700, symBinAddr: 0x1C300, symSize: 0x30 }
  - { offset: 0x3B676, size: 0x8, addend: 0x0, symName: '__ZN102_$LT$core..iter..adapters..map..Map$LT$I$C$F$GT$$u20$as$u20$core..iter..traits..iterator..Iterator$GT$9size_hint17hfaf2ec741295ac7dE', symObjAddr: 0x730, symBinAddr: 0x1C330, symSize: 0x30 }
  - { offset: 0x3B6C3, size: 0x8, addend: 0x0, symName: '__ZN113_$LT$core..iter..adapters..map..Map$LT$I$C$F$GT$$u20$as$u20$core..iter..traits..exact_size..ExactSizeIterator$GT$3len17h44e833364c8a8260E', symObjAddr: 0x760, symBinAddr: 0x1C360, symSize: 0x20 }
  - { offset: 0x3B70A, size: 0x8, addend: 0x0, symName: '__ZN113_$LT$core..iter..adapters..map..Map$LT$I$C$F$GT$$u20$as$u20$core..iter..traits..exact_size..ExactSizeIterator$GT$3len17h50106480ae18acf6E', symObjAddr: 0x780, symBinAddr: 0x1C380, symSize: 0x20 }
  - { offset: 0x3B751, size: 0x8, addend: 0x0, symName: '__ZN113_$LT$core..iter..adapters..map..Map$LT$I$C$F$GT$$u20$as$u20$core..iter..traits..exact_size..ExactSizeIterator$GT$3len17h8e1bf738c3fff0caE', symObjAddr: 0x7A0, symBinAddr: 0x1C3A0, symSize: 0x20 }
  - { offset: 0x3B798, size: 0x8, addend: 0x0, symName: '__ZN113_$LT$core..iter..adapters..map..Map$LT$I$C$F$GT$$u20$as$u20$core..iter..traits..exact_size..ExactSizeIterator$GT$3len17h9878cd791e54f8a7E', symObjAddr: 0x7C0, symBinAddr: 0x1C3C0, symSize: 0x20 }
  - { offset: 0x3B7DF, size: 0x8, addend: 0x0, symName: '__ZN113_$LT$core..iter..adapters..map..Map$LT$I$C$F$GT$$u20$as$u20$core..iter..traits..exact_size..ExactSizeIterator$GT$3len17hcde00af4d2b74fbfE', symObjAddr: 0x7E0, symBinAddr: 0x1C3E0, symSize: 0x20 }
  - { offset: 0x3B826, size: 0x8, addend: 0x0, symName: '__ZN113_$LT$core..iter..adapters..map..Map$LT$I$C$F$GT$$u20$as$u20$core..iter..traits..exact_size..ExactSizeIterator$GT$8is_empty17h18d832fed198d635E', symObjAddr: 0x800, symBinAddr: 0x1C400, symSize: 0x20 }
  - { offset: 0x3B86D, size: 0x8, addend: 0x0, symName: '__ZN113_$LT$core..iter..adapters..map..Map$LT$I$C$F$GT$$u20$as$u20$core..iter..traits..exact_size..ExactSizeIterator$GT$8is_empty17h312fbfab0481d78eE', symObjAddr: 0x820, symBinAddr: 0x1C420, symSize: 0x20 }
  - { offset: 0x3B8B4, size: 0x8, addend: 0x0, symName: '__ZN113_$LT$core..iter..adapters..map..Map$LT$I$C$F$GT$$u20$as$u20$core..iter..traits..exact_size..ExactSizeIterator$GT$8is_empty17h718f6b14b31b4b22E', symObjAddr: 0x840, symBinAddr: 0x1C440, symSize: 0x20 }
  - { offset: 0x3B8FB, size: 0x8, addend: 0x0, symName: '__ZN113_$LT$core..iter..adapters..map..Map$LT$I$C$F$GT$$u20$as$u20$core..iter..traits..exact_size..ExactSizeIterator$GT$8is_empty17h9508e1c737e39906E', symObjAddr: 0x860, symBinAddr: 0x1C460, symSize: 0x20 }
  - { offset: 0x3B942, size: 0x8, addend: 0x0, symName: '__ZN113_$LT$core..iter..adapters..map..Map$LT$I$C$F$GT$$u20$as$u20$core..iter..traits..exact_size..ExactSizeIterator$GT$8is_empty17hb2282adf5ddfd430E', symObjAddr: 0x880, symBinAddr: 0x1C480, symSize: 0x20 }
  - { offset: 0x3BAB3, size: 0x8, addend: 0x0, symName: '__ZN4core4iter8adapters3map12map_try_fold28_$u7b$$u7b$closure$u7d$$u7d$17h8564e61fa7bff140E', symObjAddr: 0xC20, symBinAddr: 0x1C820, symSize: 0x90 }
  - { offset: 0x3BB45, size: 0x8, addend: 0x0, symName: '__ZN4core4iter8adapters3map12map_try_fold28_$u7b$$u7b$closure$u7d$$u7d$17h957fc9951bf13cc6E', symObjAddr: 0xCB0, symBinAddr: 0x1C8B0, symSize: 0x90 }
  - { offset: 0x3BBD7, size: 0x8, addend: 0x0, symName: '__ZN4core4iter8adapters3map12map_try_fold28_$u7b$$u7b$closure$u7d$$u7d$17h9d7ac5fab07b4124E', symObjAddr: 0xD40, symBinAddr: 0x1C940, symSize: 0x90 }
  - { offset: 0x3BC6A, size: 0x8, addend: 0x0, symName: '__ZN4core4iter8adapters3map12map_try_fold28_$u7b$$u7b$closure$u7d$$u7d$17hb2d438114e0050a9E', symObjAddr: 0xDD0, symBinAddr: 0x1C9D0, symSize: 0x90 }
  - { offset: 0x3BCFC, size: 0x8, addend: 0x0, symName: '__ZN4core4iter8adapters3map12map_try_fold28_$u7b$$u7b$closure$u7d$$u7d$17hba5888ba1f79a882E', symObjAddr: 0xE60, symBinAddr: 0x1CA60, symSize: 0x90 }
  - { offset: 0x3BD8E, size: 0x8, addend: 0x0, symName: '__ZN4core4iter8adapters3map12map_try_fold28_$u7b$$u7b$closure$u7d$$u7d$17hd051fa691357d902E', symObjAddr: 0xEF0, symBinAddr: 0x1CAF0, symSize: 0x90 }
  - { offset: 0x3BE21, size: 0x8, addend: 0x0, symName: '__ZN4core4iter8adapters3map12map_try_fold28_$u7b$$u7b$closure$u7d$$u7d$17hd2df5ff2a481011dE', symObjAddr: 0xF80, symBinAddr: 0x1CB80, symSize: 0x90 }
  - { offset: 0x3BEB3, size: 0x8, addend: 0x0, symName: '__ZN4core4iter8adapters3map12map_try_fold28_$u7b$$u7b$closure$u7d$$u7d$17he5a95cb06851738aE', symObjAddr: 0x1010, symBinAddr: 0x1CC10, symSize: 0x90 }
  - { offset: 0x3BF87, size: 0x8, addend: 0x0, symName: '__ZN4core4iter8adapters3map8map_fold28_$u7b$$u7b$closure$u7d$$u7d$17h277123327e6406a0E', symObjAddr: 0x10A0, symBinAddr: 0x1CCA0, symSize: 0x70 }
  - { offset: 0x3C00C, size: 0x8, addend: 0x0, symName: '__ZN4core4iter8adapters3map8map_fold28_$u7b$$u7b$closure$u7d$$u7d$17ha68d527c1709b25bE', symObjAddr: 0x1110, symBinAddr: 0x1CD10, symSize: 0x70 }
  - { offset: 0x3C16F, size: 0x8, addend: 0x0, symName: __ZN4core4iter6traits8iterator8Iterator10advance_by17h0d2dd47dbdfe3812E, symObjAddr: 0x8A0, symBinAddr: 0x1C4A0, symSize: 0x20 }
  - { offset: 0x3C1B5, size: 0x8, addend: 0x0, symName: __ZN4core4iter6traits8iterator8Iterator10advance_by17h17e0c6d5f71cbcfaE, symObjAddr: 0x8C0, symBinAddr: 0x1C4C0, symSize: 0x20 }
  - { offset: 0x3C1FB, size: 0x8, addend: 0x0, symName: __ZN4core4iter6traits8iterator8Iterator10advance_by17h407188faafe95d73E, symObjAddr: 0x8E0, symBinAddr: 0x1C4E0, symSize: 0x20 }
  - { offset: 0x3C241, size: 0x8, addend: 0x0, symName: __ZN4core4iter6traits8iterator8Iterator10advance_by17h5dfc42c195ce9553E, symObjAddr: 0x900, symBinAddr: 0x1C500, symSize: 0x20 }
  - { offset: 0x3C287, size: 0x8, addend: 0x0, symName: __ZN4core4iter6traits8iterator8Iterator10advance_by17h8912ef853f2248d7E, symObjAddr: 0x920, symBinAddr: 0x1C520, symSize: 0x20 }
  - { offset: 0x3C2CD, size: 0x8, addend: 0x0, symName: __ZN4core4iter6traits8iterator8Iterator10advance_by17hfdd7e15548c22e5dE, symObjAddr: 0x940, symBinAddr: 0x1C540, symSize: 0x20 }
  - { offset: 0x3C313, size: 0x8, addend: 0x0, symName: __ZN4core4iter6traits8iterator8Iterator3map17h068ac53f29c496d1E, symObjAddr: 0x960, symBinAddr: 0x1C560, symSize: 0x40 }
  - { offset: 0x3C381, size: 0x8, addend: 0x0, symName: __ZN4core4iter6traits8iterator8Iterator3map17h4c6206dceea8a60fE, symObjAddr: 0x9A0, symBinAddr: 0x1C5A0, symSize: 0x40 }
  - { offset: 0x3C3EF, size: 0x8, addend: 0x0, symName: __ZN4core4iter6traits8iterator8Iterator3nth17h270483822c05c4aeE, symObjAddr: 0x9E0, symBinAddr: 0x1C5E0, symSize: 0x60 }
  - { offset: 0x3C499, size: 0x8, addend: 0x0, symName: __ZN4core4iter6traits8iterator8Iterator3nth17h8b502be76af65e0fE, symObjAddr: 0xA40, symBinAddr: 0x1C640, symSize: 0x60 }
  - { offset: 0x3C543, size: 0x8, addend: 0x0, symName: __ZN4core4iter6traits8iterator8Iterator3nth17h900c4404d46126a8E, symObjAddr: 0xAA0, symBinAddr: 0x1C6A0, symSize: 0x60 }
  - { offset: 0x3C5ED, size: 0x8, addend: 0x0, symName: __ZN4core4iter6traits8iterator8Iterator3nth17h95b990831b4a45b1E, symObjAddr: 0xB00, symBinAddr: 0x1C700, symSize: 0x60 }
  - { offset: 0x3C697, size: 0x8, addend: 0x0, symName: __ZN4core4iter6traits8iterator8Iterator3nth17hee6da52fd08b8f70E, symObjAddr: 0xB60, symBinAddr: 0x1C760, symSize: 0x60 }
  - { offset: 0x3C741, size: 0x8, addend: 0x0, symName: __ZN4core4iter6traits8iterator8Iterator3nth17hf78b1acfe01ea77dE, symObjAddr: 0xBC0, symBinAddr: 0x1C7C0, symSize: 0x60 }
  - { offset: 0x3C7F5, size: 0x8, addend: 0x0, symName: '__ZN87_$LT$I$u20$as$u20$core..iter..traits..iterator..Iterator..advance_by..SpecAdvanceBy$GT$15spec_advance_by17h5ec55672a88ea059E', symObjAddr: 0x11E0, symBinAddr: 0x1CDE0, symSize: 0x90 }
  - { offset: 0x3C8A3, size: 0x8, addend: 0x0, symName: '__ZN87_$LT$I$u20$as$u20$core..iter..traits..iterator..Iterator..advance_by..SpecAdvanceBy$GT$15spec_advance_by17h6952589dbe34ba5bE', symObjAddr: 0x1270, symBinAddr: 0x1CE70, symSize: 0x90 }
  - { offset: 0x3C951, size: 0x8, addend: 0x0, symName: '__ZN87_$LT$I$u20$as$u20$core..iter..traits..iterator..Iterator..advance_by..SpecAdvanceBy$GT$15spec_advance_by17h939a04f67eb85544E', symObjAddr: 0x1300, symBinAddr: 0x1CF00, symSize: 0x90 }
  - { offset: 0x3C9FF, size: 0x8, addend: 0x0, symName: '__ZN87_$LT$I$u20$as$u20$core..iter..traits..iterator..Iterator..advance_by..SpecAdvanceBy$GT$15spec_advance_by17h9b7f6029b2277220E', symObjAddr: 0x1390, symBinAddr: 0x1CF90, symSize: 0x90 }
  - { offset: 0x3CAAD, size: 0x8, addend: 0x0, symName: '__ZN87_$LT$I$u20$as$u20$core..iter..traits..iterator..Iterator..advance_by..SpecAdvanceBy$GT$15spec_advance_by17hbc683385ad699610E', symObjAddr: 0x1420, symBinAddr: 0x1D020, symSize: 0x90 }
  - { offset: 0x3CB5B, size: 0x8, addend: 0x0, symName: '__ZN87_$LT$I$u20$as$u20$core..iter..traits..iterator..Iterator..advance_by..SpecAdvanceBy$GT$15spec_advance_by17hdfcc522f235340b5E', symObjAddr: 0x14B0, symBinAddr: 0x1D0B0, symSize: 0x8B }
  - { offset: 0x3CC79, size: 0x8, addend: 0x0, symName: '__ZN63_$LT$I$u20$as$u20$core..iter..traits..collect..IntoIterator$GT$9into_iter17h6ffa659e48f196d0E', symObjAddr: 0x1180, symBinAddr: 0x1CD80, symSize: 0x30 }
  - { offset: 0x3CCB1, size: 0x8, addend: 0x0, symName: '__ZN63_$LT$I$u20$as$u20$core..iter..traits..collect..IntoIterator$GT$9into_iter17ha68aa8ec94020f8dE', symObjAddr: 0x11B0, symBinAddr: 0x1CDB0, symSize: 0x30 }
  - { offset: 0x3E1CB, size: 0x8, addend: 0x0, symName: '__ZN42_$LT$$RF$T$u20$as$u20$core..fmt..Debug$GT$3fmt17h8fce807ba385b30bE', symObjAddr: 0x0, symBinAddr: 0x1D140, symSize: 0x20 }
  - { offset: 0x3E1E7, size: 0x8, addend: 0x0, symName: '__ZN42_$LT$$RF$T$u20$as$u20$core..fmt..Debug$GT$3fmt17h8fce807ba385b30bE', symObjAddr: 0x0, symBinAddr: 0x1D140, symSize: 0x20 }
  - { offset: 0x3E57A, size: 0x8, addend: 0x0, symName: __ZN4core3fmt9Arguments3new17h9d7364947232660fE, symObjAddr: 0x20, symBinAddr: 0x1D160, symSize: 0x20 }
  - { offset: 0x3E5C6, size: 0x8, addend: 0x0, symName: __ZN4core3fmt9Arguments3new17hb9f2f8df8a4a268cE, symObjAddr: 0x40, symBinAddr: 0x1D180, symSize: 0x14 }
  - { offset: 0x3E637, size: 0x8, addend: 0x0, symName: '__ZN69_$LT$pyo3..types..dict..PyDict$u20$as$u20$core..ops..deref..Deref$GT$5deref17h99e3b4c7b1e8ec2dE', symObjAddr: 0x0, symBinAddr: 0x1D1A0, symSize: 0x10 }
  - { offset: 0x3E6BF, size: 0x8, addend: 0x0, symName: '__ZN69_$LT$pyo3..types..dict..PyDict$u20$as$u20$core..ops..deref..Deref$GT$5deref17h99e3b4c7b1e8ec2dE', symObjAddr: 0x0, symBinAddr: 0x1D1A0, symSize: 0x10 }
  - { offset: 0x3E6F1, size: 0x8, addend: 0x0, symName: '__ZN74_$LT$pyo3..types..dict..PyDict$u20$as$u20$pyo3..conversion..ToPyObject$GT$9to_object17he8760411b286a140E', symObjAddr: 0x10, symBinAddr: 0x1D1B0, symSize: 0x30 }
  - { offset: 0x3E73C, size: 0x8, addend: 0x0, symName: '__ZN75_$LT$pyo3..types..dict..PyDict$u20$as$u20$pyo3..conversion..AsPyPointer$GT$6as_ptr17h960601fd328817efE', symObjAddr: 0x40, symBinAddr: 0x1D1E0, symSize: 0x20 }
  - { offset: 0x3E76E, size: 0x8, addend: 0x0, symName: '__ZN92_$LT$pyo3..types..dict..PyDictIterator$u20$as$u20$core..iter..traits..iterator..Iterator$GT$4next17h0219632a2e8869a2E', symObjAddr: 0x60, symBinAddr: 0x1D200, symSize: 0xED }
  - { offset: 0x3EB5E, size: 0x8, addend: 0x0, symName: __ZN4core4iter6traits8iterator8Iterator4take17h836aa068c32f5ac6E, symObjAddr: 0x0, symBinAddr: 0x1D2F0, symSize: 0x30 }
  - { offset: 0x3EC44, size: 0x8, addend: 0x0, symName: __ZN4core4iter6traits8iterator8Iterator4take17h836aa068c32f5ac6E, symObjAddr: 0x0, symBinAddr: 0x1D2F0, symSize: 0x30 }
  - { offset: 0x3EE77, size: 0x8, addend: 0x0, symName: '__ZN4pyo35types5tuple129_$LT$impl$u20$pyo3..conversion..IntoPy$LT$pyo3..instance..Py$LT$pyo3..types..tuple..PyTuple$GT$$GT$$u20$for$u20$$LP$T0$C$$RP$$GT$7into_py17h6b042add096dd5aeE', symObjAddr: 0x80, symBinAddr: 0x1D370, symSize: 0x30 }
  - { offset: 0x3EEF1, size: 0x8, addend: 0x0, symName: __ZN4pyo310conversion13FromPyPointer17from_borrowed_ptr17hb0a710feb0073256E, symObjAddr: 0x30, symBinAddr: 0x1D320, symSize: 0x20 }
  - { offset: 0x3EF43, size: 0x8, addend: 0x0, symName: __ZN4pyo310conversion13FromPyPointer26from_borrowed_ptr_or_panic17h9315408d5b556237E, symObjAddr: 0x50, symBinAddr: 0x1D340, symSize: 0x30 }
  - { offset: 0x3EF9B, size: 0x8, addend: 0x0, symName: '__ZN53_$LT$T$u20$as$u20$pyo3..conversion..FromPyPointer$GT$24from_borrowed_ptr_or_opt17hce2db05c8d8716b8E', symObjAddr: 0xB0, symBinAddr: 0x1D3A0, symSize: 0x1F }
  - { offset: 0x3F181, size: 0x8, addend: 0x0, symName: __ZN10tachyon_rs10tachyon_rs17h2da9ff0d83a2a222E, symObjAddr: 0x0, symBinAddr: 0x1D3C0, symSize: 0x253 }
  - { offset: 0x3F1FA, size: 0x8, addend: 0x0, symName: __ZN10tachyon_rs10tachyon_rs17h2da9ff0d83a2a222E, symObjAddr: 0x0, symBinAddr: 0x1D3C0, symSize: 0x253 }
  - { offset: 0x3F9E5, size: 0x8, addend: 0x0, symName: '__ZN42_$LT$$RF$T$u20$as$u20$core..fmt..Debug$GT$3fmt17hefe1d6008cddbdfbE', symObjAddr: 0x0, symBinAddr: 0x1D620, symSize: 0x20 }
  - { offset: 0x3FA1F, size: 0x8, addend: 0x0, symName: '__ZN42_$LT$$RF$T$u20$as$u20$core..fmt..Debug$GT$3fmt17hefe1d6008cddbdfbE', symObjAddr: 0x0, symBinAddr: 0x1D620, symSize: 0x20 }
  - { offset: 0x3FAFA, size: 0x8, addend: 0x0, symName: '__ZN50_$LT$$BP$mut$u20$T$u20$as$u20$core..fmt..Debug$GT$3fmt17hacf353aa477d5151E', symObjAddr: 0x20, symBinAddr: 0x1D640, symSize: 0x28 }
  - { offset: 0x3FCB3, size: 0x8, addend: 0x0, symName: '__ZN96_$LT$pyo3..pycell..impl_..BorrowChecker$u20$as$u20$pyo3..pycell..impl_..PyClassBorrowChecker$GT$3new17he6d9a506e4de5e41E', symObjAddr: 0x0, symBinAddr: 0x1D670, symSize: 0xF }
  - { offset: 0x3FCD4, size: 0x8, addend: 0x0, symName: '__ZN96_$LT$pyo3..pycell..impl_..BorrowChecker$u20$as$u20$pyo3..pycell..impl_..PyClassBorrowChecker$GT$3new17he6d9a506e4de5e41E', symObjAddr: 0x0, symBinAddr: 0x1D670, symSize: 0xF }
  - { offset: 0x3FD8C, size: 0x8, addend: 0x0, symName: '__ZN52_$LT$Q$u20$as$u20$hashbrown..Equivalent$LT$K$GT$$GT$10equivalent17h35173dc5d616934aE', symObjAddr: 0x0, symBinAddr: 0x1D680, symSize: 0x38 }
  - { offset: 0x3FE1F, size: 0x8, addend: 0x0, symName: '__ZN52_$LT$Q$u20$as$u20$hashbrown..Equivalent$LT$K$GT$$GT$10equivalent17h35173dc5d616934aE', symObjAddr: 0x0, symBinAddr: 0x1D680, symSize: 0x38 }
  - { offset: 0x3FE9F, size: 0x8, addend: 0x0, symName: '__ZN56_$LT$T$u20$as$u20$pyo3..impl_..wrap..OkWrap$LT$T$GT$$GT$4wrap17hd21f9f2c0f7aafc1E', symObjAddr: 0x0, symBinAddr: 0x1D6C0, symSize: 0x40 }
  - { offset: 0x3FF27, size: 0x8, addend: 0x0, symName: '__ZN56_$LT$T$u20$as$u20$pyo3..impl_..wrap..OkWrap$LT$T$GT$$GT$4wrap17hd21f9f2c0f7aafc1E', symObjAddr: 0x0, symBinAddr: 0x1D6C0, symSize: 0x40 }
  - { offset: 0x3FF80, size: 0x8, addend: 0x0, symName: '__ZN88_$LT$core..result..Result$LT$T$C$E$GT$$u20$as$u20$pyo3..impl_..wrap..OkWrap$LT$T$GT$$GT$4wrap28_$u7b$$u7b$closure$u7d$$u7d$17h15885260c93d9035E', symObjAddr: 0x40, symBinAddr: 0x1D700, symSize: 0x30 }
  - { offset: 0x3FFD7, size: 0x8, addend: 0x0, symName: '__ZN88_$LT$core..result..Result$LT$T$C$E$GT$$u20$as$u20$pyo3..impl_..wrap..OkWrap$LT$T$GT$$GT$4wrap28_$u7b$$u7b$closure$u7d$$u7d$17hcff495e4ddbfaaffE', symObjAddr: 0x70, symBinAddr: 0x1D730, symSize: 0x40 }
  - { offset: 0x4002F, size: 0x8, addend: 0x0, symName: '__ZN88_$LT$core..result..Result$LT$T$C$E$GT$$u20$as$u20$pyo3..impl_..wrap..OkWrap$LT$T$GT$$GT$4wrap28_$u7b$$u7b$closure$u7d$$u7d$17hd3ea69bfd0aa8c36E', symObjAddr: 0xB0, symBinAddr: 0x1D770, symSize: 0x17 }
  - { offset: 0x408BE, size: 0x8, addend: 0x0, symName: __ZN4pyo35types3any5PyAny2py17h48a1e3158c428efaE, symObjAddr: 0x0, symBinAddr: 0x1D790, symSize: 0x20 }
  - { offset: 0x40999, size: 0x8, addend: 0x0, symName: '__ZN72_$LT$pyo3..types..any..PyAny$u20$as$u20$pyo3..conversion..ToPyObject$GT$9to_object17hb61dd236afdff270E', symObjAddr: 0x70, symBinAddr: 0x1D800, symSize: 0x20 }
  - { offset: 0x409E4, size: 0x8, addend: 0x0, symName: '__ZN73_$LT$pyo3..types..any..PyAny$u20$as$u20$pyo3..conversion..AsPyPointer$GT$6as_ptr17h1ac6ed93652b0251E', symObjAddr: 0x90, symBinAddr: 0x1D820, symSize: 0x20 }
  - { offset: 0x40A16, size: 0x8, addend: 0x0, symName: '__ZN73_$LT$pyo3..types..any..PyAny$u20$as$u20$pyo3..type_object..PyTypeInfo$GT$15type_object_raw17h8b7292abaa01772cE', symObjAddr: 0xB0, symBinAddr: 0x1D840, symSize: 0x18 }
  - { offset: 0x40C63, size: 0x8, addend: 0x0, symName: __ZN4pyo35types3any5PyAny2py17h48a1e3158c428efaE, symObjAddr: 0x0, symBinAddr: 0x1D790, symSize: 0x20 }
  - { offset: 0x40C93, size: 0x8, addend: 0x0, symName: __ZN4pyo35types3any5PyAny6as_ptr17hbd12b2c8d598efd0E, symObjAddr: 0x20, symBinAddr: 0x1D7B0, symSize: 0x10 }
  - { offset: 0x40CBD, size: 0x8, addend: 0x0, symName: __ZN4pyo35types3any5PyAny7is_none17h4a763bc5995a8cc9E, symObjAddr: 0x30, symBinAddr: 0x1D7C0, symSize: 0x40 }
  - { offset: 0x40D51, size: 0x8, addend: 0x0, symName: __ZN4core4iter6traits8iterator8Iterator3map17h05681bc80673b650E, symObjAddr: 0x0, symBinAddr: 0x1D860, symSize: 0x10 }
  - { offset: 0x40E1D, size: 0x8, addend: 0x0, symName: __ZN4core4iter6traits8iterator8Iterator3map17h05681bc80673b650E, symObjAddr: 0x0, symBinAddr: 0x1D860, symSize: 0x10 }
  - { offset: 0x40E75, size: 0x8, addend: 0x0, symName: __ZN4core4iter6traits8iterator8Iterator3map17h5513ac24061519c8E, symObjAddr: 0x10, symBinAddr: 0x1D870, symSize: 0x10 }
  - { offset: 0x40ECD, size: 0x8, addend: 0x0, symName: __ZN4core4iter6traits8iterator8Iterator3map17h5c558e8009c8e20eE, symObjAddr: 0x20, symBinAddr: 0x1D880, symSize: 0x10 }
  - { offset: 0x40F25, size: 0x8, addend: 0x0, symName: __ZN4core4iter6traits8iterator8Iterator8try_fold17h810039defa7990e4E, symObjAddr: 0x30, symBinAddr: 0x1D890, symSize: 0x130 }
  - { offset: 0x40FD9, size: 0x8, addend: 0x0, symName: __ZN4core4iter6traits8iterator8Iterator8try_fold17he70edb40ef08e837E, symObjAddr: 0x160, symBinAddr: 0x1D9C0, symSize: 0x130 }
  - { offset: 0x4108D, size: 0x8, addend: 0x0, symName: __ZN4core4iter6traits8iterator8Iterator8try_fold17hf0a5f4addc21d9f1E, symObjAddr: 0x290, symBinAddr: 0x1DAF0, symSize: 0x130 }
  - { offset: 0x41141, size: 0x8, addend: 0x0, symName: __ZN4core4iter6traits8iterator8Iterator9size_hint17h416c7049303705a2E, symObjAddr: 0x3C0, symBinAddr: 0x1DC20, symSize: 0x30 }
  - { offset: 0x41176, size: 0x8, addend: 0x0, symName: __ZN4core4iter6traits8iterator8Iterator9size_hint17h5703fb7bfbb6d735E, symObjAddr: 0x3F0, symBinAddr: 0x1DC50, symSize: 0x30 }
  - { offset: 0x411AB, size: 0x8, addend: 0x0, symName: __ZN4core4iter6traits8iterator8Iterator9size_hint17hb0eb0199f66b1069E, symObjAddr: 0x420, symBinAddr: 0x1DC80, symSize: 0x30 }
  - { offset: 0x41A23, size: 0x8, addend: 0x0, symName: '__ZN86_$LT$inventory.._..Iter$LT$T$GT$$u20$as$u20$core..iter..traits..iterator..Iterator$GT$4next17h15ccf92df98c1ab3E', symObjAddr: 0x450, symBinAddr: 0x1DCB0, symSize: 0x90 }
  - { offset: 0x41AB4, size: 0x8, addend: 0x0, symName: '__ZN86_$LT$inventory.._..Iter$LT$T$GT$$u20$as$u20$core..iter..traits..iterator..Iterator$GT$4next17he16530cb8d4f5e98E', symObjAddr: 0x4E0, symBinAddr: 0x1DD40, symSize: 0x90 }
  - { offset: 0x41B45, size: 0x8, addend: 0x0, symName: '__ZN86_$LT$inventory.._..Iter$LT$T$GT$$u20$as$u20$core..iter..traits..iterator..Iterator$GT$4next17he6ac1df9945ab1beE', symObjAddr: 0x570, symBinAddr: 0x1DDD0, symSize: 0x90 }
  - { offset: 0x41BD7, size: 0x8, addend: 0x0, symName: __ZN9inventory1_9into_iter17h2743cdac9c5ab873E, symObjAddr: 0x600, symBinAddr: 0x1DE60, symSize: 0x30 }
  - { offset: 0x41C1D, size: 0x8, addend: 0x0, symName: __ZN9inventory1_9into_iter17hbf1751e4ba7bbecdE, symObjAddr: 0x630, symBinAddr: 0x1DE90, symSize: 0x30 }
  - { offset: 0x41C63, size: 0x8, addend: 0x0, symName: __ZN9inventory1_9into_iter17hf3d036b88dea6e85E, symObjAddr: 0x660, symBinAddr: 0x1DEC0, symSize: 0x2C }
  - { offset: 0x42643, size: 0x8, addend: 0x0, symName: '__ZN4core4cell13Cell$LT$T$GT$3new17h934e96712baaf94eE', symObjAddr: 0x0, symBinAddr: 0x1DEF0, symSize: 0xD }
  - { offset: 0x426E5, size: 0x8, addend: 0x0, symName: '__ZN4core4cell13Cell$LT$T$GT$3new17h934e96712baaf94eE', symObjAddr: 0x0, symBinAddr: 0x1DEF0, symSize: 0xD }
  - { offset: 0x4272F, size: 0x8, addend: 0x0, symName: '__ZN51_$LT$T$u20$as$u20$core..borrow..Borrow$LT$T$GT$$GT$6borrow17hdc00ccfc4527cfdfE', symObjAddr: 0x0, symBinAddr: 0x1DF00, symSize: 0xD }
  - { offset: 0x4274B, size: 0x8, addend: 0x0, symName: '__ZN51_$LT$T$u20$as$u20$core..borrow..Borrow$LT$T$GT$$GT$6borrow17hdc00ccfc4527cfdfE', symObjAddr: 0x0, symBinAddr: 0x1DF00, symSize: 0xD }
  - { offset: 0x427B5, size: 0x8, addend: 0x0, symName: __ZN9hashbrown3raw11TableLayout20calculate_layout_for17ha1d1a07586c22313E, symObjAddr: 0x0, symBinAddr: 0x1DF10, symSize: 0x2F0 }
  - { offset: 0x43E7E, size: 0x8, addend: 0x0, symName: __ZN9hashbrown3raw11TableLayout20calculate_layout_for17ha1d1a07586c22313E, symObjAddr: 0x0, symBinAddr: 0x1DF10, symSize: 0x2F0 }
  - { offset: 0x44354, size: 0x8, addend: 0x0, symName: __ZN9hashbrown3raw13RawTableInner15rehash_in_place17hccfd0acd36817e69E, symObjAddr: 0x2F0, symBinAddr: 0x1E200, symSize: 0x480 }
  - { offset: 0x44BB4, size: 0x8, addend: 0x0, symName: __ZN9hashbrown3raw13RawTableInner16fix_insert_index17h555daff11d510512E, symObjAddr: 0x770, symBinAddr: 0x1E680, symSize: 0x100 }
  - { offset: 0x44E39, size: 0x8, addend: 0x0, symName: __ZN9hashbrown3raw13RawTableInner17find_insert_index17h374375213bf1e9e4E, symObjAddr: 0x870, symBinAddr: 0x1E780, symSize: 0xF0 }
  - { offset: 0x45159, size: 0x8, addend: 0x0, symName: __ZN9hashbrown3raw13RawTableInner23prepare_rehash_in_place17h80c30e0b9b27cb69E, symObjAddr: 0x960, symBinAddr: 0x1E870, symSize: 0x290 }
  - { offset: 0x45780, size: 0x8, addend: 0x0, symName: __ZN9hashbrown3raw13RawTableInner26find_insert_index_in_group17h98e6e781e44c1bf3E, symObjAddr: 0xBF0, symBinAddr: 0x1EB00, symSize: 0x110 }
  - { offset: 0x45AA4, size: 0x8, addend: 0x0, symName: __ZN9hashbrown3raw13RawTableInner31find_or_find_insert_index_inner17ha6b4e82b9eb9ea93E, symObjAddr: 0xD00, symBinAddr: 0x1EC10, symSize: 0x3E0 }
  - { offset: 0x45FA2, size: 0x8, addend: 0x0, symName: __ZN9hashbrown3raw13RawTableInner5erase17hf9dd41a2e6e791b5E, symObjAddr: 0x10E0, symBinAddr: 0x1EFF0, symSize: 0x22E }
  - { offset: 0x462D7, size: 0x8, addend: 0x0, symName: __ZN4pyo35impl_5panic9PanicTrap3new17h9456cecf0b2023aaE, symObjAddr: 0x0, symBinAddr: 0x1F220, symSize: 0x20 }
  - { offset: 0x46366, size: 0x8, addend: 0x0, symName: __ZN4pyo35impl_5panic9PanicTrap3new17h9456cecf0b2023aaE, symObjAddr: 0x0, symBinAddr: 0x1F220, symSize: 0x20 }
  - { offset: 0x46388, size: 0x8, addend: 0x0, symName: __ZN4pyo35impl_5panic9PanicTrap6disarm17h1e221daad4131d48E, symObjAddr: 0x20, symBinAddr: 0x1F240, symSize: 0x1B }
  - { offset: 0x463C8, size: 0x8, addend: 0x0, symName: __ZN4pyo35types4list6PyList3new17h178c86720a98cc67E, symObjAddr: 0x0, symBinAddr: 0x1F260, symSize: 0xF0 }
  - { offset: 0x469AE, size: 0x8, addend: 0x0, symName: '__ZN4pyo35types4list6PyList3new28_$u7b$$u7b$closure$u7d$$u7d$17h063bf07b81df287bE', symObjAddr: 0x1E0, symBinAddr: 0x1F440, symSize: 0x60 }
  - { offset: 0x46A0E, size: 0x8, addend: 0x0, symName: '__ZN4pyo35types4list6PyList3new28_$u7b$$u7b$closure$u7d$$u7d$17hab5fb871ba3de801E', symObjAddr: 0x240, symBinAddr: 0x1F4A0, symSize: 0x59 }
  - { offset: 0x46CAB, size: 0x8, addend: 0x0, symName: __ZN4pyo35types4list6PyList3new17h178c86720a98cc67E, symObjAddr: 0x0, symBinAddr: 0x1F260, symSize: 0xF0 }
  - { offset: 0x46D37, size: 0x8, addend: 0x0, symName: __ZN4pyo35types4list6PyList3new17h738593a0eac04dc4E, symObjAddr: 0xF0, symBinAddr: 0x1F350, symSize: 0xF0 }
  - { offset: 0x46DFB, size: 0x8, addend: 0x0, symName: '__ZN71_$LT$std..hash..random..DefaultHasher$u20$as$u20$core..hash..Hasher$GT$5write17h278ed69d4ee519b1E', symObjAddr: 0x0, symBinAddr: 0x1F500, symSize: 0x20 }
  - { offset: 0x46FF0, size: 0x8, addend: 0x0, symName: '__ZN71_$LT$std..hash..random..DefaultHasher$u20$as$u20$core..hash..Hasher$GT$5write17h278ed69d4ee519b1E', symObjAddr: 0x0, symBinAddr: 0x1F500, symSize: 0x20 }
  - { offset: 0x4704A, size: 0x8, addend: 0x0, symName: '__ZN71_$LT$std..hash..random..DefaultHasher$u20$as$u20$core..hash..Hasher$GT$6finish17h40b0eff41d3be01fE', symObjAddr: 0x20, symBinAddr: 0x1F520, symSize: 0x20 }
  - { offset: 0x47092, size: 0x8, addend: 0x0, symName: '__ZN71_$LT$std..hash..random..DefaultHasher$u20$as$u20$core..hash..Hasher$GT$9write_str17h8f8aa466b53dd444E', symObjAddr: 0x40, symBinAddr: 0x1F540, symSize: 0x20 }
  - { offset: 0x47122, size: 0x8, addend: 0x0, symName: '__ZN73_$LT$std..hash..random..RandomState$u20$as$u20$core..default..Default$GT$7default17hc098eb60955aaa10E', symObjAddr: 0x60, symBinAddr: 0x1F560, symSize: 0x20 }
  - { offset: 0x4715A, size: 0x8, addend: 0x0, symName: '__ZN74_$LT$std..hash..random..RandomState$u20$as$u20$core..hash..BuildHasher$GT$12build_hasher17h5976f3e26087e072E', symObjAddr: 0x80, symBinAddr: 0x1F580, symSize: 0xEA }
  - { offset: 0x472CB, size: 0x8, addend: 0x0, symName: __ZN4core3mem6forget17h27d46931be900d17E, symObjAddr: 0x0, symBinAddr: 0x1F670, symSize: 0x10 }
  - { offset: 0x472E2, size: 0x8, addend: 0x0, symName: __ZN4core3mem6forget17h27d46931be900d17E, symObjAddr: 0x0, symBinAddr: 0x1F670, symSize: 0x10 }
  - { offset: 0x47313, size: 0x8, addend: 0x0, symName: __ZN4core3mem6forget17h386363d7a07e0315E, symObjAddr: 0x10, symBinAddr: 0x1F680, symSize: 0x10 }
  - { offset: 0x47344, size: 0x8, addend: 0x0, symName: __ZN4core3mem6forget17h3afa28c6a9aa06a6E, symObjAddr: 0x20, symBinAddr: 0x1F690, symSize: 0x10 }
  - { offset: 0x47375, size: 0x8, addend: 0x0, symName: __ZN4core3mem6forget17ha78609e893ce83ceE, symObjAddr: 0x30, symBinAddr: 0x1F6A0, symSize: 0x10 }
  - { offset: 0x473A6, size: 0x8, addend: 0x0, symName: __ZN4core3mem6forget17hc14c26da35a4abddE, symObjAddr: 0x40, symBinAddr: 0x1F6B0, symSize: 0xA }
  - { offset: 0x47F41, size: 0x8, addend: 0x0, symName: __ZN5alloc5alloc15exchange_malloc17hdb21b1cf09a02342E, symObjAddr: 0x0, symBinAddr: 0x1F6C0, symSize: 0xA0 }
  - { offset: 0x488C4, size: 0x8, addend: 0x0, symName: '__ZN63_$LT$alloc..alloc..Global$u20$as$u20$core..alloc..Allocator$GT$10deallocate17h645809410a1ff836E', symObjAddr: 0x290, symBinAddr: 0x1F950, symSize: 0x47 }
  - { offset: 0x48979, size: 0x8, addend: 0x0, symName: __ZN5alloc5alloc15exchange_malloc17hdb21b1cf09a02342E, symObjAddr: 0x0, symBinAddr: 0x1F6C0, symSize: 0xA0 }
  - { offset: 0x48C80, size: 0x8, addend: 0x0, symName: __ZN5alloc5alloc6Global10alloc_impl17he74d953ba5347997E, symObjAddr: 0xA0, symBinAddr: 0x1F760, symSize: 0x1F0 }
  - { offset: 0x4903E, size: 0x8, addend: 0x0, symName: '__ZN4core5slice29_$LT$impl$u20$$u5b$T$u5d$$GT$12split_at_mut17h4688dd3f9b105ab6E', symObjAddr: 0x0, symBinAddr: 0x1F9A0, symSize: 0xE0 }
  - { offset: 0x4908D, size: 0x8, addend: 0x0, symName: '__ZN4core5slice29_$LT$impl$u20$$u5b$T$u5d$$GT$12split_at_mut17h4688dd3f9b105ab6E', symObjAddr: 0x0, symBinAddr: 0x1F9A0, symSize: 0xE0 }
  - { offset: 0x49118, size: 0x8, addend: 0x0, symName: '__ZN4core5slice29_$LT$impl$u20$$u5b$T$u5d$$GT$22split_at_mut_unchecked17h94d8213ffc37c5faE', symObjAddr: 0xE0, symBinAddr: 0x1FA80, symSize: 0x110 }
  - { offset: 0x4926C, size: 0x8, addend: 0x0, symName: '__ZN4core5slice29_$LT$impl$u20$$u5b$T$u5d$$GT$4iter17hbd0f7f638b3b9532E', symObjAddr: 0x1F0, symBinAddr: 0x1FB90, symSize: 0x20 }
  - { offset: 0x492A3, size: 0x8, addend: 0x0, symName: '__ZN4core5slice29_$LT$impl$u20$$u5b$T$u5d$$GT$5first17hc07d5aa71a88c706E', symObjAddr: 0x210, symBinAddr: 0x1FBB0, symSize: 0x40 }
  - { offset: 0x4933B, size: 0x8, addend: 0x0, symName: '__ZN4core5slice29_$LT$impl$u20$$u5b$T$u5d$$GT$7reverse17hc3b55e9896ca2d83E', symObjAddr: 0x250, symBinAddr: 0x1FBF0, symSize: 0x100 }
  - { offset: 0x494F5, size: 0x8, addend: 0x0, symName: '__ZN4core5slice29_$LT$impl$u20$$u5b$T$u5d$$GT$7reverse7revswap17hc019c3e112de2956E', symObjAddr: 0x350, symBinAddr: 0x1FCF0, symSize: 0x1C5 }
  - { offset: 0x499EC, size: 0x8, addend: 0x0, symName: '__ZN10tachyon_rs10tachyon_rs4init28_$u7b$$u7b$closure$u7d$$u7d$17h62e157f18a434f90E', symObjAddr: 0x0, symBinAddr: 0x1FEC0, symSize: 0x29 }
  - { offset: 0x49A6F, size: 0x8, addend: 0x0, symName: '__ZN10tachyon_rs10tachyon_rs4init28_$u7b$$u7b$closure$u7d$$u7d$17h62e157f18a434f90E', symObjAddr: 0x0, symBinAddr: 0x1FEC0, symSize: 0x29 }
  - { offset: 0x4A1B4, size: 0x8, addend: 0x0, symName: '__ZN4pyo311conversions3std6string125_$LT$impl$u20$pyo3..conversion..IntoPy$LT$pyo3..instance..Py$LT$pyo3..types..string..PyString$GT$$GT$$u20$for$u20$$RF$str$GT$7into_py17h450ae882dde7be98E', symObjAddr: 0x0, symBinAddr: 0x1FEF0, symSize: 0x2A }
  - { offset: 0x4A241, size: 0x8, addend: 0x0, symName: '__ZN4pyo311conversions3std6string125_$LT$impl$u20$pyo3..conversion..IntoPy$LT$pyo3..instance..Py$LT$pyo3..types..string..PyString$GT$$GT$$u20$for$u20$$RF$str$GT$7into_py17h450ae882dde7be98E', symObjAddr: 0x0, symBinAddr: 0x1FEF0, symSize: 0x2A }
  - { offset: 0x4A564, size: 0x8, addend: 0x0, symName: '__ZN4core5slice29_$LT$impl$u20$$u5b$T$u5d$$GT$22split_at_mut_unchecked18precondition_check17h4fe5e2c5dd400ec3E', symObjAddr: 0x0, symBinAddr: 0x1FF20, symSize: 0x49 }
  - { offset: 0x4A585, size: 0x8, addend: 0x0, symName: '__ZN4core5slice29_$LT$impl$u20$$u5b$T$u5d$$GT$22split_at_mut_unchecked18precondition_check17h4fe5e2c5dd400ec3E', symObjAddr: 0x0, symBinAddr: 0x1FF20, symSize: 0x49 }
  - { offset: 0x4A62F, size: 0x8, addend: 0x0, symName: '__ZN112_$LT$pyo3..pycell..PyRef$LT$T$GT$$u20$as$u20$core..convert..TryFrom$LT$$RF$pyo3..pycell..PyCell$LT$T$GT$$GT$$GT$8try_from17he41e7d266744a153E', symObjAddr: 0x0, symBinAddr: 0x1FF70, symSize: 0x20 }
  - { offset: 0x4A6B2, size: 0x8, addend: 0x0, symName: '__ZN112_$LT$pyo3..pycell..PyRef$LT$T$GT$$u20$as$u20$core..convert..TryFrom$LT$$RF$pyo3..pycell..PyCell$LT$T$GT$$GT$$GT$8try_from17he41e7d266744a153E', symObjAddr: 0x0, symBinAddr: 0x1FF70, symSize: 0x20 }
  - { offset: 0x4AAA8, size: 0x8, addend: 0x0, symName: '__ZN4pyo36pycell15PyCell$LT$T$GT$10try_borrow28_$u7b$$u7b$closure$u7d$$u7d$17h3a89cf0027844ea5E', symObjAddr: 0x100, symBinAddr: 0x20070, symSize: 0x10 }
  - { offset: 0x4AAEC, size: 0x8, addend: 0x0, symName: '__ZN4pyo36pycell15PyCell$LT$T$GT$10try_borrow28_$u7b$$u7b$closure$u7d$$u7d$17h941cf932874c57ceE', symObjAddr: 0x110, symBinAddr: 0x20080, symSize: 0x10 }
  - { offset: 0x4AB30, size: 0x8, addend: 0x0, symName: '__ZN4pyo36pycell15PyCell$LT$T$GT$10try_borrow28_$u7b$$u7b$closure$u7d$$u7d$17hd86f3e8561207dddE', symObjAddr: 0x120, symBinAddr: 0x20090, symSize: 0x10 }
  - { offset: 0x4AB7A, size: 0x8, addend: 0x0, symName: '__ZN4pyo36pycell15PyCell$LT$T$GT$14try_borrow_mut28_$u7b$$u7b$closure$u7d$$u7d$17h1a187204a7bac223E', symObjAddr: 0x250, symBinAddr: 0x201C0, symSize: 0x10 }
  - { offset: 0x4ABBE, size: 0x8, addend: 0x0, symName: '__ZN4pyo36pycell15PyCell$LT$T$GT$14try_borrow_mut28_$u7b$$u7b$closure$u7d$$u7d$17h615bb292b24bd7abE', symObjAddr: 0x260, symBinAddr: 0x201D0, symSize: 0x10 }
  - { offset: 0x4AC02, size: 0x8, addend: 0x0, symName: '__ZN4pyo36pycell15PyCell$LT$T$GT$14try_borrow_mut28_$u7b$$u7b$closure$u7d$$u7d$17h9be53b5b5c5e1dd0E', symObjAddr: 0x270, symBinAddr: 0x201E0, symSize: 0x10 }
  - { offset: 0x4ACBC, size: 0x8, addend: 0x0, symName: '__ZN72_$LT$pyo3..pycell..PyRef$LT$T$GT$$u20$as$u20$core..ops..deref..Deref$GT$5deref17h30a93179b4621273E', symObjAddr: 0x460, symBinAddr: 0x203D0, symSize: 0x70 }
  - { offset: 0x4ACF3, size: 0x8, addend: 0x0, symName: '__ZN72_$LT$pyo3..pycell..PyRef$LT$T$GT$$u20$as$u20$core..ops..deref..Deref$GT$5deref17h4f6232c29fde8fd5E', symObjAddr: 0x4D0, symBinAddr: 0x20440, symSize: 0x70 }
  - { offset: 0x4AD2A, size: 0x8, addend: 0x0, symName: '__ZN72_$LT$pyo3..pycell..PyRef$LT$T$GT$$u20$as$u20$core..ops..deref..Deref$GT$5deref17hb6aecbb9fa24472fE', symObjAddr: 0x540, symBinAddr: 0x204B0, symSize: 0x70 }
  - { offset: 0x4AD67, size: 0x8, addend: 0x0, symName: '__ZN78_$LT$pyo3..pycell..PyRefMut$LT$T$GT$$u20$as$u20$core..ops..deref..DerefMut$GT$9deref_mut17h652c14d584dd336eE', symObjAddr: 0x850, symBinAddr: 0x207C0, symSize: 0x70 }
  - { offset: 0x4AD9E, size: 0x8, addend: 0x0, symName: '__ZN78_$LT$pyo3..pycell..PyRefMut$LT$T$GT$$u20$as$u20$core..ops..deref..DerefMut$GT$9deref_mut17hb92b5d66c8650037E', symObjAddr: 0x8C0, symBinAddr: 0x20830, symSize: 0x70 }
  - { offset: 0x4ADD5, size: 0x8, addend: 0x0, symName: '__ZN78_$LT$pyo3..pycell..PyRefMut$LT$T$GT$$u20$as$u20$core..ops..deref..DerefMut$GT$9deref_mut17he11f1ec698e280a5E', symObjAddr: 0x930, symBinAddr: 0x208A0, symSize: 0x70 }
  - { offset: 0x4AE12, size: 0x8, addend: 0x0, symName: '__ZN79_$LT$pyo3..pycell..PyCell$LT$T$GT$$u20$as$u20$pyo3..conversion..AsPyPointer$GT$6as_ptr17h37ac8e1a27088252E', symObjAddr: 0x9A0, symBinAddr: 0x20910, symSize: 0x10 }
  - { offset: 0x4AE4F, size: 0x8, addend: 0x0, symName: '__ZN85_$LT$pyo3..pycell..PyCell$LT$T$GT$$u20$as$u20$pyo3..pycell..PyCellLayout$LT$T$GT$$GT$10tp_dealloc17h20760544d64faadaE', symObjAddr: 0xF90, symBinAddr: 0x20F00, symSize: 0xC0 }
  - { offset: 0x4AEB3, size: 0x8, addend: 0x0, symName: '__ZN85_$LT$pyo3..pycell..PyCell$LT$T$GT$$u20$as$u20$pyo3..pycell..PyCellLayout$LT$T$GT$$GT$10tp_dealloc17h3b8d606bce0c32c2E', symObjAddr: 0x1050, symBinAddr: 0x20FC0, symSize: 0xB0 }
  - { offset: 0x4AF17, size: 0x8, addend: 0x0, symName: '__ZN85_$LT$pyo3..pycell..PyCell$LT$T$GT$$u20$as$u20$pyo3..pycell..PyCellLayout$LT$T$GT$$GT$10tp_dealloc17he450b94b8cd7a792E', symObjAddr: 0x1100, symBinAddr: 0x21070, symSize: 0xB0 }
  - { offset: 0x4AF7B, size: 0x8, addend: 0x0, symName: '__ZN85_$LT$pyo3..pycell..PyCell$LT$T$GT$$u20$as$u20$pyo3..pycell..PyCellLayout$LT$T$GT$$GT$17ensure_threadsafe17h7437ade2f958098cE', symObjAddr: 0x11B0, symBinAddr: 0x21120, symSize: 0x30 }
  - { offset: 0x4AFAE, size: 0x8, addend: 0x0, symName: '__ZN85_$LT$pyo3..pycell..PyCell$LT$T$GT$$u20$as$u20$pyo3..pycell..PyCellLayout$LT$T$GT$$GT$17ensure_threadsafe17hdc07ae420a0eba71E', symObjAddr: 0x11E0, symBinAddr: 0x21150, symSize: 0x30 }
  - { offset: 0x4AFE1, size: 0x8, addend: 0x0, symName: '__ZN85_$LT$pyo3..pycell..PyCell$LT$T$GT$$u20$as$u20$pyo3..pycell..PyCellLayout$LT$T$GT$$GT$17ensure_threadsafe17he635771c9ec35822E', symObjAddr: 0x1210, symBinAddr: 0x21180, symSize: 0x30 }
  - { offset: 0x4B01A, size: 0x8, addend: 0x0, symName: '__ZN89_$LT$pyo3..pycell..PyCellBase$LT$U$GT$$u20$as$u20$pyo3..pycell..PyCellLayout$LT$T$GT$$GT$10tp_dealloc17hf79ab52c1c56b1a4E', symObjAddr: 0x1240, symBinAddr: 0x211B0, symSize: 0x70 }
  - { offset: 0x4B08F, size: 0x8, addend: 0x0, symName: '__ZN89_$LT$pyo3..pycell..PyCellBase$LT$U$GT$$u20$as$u20$pyo3..pycell..PyCellLayout$LT$T$GT$$GT$17ensure_threadsafe17hceae41633adf1869E', symObjAddr: 0x12B0, symBinAddr: 0x21220, symSize: 0xA }
  - { offset: 0x4B12B, size: 0x8, addend: 0x0, symName: __ZN4pyo38instance12PyNativeType18unchecked_downcast17h045bc13e36794eaaE, symObjAddr: 0x2E0, symBinAddr: 0x20250, symSize: 0x60 }
  - { offset: 0x4B160, size: 0x8, addend: 0x0, symName: __ZN4pyo38instance12PyNativeType18unchecked_downcast17h839647b6428fcb73E, symObjAddr: 0x340, symBinAddr: 0x202B0, symSize: 0x60 }
  - { offset: 0x4B195, size: 0x8, addend: 0x0, symName: __ZN4pyo38instance12PyNativeType18unchecked_downcast17hec559444113bc9ccE, symObjAddr: 0x3A0, symBinAddr: 0x20310, symSize: 0x60 }
  - { offset: 0x4B1CA, size: 0x8, addend: 0x0, symName: __ZN4pyo38instance12PyNativeType2py17h6479a65108799dffE, symObjAddr: 0x400, symBinAddr: 0x20370, symSize: 0x20 }
  - { offset: 0x4B365, size: 0x8, addend: 0x0, symName: '__ZN77_$LT$pyo3..pycell..PyCell$LT$T$GT$$u20$as$u20$pyo3..conversion..PyTryFrom$GT$18try_from_unchecked17h49f216bcaf307654E', symObjAddr: 0x5B0, symBinAddr: 0x20520, symSize: 0x30 }
  - { offset: 0x4B3A5, size: 0x8, addend: 0x0, symName: '__ZN77_$LT$pyo3..pycell..PyCell$LT$T$GT$$u20$as$u20$pyo3..conversion..PyTryFrom$GT$18try_from_unchecked17h6c4a3f1dd11ff686E', symObjAddr: 0x5E0, symBinAddr: 0x20550, symSize: 0x30 }
  - { offset: 0x4B3E5, size: 0x8, addend: 0x0, symName: '__ZN77_$LT$pyo3..pycell..PyCell$LT$T$GT$$u20$as$u20$pyo3..conversion..PyTryFrom$GT$18try_from_unchecked17hd567981903dfe8dbE', symObjAddr: 0x610, symBinAddr: 0x20580, symSize: 0x30 }
  - { offset: 0x4B425, size: 0x8, addend: 0x0, symName: '__ZN77_$LT$pyo3..pycell..PyCell$LT$T$GT$$u20$as$u20$pyo3..conversion..PyTryFrom$GT$8try_from17h220a589100f67d27E', symObjAddr: 0x640, symBinAddr: 0x205B0, symSize: 0xB0 }
  - { offset: 0x4B483, size: 0x8, addend: 0x0, symName: '__ZN77_$LT$pyo3..pycell..PyCell$LT$T$GT$$u20$as$u20$pyo3..conversion..PyTryFrom$GT$8try_from17h3649efa39d7ae875E', symObjAddr: 0x6F0, symBinAddr: 0x20660, symSize: 0xB0 }
  - { offset: 0x4B4E1, size: 0x8, addend: 0x0, symName: '__ZN77_$LT$pyo3..pycell..PyCell$LT$T$GT$$u20$as$u20$pyo3..conversion..PyTryFrom$GT$8try_from17h99b39b64f660cfd0E', symObjAddr: 0x7A0, symBinAddr: 0x20710, symSize: 0xB0 }
  - { offset: 0x4B545, size: 0x8, addend: 0x0, symName: '__ZN79_$LT$pyo3..pycell..PyRef$LT$T$GT$$u20$as$u20$pyo3..conversion..FromPyObject$GT$7extract17ha069935c489d074dE', symObjAddr: 0x9B0, symBinAddr: 0x20920, symSize: 0xF0 }
  - { offset: 0x4B5B9, size: 0x8, addend: 0x0, symName: '__ZN79_$LT$pyo3..pycell..PyRef$LT$T$GT$$u20$as$u20$pyo3..conversion..FromPyObject$GT$7extract17hbc1640548ed81ab7E', symObjAddr: 0xAA0, symBinAddr: 0x20A10, symSize: 0xF0 }
  - { offset: 0x4B62D, size: 0x8, addend: 0x0, symName: '__ZN79_$LT$pyo3..pycell..PyRef$LT$T$GT$$u20$as$u20$pyo3..conversion..FromPyObject$GT$7extract17hc8b510f40ca4d9b6E', symObjAddr: 0xB90, symBinAddr: 0x20B00, symSize: 0xF0 }
  - { offset: 0x4B6A7, size: 0x8, addend: 0x0, symName: '__ZN82_$LT$pyo3..pycell..PyRefMut$LT$T$GT$$u20$as$u20$pyo3..conversion..FromPyObject$GT$7extract17h60dbeafcb70b0b2aE', symObjAddr: 0xC80, symBinAddr: 0x20BF0, symSize: 0xF0 }
  - { offset: 0x4B71B, size: 0x8, addend: 0x0, symName: '__ZN82_$LT$pyo3..pycell..PyRefMut$LT$T$GT$$u20$as$u20$pyo3..conversion..FromPyObject$GT$7extract17h930fa1021fae39b0E', symObjAddr: 0xD70, symBinAddr: 0x20CE0, symSize: 0xF0 }
  - { offset: 0x4B78F, size: 0x8, addend: 0x0, symName: '__ZN82_$LT$pyo3..pycell..PyRefMut$LT$T$GT$$u20$as$u20$pyo3..conversion..FromPyObject$GT$7extract17hfcebbb70e0b0ad5aE', symObjAddr: 0xE60, symBinAddr: 0x20DD0, symSize: 0xF0 }
  - { offset: 0x4B809, size: 0x8, addend: 0x0, symName: '__ZN84_$LT$$RF$pyo3..pycell..PyCell$LT$T$GT$$u20$as$u20$pyo3..conversion..FromPyObject$GT$7extract17hc634eab54794da9eE', symObjAddr: 0xF50, symBinAddr: 0x20EC0, symSize: 0x40 }
  - { offset: 0x4CB6B, size: 0x8, addend: 0x0, symName: '__ZN50_$LT$T$u20$as$u20$core..convert..Into$LT$U$GT$$GT$4into17h9301f8d374387256E', symObjAddr: 0x420, symBinAddr: 0x20390, symSize: 0x20 }
  - { offset: 0x4CBAB, size: 0x8, addend: 0x0, symName: '__ZN50_$LT$T$u20$as$u20$core..convert..Into$LT$U$GT$$GT$4into17hea9f0c4b9ba3a3cdE', symObjAddr: 0x440, symBinAddr: 0x203B0, symSize: 0x20 }
  - { offset: 0x4D01E, size: 0x8, addend: 0x0, symName: '__ZN4pyo36pycell14PyRef$LT$T$GT$2py17hfe93fb700e8b5081E', symObjAddr: 0x20, symBinAddr: 0x1FF90, symSize: 0x20 }
  - { offset: 0x4D051, size: 0x8, addend: 0x0, symName: '__ZN4pyo36pycell15PyCell$LT$T$GT$10try_borrow17h2b15e53ea3154999E', symObjAddr: 0x40, symBinAddr: 0x1FFB0, symSize: 0x40 }
  - { offset: 0x4D08A, size: 0x8, addend: 0x0, symName: '__ZN4pyo36pycell15PyCell$LT$T$GT$10try_borrow17h307596e8d67db401E', symObjAddr: 0x80, symBinAddr: 0x1FFF0, symSize: 0x40 }
  - { offset: 0x4D0C3, size: 0x8, addend: 0x0, symName: '__ZN4pyo36pycell15PyCell$LT$T$GT$10try_borrow17hf956bdd1e118c82fE', symObjAddr: 0xC0, symBinAddr: 0x20030, symSize: 0x40 }
  - { offset: 0x4D0FC, size: 0x8, addend: 0x0, symName: '__ZN4pyo36pycell15PyCell$LT$T$GT$14borrow_checker17h6de3469d3e493f74E', symObjAddr: 0x130, symBinAddr: 0x200A0, symSize: 0x20 }
  - { offset: 0x4D128, size: 0x8, addend: 0x0, symName: '__ZN4pyo36pycell15PyCell$LT$T$GT$14borrow_checker17hdb3c2b0cd0730031E', symObjAddr: 0x150, symBinAddr: 0x200C0, symSize: 0x20 }
  - { offset: 0x4D154, size: 0x8, addend: 0x0, symName: '__ZN4pyo36pycell15PyCell$LT$T$GT$14borrow_checker17hf083fbe871ab7fdeE', symObjAddr: 0x170, symBinAddr: 0x200E0, symSize: 0x20 }
  - { offset: 0x4D180, size: 0x8, addend: 0x0, symName: '__ZN4pyo36pycell15PyCell$LT$T$GT$14try_borrow_mut17h085ef57ebfcd1328E', symObjAddr: 0x190, symBinAddr: 0x20100, symSize: 0x40 }
  - { offset: 0x4D1AC, size: 0x8, addend: 0x0, symName: '__ZN4pyo36pycell15PyCell$LT$T$GT$14try_borrow_mut17h1c8d32d3d17ffc15E', symObjAddr: 0x1D0, symBinAddr: 0x20140, symSize: 0x40 }
  - { offset: 0x4D1D8, size: 0x8, addend: 0x0, symName: '__ZN4pyo36pycell15PyCell$LT$T$GT$14try_borrow_mut17hdb188023c1cdd253E', symObjAddr: 0x210, symBinAddr: 0x20180, symSize: 0x40 }
  - { offset: 0x4D211, size: 0x8, addend: 0x0, symName: '__ZN4pyo36pycell15PyCell$LT$T$GT$7get_ptr17h75ba465426dcb244E', symObjAddr: 0x280, symBinAddr: 0x201F0, symSize: 0x20 }
  - { offset: 0x4D24A, size: 0x8, addend: 0x0, symName: '__ZN4pyo36pycell15PyCell$LT$T$GT$7get_ptr17hce484ecae23693eaE', symObjAddr: 0x2A0, symBinAddr: 0x20210, symSize: 0x20 }
  - { offset: 0x4D283, size: 0x8, addend: 0x0, symName: '__ZN4pyo36pycell15PyCell$LT$T$GT$7get_ptr17hf7bc56f4233d32a4E', symObjAddr: 0x2C0, symBinAddr: 0x20230, symSize: 0x20 }
  - { offset: 0x4D451, size: 0x8, addend: 0x0, symName: '__ZN58_$LT$T$u20$as$u20$pyo3..err..err_state..PyErrArguments$GT$9arguments17h9273013645d6ec57E', symObjAddr: 0x0, symBinAddr: 0x21230, symSize: 0x13 }
  - { offset: 0x4D4D9, size: 0x8, addend: 0x0, symName: '__ZN58_$LT$T$u20$as$u20$pyo3..err..err_state..PyErrArguments$GT$9arguments17h9273013645d6ec57E', symObjAddr: 0x0, symBinAddr: 0x21230, symSize: 0x13 }
  - { offset: 0x4D7C9, size: 0x8, addend: 0x0, symName: '__ZN4pyo35impl_10trampoline10binaryfunc28_$u7b$$u7b$closure$u7d$$u7d$17hf572394b1a74363eE', symObjAddr: 0x0, symBinAddr: 0x21250, symSize: 0x40 }
  - { offset: 0x4D851, size: 0x8, addend: 0x0, symName: '__ZN4pyo35impl_10trampoline10binaryfunc28_$u7b$$u7b$closure$u7d$$u7d$17hf572394b1a74363eE', symObjAddr: 0x0, symBinAddr: 0x21250, symSize: 0x40 }
  - { offset: 0x4D8E7, size: 0x8, addend: 0x0, symName: '__ZN4pyo35impl_10trampoline10objobjproc28_$u7b$$u7b$closure$u7d$$u7d$17h0537776a29b697ffE', symObjAddr: 0x40, symBinAddr: 0x21290, symSize: 0x40 }
  - { offset: 0x4D978, size: 0x8, addend: 0x0, symName: __ZN4pyo35impl_10trampoline10trampoline17h06bbf1abef1e946aE, symObjAddr: 0x80, symBinAddr: 0x212D0, symSize: 0x180 }
  - { offset: 0x4DA1C, size: 0x8, addend: 0x0, symName: __ZN4pyo35impl_10trampoline10trampoline17h0a468bc9e674c5b3E, symObjAddr: 0x200, symBinAddr: 0x21450, symSize: 0x190 }
  - { offset: 0x4DAC1, size: 0x8, addend: 0x0, symName: __ZN4pyo35impl_10trampoline10trampoline17h15aa13f5e5b6f7a3E, symObjAddr: 0x390, symBinAddr: 0x215E0, symSize: 0x190 }
  - { offset: 0x4DB66, size: 0x8, addend: 0x0, symName: __ZN4pyo35impl_10trampoline10trampoline17h2f5bea8a14b80de2E, symObjAddr: 0x520, symBinAddr: 0x21770, symSize: 0x180 }
  - { offset: 0x4DC0B, size: 0x8, addend: 0x0, symName: __ZN4pyo35impl_10trampoline10trampoline17h452d19f1747c92d9E, symObjAddr: 0x6A0, symBinAddr: 0x218F0, symSize: 0x180 }
  - { offset: 0x4DCB0, size: 0x8, addend: 0x0, symName: __ZN4pyo35impl_10trampoline10trampoline17h74a0b1fc4f285f8dE, symObjAddr: 0x820, symBinAddr: 0x21A70, symSize: 0x160 }
  - { offset: 0x4DD54, size: 0x8, addend: 0x0, symName: __ZN4pyo35impl_10trampoline10trampoline17hc28161f776a72a5dE, symObjAddr: 0x980, symBinAddr: 0x21BD0, symSize: 0x190 }
  - { offset: 0x4DDF9, size: 0x8, addend: 0x0, symName: __ZN4pyo35impl_10trampoline10trampoline17hdd0f8cb2990a2a07E, symObjAddr: 0xB10, symBinAddr: 0x21D60, symSize: 0x180 }
  - { offset: 0x4DE9D, size: 0x8, addend: 0x0, symName: __ZN4pyo35impl_10trampoline10trampoline17he70fbdea9ebd692eE, symObjAddr: 0xC90, symBinAddr: 0x21EE0, symSize: 0x180 }
  - { offset: 0x4DF46, size: 0x8, addend: 0x0, symName: '__ZN4pyo35impl_10trampoline10trampoline28_$u7b$$u7b$closure$u7d$$u7d$17h0d9f949265f7ce75E', symObjAddr: 0xE10, symBinAddr: 0x22060, symSize: 0x30 }
  - { offset: 0x4DF94, size: 0x8, addend: 0x0, symName: '__ZN4pyo35impl_10trampoline10trampoline28_$u7b$$u7b$closure$u7d$$u7d$17h14fe576cde8fd378E', symObjAddr: 0xE40, symBinAddr: 0x22090, symSize: 0x40 }
  - { offset: 0x4DFE3, size: 0x8, addend: 0x0, symName: '__ZN4pyo35impl_10trampoline10trampoline28_$u7b$$u7b$closure$u7d$$u7d$17h4e80cbdd6835d752E', symObjAddr: 0xE80, symBinAddr: 0x220D0, symSize: 0x40 }
  - { offset: 0x4E032, size: 0x8, addend: 0x0, symName: '__ZN4pyo35impl_10trampoline10trampoline28_$u7b$$u7b$closure$u7d$$u7d$17h762cd9012a9f8be4E', symObjAddr: 0xEC0, symBinAddr: 0x22110, symSize: 0x30 }
  - { offset: 0x4E080, size: 0x8, addend: 0x0, symName: '__ZN4pyo35impl_10trampoline10trampoline28_$u7b$$u7b$closure$u7d$$u7d$17h7cfdb31b04844b5aE', symObjAddr: 0xEF0, symBinAddr: 0x22140, symSize: 0x50 }
  - { offset: 0x4E0CF, size: 0x8, addend: 0x0, symName: '__ZN4pyo35impl_10trampoline10trampoline28_$u7b$$u7b$closure$u7d$$u7d$17h81b4c0bb08419203E', symObjAddr: 0xF40, symBinAddr: 0x22190, symSize: 0x30 }
  - { offset: 0x4E11D, size: 0x8, addend: 0x0, symName: '__ZN4pyo35impl_10trampoline10trampoline28_$u7b$$u7b$closure$u7d$$u7d$17h9c22039267948258E', symObjAddr: 0xF70, symBinAddr: 0x221C0, symSize: 0x50 }
  - { offset: 0x4E16C, size: 0x8, addend: 0x0, symName: '__ZN4pyo35impl_10trampoline10trampoline28_$u7b$$u7b$closure$u7d$$u7d$17ha7eeb2fc35eb5642E', symObjAddr: 0xFC0, symBinAddr: 0x22210, symSize: 0x50 }
  - { offset: 0x4E1BB, size: 0x8, addend: 0x0, symName: '__ZN4pyo35impl_10trampoline10trampoline28_$u7b$$u7b$closure$u7d$$u7d$17hf00d8a9810e84833E', symObjAddr: 0x1010, symBinAddr: 0x22260, symSize: 0x30 }
  - { offset: 0x4E20F, size: 0x8, addend: 0x0, symName: '__ZN4pyo35impl_10trampoline11getiterfunc28_$u7b$$u7b$closure$u7d$$u7d$17hdee0c4c5e465942dE', symObjAddr: 0x1040, symBinAddr: 0x22290, symSize: 0x30 }
  - { offset: 0x4E28C, size: 0x8, addend: 0x0, symName: '__ZN4pyo35impl_10trampoline11module_init28_$u7b$$u7b$closure$u7d$$u7d$17hd3eb50b45e8d144aE', symObjAddr: 0x1070, symBinAddr: 0x222C0, symSize: 0x40 }
  - { offset: 0x4E2D8, size: 0x8, addend: 0x0, symName: '__ZN4pyo35impl_10trampoline11module_init28_$u7b$$u7b$closure$u7d$$u7d$28_$u7b$$u7b$closure$u7d$$u7d$17h2a5c09df8ee28f95E', symObjAddr: 0x10B0, symBinAddr: 0x22300, symSize: 0x20 }
  - { offset: 0x4E32F, size: 0x8, addend: 0x0, symName: '__ZN4pyo35impl_10trampoline12setattrofunc28_$u7b$$u7b$closure$u7d$$u7d$17he8ee265ee74575faE', symObjAddr: 0x10D0, symBinAddr: 0x22320, symSize: 0x40 }
  - { offset: 0x4E3DB, size: 0x8, addend: 0x0, symName: __ZN4pyo35impl_10trampoline21trampoline_unraisable17hebce189bc5cb3e2aE, symObjAddr: 0x1110, symBinAddr: 0x22360, symSize: 0x260 }
  - { offset: 0x4E47E, size: 0x8, addend: 0x0, symName: '__ZN4pyo35impl_10trampoline21trampoline_unraisable28_$u7b$$u7b$closure$u7d$$u7d$17h15b5fb60544985f8E', symObjAddr: 0x1370, symBinAddr: 0x225C0, symSize: 0x60 }
  - { offset: 0x4E4BD, size: 0x8, addend: 0x0, symName: '__ZN4pyo35impl_10trampoline21trampoline_unraisable28_$u7b$$u7b$closure$u7d$$u7d$17hca30d5f0148b3438E', symObjAddr: 0x13D0, symBinAddr: 0x22620, symSize: 0x30 }
  - { offset: 0x4E50F, size: 0x8, addend: 0x0, symName: '__ZN4pyo35impl_10trampoline23cfunction_with_keywords28_$u7b$$u7b$closure$u7d$$u7d$17h56097b4472712792E', symObjAddr: 0x1400, symBinAddr: 0x22650, symSize: 0x40 }
  - { offset: 0x4E5BB, size: 0x8, addend: 0x0, symName: __ZN4pyo35impl_10trampoline33panic_result_into_callback_output17he8a6c9af4243df9dE, symObjAddr: 0x1440, symBinAddr: 0x22690, symSize: 0x140 }
  - { offset: 0x4E685, size: 0x8, addend: 0x0, symName: '__ZN4pyo35impl_10trampoline6noargs28_$u7b$$u7b$closure$u7d$$u7d$17h82d990f4217005fdE', symObjAddr: 0x1580, symBinAddr: 0x227D0, symSize: 0x30 }
  - { offset: 0x4E702, size: 0x8, addend: 0x0, symName: '__ZN4pyo35impl_10trampoline7dealloc28_$u7b$$u7b$closure$u7d$$u7d$17h85b1bafbd6dfe7cbE', symObjAddr: 0x15B0, symBinAddr: 0x22800, symSize: 0x40 }
  - { offset: 0x4E77F, size: 0x8, addend: 0x0, symName: '__ZN4pyo35impl_10trampoline7lenfunc28_$u7b$$u7b$closure$u7d$$u7d$17hcb4ace816ba8c260E', symObjAddr: 0x15F0, symBinAddr: 0x22840, symSize: 0x30 }
  - { offset: 0x4E7FC, size: 0x8, addend: 0x0, symName: '__ZN4pyo35impl_10trampoline7newfunc28_$u7b$$u7b$closure$u7d$$u7d$17hab54c8bbaefe2a5aE', symObjAddr: 0x1620, symBinAddr: 0x22870, symSize: 0x39 }
  - { offset: 0x4F449, size: 0x8, addend: 0x0, symName: __ZN4pyo35types5bytes7PyBytes8as_bytes17h6647cc651836b280E, symObjAddr: 0x0, symBinAddr: 0x228B0, symSize: 0x90 }
  - { offset: 0x4F494, size: 0x8, addend: 0x0, symName: '__ZN71_$LT$pyo3..types..bytes..PyBytes$u20$as$u20$core..ops..deref..Deref$GT$5deref17hb486c0861774c8e1E', symObjAddr: 0x90, symBinAddr: 0x22940, symSize: 0xD }
  - { offset: 0x4F5B5, size: 0x8, addend: 0x0, symName: __ZN4pyo35types5bytes7PyBytes8as_bytes17h6647cc651836b280E, symObjAddr: 0x0, symBinAddr: 0x228B0, symSize: 0x90 }
  - { offset: 0x4F639, size: 0x8, addend: 0x0, symName: __ZN8pyo3_ffi13unicodeobject15PyUnicode_Check17hf96e8da40e303837E, symObjAddr: 0x0, symBinAddr: 0x22950, symSize: 0x24 }
  - { offset: 0x4F650, size: 0x8, addend: 0x0, symName: __ZN8pyo3_ffi13unicodeobject15PyUnicode_Check17hf96e8da40e303837E, symObjAddr: 0x0, symBinAddr: 0x22950, symSize: 0x24 }
  - { offset: 0x4F71B, size: 0x8, addend: 0x0, symName: '__ZN5alloc5slice29_$LT$impl$u20$$u5b$T$u5d$$GT$8into_vec17h4d1b23392d5d99d6E', symObjAddr: 0x0, symBinAddr: 0x22980, symSize: 0x40 }
  - { offset: 0x4F782, size: 0x8, addend: 0x0, symName: '__ZN5alloc5slice29_$LT$impl$u20$$u5b$T$u5d$$GT$8into_vec17h4d1b23392d5d99d6E', symObjAddr: 0x0, symBinAddr: 0x22980, symSize: 0x40 }
  - { offset: 0x4FA1E, size: 0x8, addend: 0x0, symName: __ZN5alloc3fmt6format17hb3aa218671d1f190E, symObjAddr: 0x0, symBinAddr: 0x229C0, symSize: 0xC2 }
  - { offset: 0x4FF36, size: 0x8, addend: 0x0, symName: __ZN5alloc3fmt6format17hb3aa218671d1f190E, symObjAddr: 0x0, symBinAddr: 0x229C0, symSize: 0xC2 }
  - { offset: 0x500E0, size: 0x8, addend: 0x0, symName: __ZN4pyo37pyclass18create_type_object18create_type_object17h4a66a41c749e0951E, symObjAddr: 0x0, symBinAddr: 0x22A90, symSize: 0x230 }
  - { offset: 0x50C71, size: 0x8, addend: 0x0, symName: __ZN4pyo37pyclass18create_type_object18create_type_object17h4a66a41c749e0951E, symObjAddr: 0x0, symBinAddr: 0x22A90, symSize: 0x230 }
  - { offset: 0x50CE5, size: 0x8, addend: 0x0, symName: __ZN4pyo37pyclass18create_type_object18create_type_object17hc5b7eeb29538a4f8E, symObjAddr: 0x230, symBinAddr: 0x22CC0, symSize: 0x230 }
  - { offset: 0x50D59, size: 0x8, addend: 0x0, symName: __ZN4pyo37pyclass18create_type_object18create_type_object17hf6bb921601df2e75E, symObjAddr: 0x460, symBinAddr: 0x22EF0, symSize: 0x230 }
  - { offset: 0x51A6B, size: 0x8, addend: 0x0, symName: '__ZN4core3ptr9const_ptr33_$LT$impl$u20$$BP$const$u20$T$GT$20offset_from_unsigned18precondition_check17h64fe33561a71505aE', symObjAddr: 0x0, symBinAddr: 0x23120, symSize: 0x49 }
  - { offset: 0x51AD2, size: 0x8, addend: 0x0, symName: '__ZN4core3ptr9const_ptr33_$LT$impl$u20$$BP$const$u20$T$GT$20offset_from_unsigned18precondition_check17h64fe33561a71505aE', symObjAddr: 0x0, symBinAddr: 0x23120, symSize: 0x49 }
  - { offset: 0x51BD3, size: 0x8, addend: 0x0, symName: __ZN4pyo35types3any5PyAny11call_method17h299698e03a34f41eE, symObjAddr: 0x0, symBinAddr: 0x23170, symSize: 0x2A0 }
  - { offset: 0x52E2B, size: 0x8, addend: 0x0, symName: '__ZN4pyo35types3any5PyAny11call_method28_$u7b$$u7b$closure$u7d$$u7d$17h39749d8c64cb093bE', symObjAddr: 0xD80, symBinAddr: 0x23EF0, symSize: 0x20 }
  - { offset: 0x52E76, size: 0x8, addend: 0x0, symName: '__ZN4pyo35types3any5PyAny11call_method28_$u7b$$u7b$closure$u7d$$u7d$17h5135da32fb27ff4cE', symObjAddr: 0xDA0, symBinAddr: 0x23F10, symSize: 0x20 }
  - { offset: 0x52EC1, size: 0x8, addend: 0x0, symName: '__ZN4pyo35types3any5PyAny11call_method28_$u7b$$u7b$closure$u7d$$u7d$17h5dfe7e5a63d11329E', symObjAddr: 0xDC0, symBinAddr: 0x23F30, symSize: 0x20 }
  - { offset: 0x52F0C, size: 0x8, addend: 0x0, symName: '__ZN4pyo35types3any5PyAny11call_method28_$u7b$$u7b$closure$u7d$$u7d$17ha5428a3ff1c64253E', symObjAddr: 0xDE0, symBinAddr: 0x23F50, symSize: 0x20 }
  - { offset: 0x52F57, size: 0x8, addend: 0x0, symName: '__ZN4pyo35types3any5PyAny11call_method28_$u7b$$u7b$closure$u7d$$u7d$17he85566664a1dea9eE', symObjAddr: 0xE00, symBinAddr: 0x23F70, symSize: 0x20 }
  - { offset: 0x52FD1, size: 0x8, addend: 0x0, symName: '__ZN73_$LT$pyo3..types..any..PyAny$u20$as$u20$pyo3..type_object..PyTypeInfo$GT$15type_object_raw28_$u7b$$u7b$closure$u7d$$u7d$17h4a397897829ef576E', symObjAddr: 0x1410, symBinAddr: 0x24580, symSize: 0x11 }
  - { offset: 0x536CF, size: 0x8, addend: 0x0, symName: __ZN4pyo35types3any5PyAny11call_method17h299698e03a34f41eE, symObjAddr: 0x0, symBinAddr: 0x23170, symSize: 0x2A0 }
  - { offset: 0x53843, size: 0x8, addend: 0x0, symName: __ZN4pyo35types3any5PyAny11call_method17h3c6902fa2c6de6f5E, symObjAddr: 0x2A0, symBinAddr: 0x23410, symSize: 0x2C0 }
  - { offset: 0x5399E, size: 0x8, addend: 0x0, symName: __ZN4pyo35types3any5PyAny11call_method17h4462025e692c63fdE, symObjAddr: 0x560, symBinAddr: 0x236D0, symSize: 0x2B0 }
  - { offset: 0x53B05, size: 0x8, addend: 0x0, symName: __ZN4pyo35types3any5PyAny11call_method17h4f22279003dc1d99E, symObjAddr: 0x810, symBinAddr: 0x23980, symSize: 0x2C0 }
  - { offset: 0x53C60, size: 0x8, addend: 0x0, symName: __ZN4pyo35types3any5PyAny11call_method17hed038509a1925199E, symObjAddr: 0xAD0, symBinAddr: 0x23C40, symSize: 0x2B0 }
  - { offset: 0x53DA9, size: 0x8, addend: 0x0, symName: __ZN4pyo35types3any5PyAny12call_method017hca577ca961459ce0E, symObjAddr: 0xE20, symBinAddr: 0x23F90, symSize: 0x30 }
  - { offset: 0x53DE4, size: 0x8, addend: 0x0, symName: __ZN4pyo35types3any5PyAny12call_method117h05166b4761f42e52E, symObjAddr: 0xE50, symBinAddr: 0x23FC0, symSize: 0x40 }
  - { offset: 0x53E37, size: 0x8, addend: 0x0, symName: __ZN4pyo35types3any5PyAny12call_method117h2bd8dd15740e3c90E, symObjAddr: 0xE90, symBinAddr: 0x24000, symSize: 0x40 }
  - { offset: 0x53E8A, size: 0x8, addend: 0x0, symName: __ZN4pyo35types3any5PyAny12call_method117hae9242d793f58cdaE, symObjAddr: 0xED0, symBinAddr: 0x24040, symSize: 0x40 }
  - { offset: 0x53EDD, size: 0x8, addend: 0x0, symName: __ZN4pyo35types3any5PyAny12call_method117hf3784e18d4e1260eE, symObjAddr: 0xF10, symBinAddr: 0x24080, symSize: 0x40 }
  - { offset: 0x53F37, size: 0x8, addend: 0x0, symName: __ZN4pyo35types3any5PyAny14is_instance_of17hd1adbd8bcfede1dbE, symObjAddr: 0xF50, symBinAddr: 0x240C0, symSize: 0x20 }
  - { offset: 0x541F3, size: 0x8, addend: 0x0, symName: __ZN4pyo35types3any5PyAny7extract17h0afeeb9b794c2461E, symObjAddr: 0xF70, symBinAddr: 0x240E0, symSize: 0x30 }
  - { offset: 0x547C8, size: 0x8, addend: 0x0, symName: __ZN4pyo35types3any5PyAny7extract17h29937c024c480321E, symObjAddr: 0xFA0, symBinAddr: 0x24110, symSize: 0x30 }
  - { offset: 0x547F4, size: 0x8, addend: 0x0, symName: __ZN4pyo35types3any5PyAny7extract17h400559081f3fd14bE, symObjAddr: 0xFD0, symBinAddr: 0x24140, symSize: 0x30 }
  - { offset: 0x54820, size: 0x8, addend: 0x0, symName: __ZN4pyo35types3any5PyAny7extract17h528b059f2f124703E, symObjAddr: 0x1000, symBinAddr: 0x24170, symSize: 0x30 }
  - { offset: 0x5484C, size: 0x8, addend: 0x0, symName: __ZN4pyo35types3any5PyAny7extract17h66b84abbe81d7244E, symObjAddr: 0x1030, symBinAddr: 0x241A0, symSize: 0x30 }
  - { offset: 0x54878, size: 0x8, addend: 0x0, symName: __ZN4pyo35types3any5PyAny7extract17h7b4c0aeeee03930bE, symObjAddr: 0x1060, symBinAddr: 0x241D0, symSize: 0x30 }
  - { offset: 0x548B1, size: 0x8, addend: 0x0, symName: __ZN4pyo35types3any5PyAny7extract17h85353c1e2ccee651E, symObjAddr: 0x1090, symBinAddr: 0x24200, symSize: 0x30 }
  - { offset: 0x548DD, size: 0x8, addend: 0x0, symName: __ZN4pyo35types3any5PyAny7extract17h8bce567d009838cfE, symObjAddr: 0x10C0, symBinAddr: 0x24230, symSize: 0x30 }
  - { offset: 0x54916, size: 0x8, addend: 0x0, symName: __ZN4pyo35types3any5PyAny7extract17hde543817a3661805E, symObjAddr: 0x10F0, symBinAddr: 0x24260, symSize: 0x30 }
  - { offset: 0x54942, size: 0x8, addend: 0x0, symName: __ZN4pyo35types3any5PyAny7extract17hde877f4131ad550fE, symObjAddr: 0x1120, symBinAddr: 0x24290, symSize: 0x30 }
  - { offset: 0x5496E, size: 0x8, addend: 0x0, symName: __ZN4pyo35types3any5PyAny7extract17hf11deacc8e538029E, symObjAddr: 0x1150, symBinAddr: 0x242C0, symSize: 0x30 }
  - { offset: 0x5499A, size: 0x8, addend: 0x0, symName: __ZN4pyo35types3any5PyAny7extract17hf19524dabdf4704bE, symObjAddr: 0x1180, symBinAddr: 0x242F0, symSize: 0x30 }
  - { offset: 0x549C6, size: 0x8, addend: 0x0, symName: __ZN4pyo35types3any5PyAny7extract17hf3cc7b34a4a72435E, symObjAddr: 0x11B0, symBinAddr: 0x24320, symSize: 0x30 }
  - { offset: 0x549F2, size: 0x8, addend: 0x0, symName: __ZN4pyo35types3any5PyAny7setattr17h224aed777d2c5100E, symObjAddr: 0x11E0, symBinAddr: 0x24350, symSize: 0x100 }
  - { offset: 0x54A58, size: 0x8, addend: 0x0, symName: __ZN4pyo35types3any5PyAny7setattr17h999d5f5e15d20431E, symObjAddr: 0x12E0, symBinAddr: 0x24450, symSize: 0x100 }
  - { offset: 0x54ABE, size: 0x8, addend: 0x0, symName: __ZN4pyo35types3any5PyAny8downcast17h01451c4a4c8b0eacE, symObjAddr: 0x13E0, symBinAddr: 0x24550, symSize: 0x30 }
  - { offset: 0x54B4D, size: 0x8, addend: 0x0, symName: __ZN3std9panicking12catch_unwind7do_call17h0b82b73c5dc3a026E, symObjAddr: 0x0, symBinAddr: 0x245A0, symSize: 0x50 }
  - { offset: 0x55C7B, size: 0x8, addend: 0x0, symName: __ZN3std9panicking12catch_unwind7do_call17h0b82b73c5dc3a026E, symObjAddr: 0x0, symBinAddr: 0x245A0, symSize: 0x50 }
  - { offset: 0x55D62, size: 0x8, addend: 0x0, symName: __ZN3std9panicking12catch_unwind7do_call17h54d09e9ee9a10effE, symObjAddr: 0x50, symBinAddr: 0x245F0, symSize: 0x70 }
  - { offset: 0x55E4A, size: 0x8, addend: 0x0, symName: __ZN3std9panicking12catch_unwind7do_call17h5c5316891e20a9adE, symObjAddr: 0xC0, symBinAddr: 0x24660, symSize: 0x80 }
  - { offset: 0x55F32, size: 0x8, addend: 0x0, symName: __ZN3std9panicking12catch_unwind7do_call17h6988d8a6a0e0912dE, symObjAddr: 0x140, symBinAddr: 0x246E0, symSize: 0x80 }
  - { offset: 0x5601A, size: 0x8, addend: 0x0, symName: __ZN3std9panicking12catch_unwind7do_call17h8bc9b26d70dd2456E, symObjAddr: 0x1C0, symBinAddr: 0x24760, symSize: 0x60 }
  - { offset: 0x56102, size: 0x8, addend: 0x0, symName: __ZN3std9panicking12catch_unwind7do_call17hc36eecc163e95364E, symObjAddr: 0x220, symBinAddr: 0x247C0, symSize: 0x60 }
  - { offset: 0x561EA, size: 0x8, addend: 0x0, symName: __ZN3std9panicking12catch_unwind7do_call17hc6122ea37d7d56caE, symObjAddr: 0x280, symBinAddr: 0x24820, symSize: 0x80 }
  - { offset: 0x562D2, size: 0x8, addend: 0x0, symName: __ZN3std9panicking12catch_unwind7do_call17hc743a009edba6d3dE, symObjAddr: 0x300, symBinAddr: 0x248A0, symSize: 0x70 }
  - { offset: 0x563BA, size: 0x8, addend: 0x0, symName: __ZN3std9panicking12catch_unwind7do_call17hdad44e323960a42cE, symObjAddr: 0x370, symBinAddr: 0x24910, symSize: 0x60 }
  - { offset: 0x564A2, size: 0x8, addend: 0x0, symName: __ZN3std9panicking12catch_unwind7do_call17hf824dfa28fd8618eE, symObjAddr: 0x3D0, symBinAddr: 0x24970, symSize: 0x60 }
  - { offset: 0x5658A, size: 0x8, addend: 0x0, symName: __ZN3std9panicking12catch_unwind8do_catch17h0156f92a75c44dd6E, symObjAddr: 0x430, symBinAddr: 0x249D0, symSize: 0x60 }
  - { offset: 0x5661F, size: 0x8, addend: 0x0, symName: __ZN3std9panicking12catch_unwind8do_catch17h02f9ed41ec9542a7E, symObjAddr: 0x490, symBinAddr: 0x24A30, symSize: 0x60 }
  - { offset: 0x566B4, size: 0x8, addend: 0x0, symName: __ZN3std9panicking12catch_unwind8do_catch17h395276c94f2e2bfdE, symObjAddr: 0x4F0, symBinAddr: 0x24A90, symSize: 0x60 }
  - { offset: 0x56749, size: 0x8, addend: 0x0, symName: __ZN3std9panicking12catch_unwind8do_catch17h41ec35a2f46cd1d9E, symObjAddr: 0x550, symBinAddr: 0x24AF0, symSize: 0x60 }
  - { offset: 0x567DE, size: 0x8, addend: 0x0, symName: __ZN3std9panicking12catch_unwind8do_catch17h663e10d2ace2f202E, symObjAddr: 0x5B0, symBinAddr: 0x24B50, symSize: 0x60 }
  - { offset: 0x56873, size: 0x8, addend: 0x0, symName: __ZN3std9panicking12catch_unwind8do_catch17h7c7cadbb00fc419dE, symObjAddr: 0x610, symBinAddr: 0x24BB0, symSize: 0x60 }
  - { offset: 0x56908, size: 0x8, addend: 0x0, symName: __ZN3std9panicking12catch_unwind8do_catch17h93c95ad71becf8e1E, symObjAddr: 0x670, symBinAddr: 0x24C10, symSize: 0x60 }
  - { offset: 0x5699D, size: 0x8, addend: 0x0, symName: __ZN3std9panicking12catch_unwind8do_catch17hae4a5b00c155be45E, symObjAddr: 0x6D0, symBinAddr: 0x24C70, symSize: 0x60 }
  - { offset: 0x56A32, size: 0x8, addend: 0x0, symName: __ZN3std9panicking12catch_unwind8do_catch17hc5b8b5d838d1916dE, symObjAddr: 0x730, symBinAddr: 0x24CD0, symSize: 0x60 }
  - { offset: 0x56AC7, size: 0x8, addend: 0x0, symName: __ZN3std9panicking12catch_unwind8do_catch17hce9397302bd53485E, symObjAddr: 0x790, symBinAddr: 0x24D30, symSize: 0x58 }
  - { offset: 0x5727F, size: 0x8, addend: 0x0, symName: '__ZN109_$LT$pyo3..pyclass_init..PyClassInitializer$LT$T$GT$$u20$as$u20$pyo3..pyclass_init..PyObjectInit$LT$T$GT$$GT$15into_new_object17h236a8ba588e92584E', symObjAddr: 0x0, symBinAddr: 0x24D90, symSize: 0x360 }
  - { offset: 0x57FE8, size: 0x8, addend: 0x0, symName: '__ZN109_$LT$pyo3..pyclass_init..PyClassInitializer$LT$T$GT$$u20$as$u20$pyo3..pyclass_init..PyObjectInit$LT$T$GT$$GT$15into_new_object17h236a8ba588e92584E', symObjAddr: 0x0, symBinAddr: 0x24D90, symSize: 0x360 }
  - { offset: 0x5816F, size: 0x8, addend: 0x0, symName: '__ZN109_$LT$pyo3..pyclass_init..PyClassInitializer$LT$T$GT$$u20$as$u20$pyo3..pyclass_init..PyObjectInit$LT$T$GT$$GT$15into_new_object17h92d38ffb89667448E', symObjAddr: 0x360, symBinAddr: 0x250F0, symSize: 0x470 }
  - { offset: 0x582F6, size: 0x8, addend: 0x0, symName: '__ZN109_$LT$pyo3..pyclass_init..PyClassInitializer$LT$T$GT$$u20$as$u20$pyo3..pyclass_init..PyObjectInit$LT$T$GT$$GT$15into_new_object17hd6b9ec5e2d2f2c88E', symObjAddr: 0x7D0, symBinAddr: 0x25560, symSize: 0x370 }
  - { offset: 0x58507, size: 0x8, addend: 0x0, symName: '__ZN114_$LT$pyo3..pyclass_init..PyNativeTypeInitializer$LT$T$GT$$u20$as$u20$pyo3..pyclass_init..PyObjectInit$LT$T$GT$$GT$15into_new_object17h6fc5e91507002921E', symObjAddr: 0xB40, symBinAddr: 0x258D0, symSize: 0x40 }
  - { offset: 0x5886F, size: 0x8, addend: 0x0, symName: '__ZN4pyo312pyclass_init27PyClassInitializer$LT$T$GT$24create_cell_from_subtype28_$u7b$$u7b$closure$u7d$$u7d$17h98b63d7a7da40c64E', symObjAddr: 0xCD0, symBinAddr: 0x25A60, symSize: 0x10 }
  - { offset: 0x588AE, size: 0x8, addend: 0x0, symName: '__ZN4pyo312pyclass_init27PyClassInitializer$LT$T$GT$24create_cell_from_subtype28_$u7b$$u7b$closure$u7d$$u7d$17hd25b8e261518221bE', symObjAddr: 0xCE0, symBinAddr: 0x25A70, symSize: 0x10 }
  - { offset: 0x588ED, size: 0x8, addend: 0x0, symName: '__ZN4pyo312pyclass_init27PyClassInitializer$LT$T$GT$24create_cell_from_subtype28_$u7b$$u7b$closure$u7d$$u7d$17he4d035c3ee4e776dE', symObjAddr: 0xCF0, symBinAddr: 0x25A80, symSize: 0x10 }
  - { offset: 0x58948, size: 0x8, addend: 0x0, symName: '__ZN96_$LT$pyo3..pyclass_init..PyClassInitializer$LT$T$GT$$u20$as$u20$core..convert..From$LT$T$GT$$GT$4from17h3fb01c49759c029bE', symObjAddr: 0xDE0, symBinAddr: 0x25B70, symSize: 0x40 }
  - { offset: 0x58980, size: 0x8, addend: 0x0, symName: '__ZN96_$LT$pyo3..pyclass_init..PyClassInitializer$LT$T$GT$$u20$as$u20$core..convert..From$LT$T$GT$$GT$4from17h600d8ddfbe2d1e74E', symObjAddr: 0xE20, symBinAddr: 0x25BB0, symSize: 0x50 }
  - { offset: 0x589B8, size: 0x8, addend: 0x0, symName: '__ZN96_$LT$pyo3..pyclass_init..PyClassInitializer$LT$T$GT$$u20$as$u20$core..convert..From$LT$T$GT$$GT$4from17h68d09db22bc3f55aE', symObjAddr: 0xE70, symBinAddr: 0x25C00, symSize: 0x35 }
  - { offset: 0x5952D, size: 0x8, addend: 0x0, symName: '__ZN4pyo312pyclass_init27PyClassInitializer$LT$T$GT$24create_cell_from_subtype17h480c84f37a74812bE', symObjAddr: 0xB80, symBinAddr: 0x25910, symSize: 0x80 }
  - { offset: 0x59590, size: 0x8, addend: 0x0, symName: '__ZN4pyo312pyclass_init27PyClassInitializer$LT$T$GT$24create_cell_from_subtype17hb6315978373bf06fE', symObjAddr: 0xC00, symBinAddr: 0x25990, symSize: 0x70 }
  - { offset: 0x595F3, size: 0x8, addend: 0x0, symName: '__ZN4pyo312pyclass_init27PyClassInitializer$LT$T$GT$24create_cell_from_subtype17hffab8ada8f504d8eE', symObjAddr: 0xC70, symBinAddr: 0x25A00, symSize: 0x60 }
  - { offset: 0x59648, size: 0x8, addend: 0x0, symName: '__ZN4pyo312pyclass_init27PyClassInitializer$LT$T$GT$3new17h1110ad19e5709221E', symObjAddr: 0xD00, symBinAddr: 0x25A90, symSize: 0x60 }
  - { offset: 0x59682, size: 0x8, addend: 0x0, symName: '__ZN4pyo312pyclass_init27PyClassInitializer$LT$T$GT$3new17h895ac6fa6c854526E', symObjAddr: 0xD60, symBinAddr: 0x25AF0, symSize: 0x40 }
  - { offset: 0x596BC, size: 0x8, addend: 0x0, symName: '__ZN4pyo312pyclass_init27PyClassInitializer$LT$T$GT$3new17hf4d0044cda23bbc7E', symObjAddr: 0xDA0, symBinAddr: 0x25B30, symSize: 0x40 }
  - { offset: 0x59748, size: 0x8, addend: 0x0, symName: '__ZN110_$LT$core..ops..range..RangeFrom$LT$usize$GT$$u20$as$u20$core..slice..index..SliceIndex$LT$$u5b$T$u5d$$GT$$GT$5index17h13efc2b1fc884d3cE', symObjAddr: 0x0, symBinAddr: 0x25C40, symSize: 0x60 }
  - { offset: 0x597A4, size: 0x8, addend: 0x0, symName: '__ZN110_$LT$core..ops..range..RangeFrom$LT$usize$GT$$u20$as$u20$core..slice..index..SliceIndex$LT$$u5b$T$u5d$$GT$$GT$5index17h13efc2b1fc884d3cE', symObjAddr: 0x0, symBinAddr: 0x25C40, symSize: 0x60 }
  - { offset: 0x59836, size: 0x8, addend: 0x0, symName: '__ZN110_$LT$core..ops..range..RangeFrom$LT$usize$GT$$u20$as$u20$core..slice..index..SliceIndex$LT$$u5b$T$u5d$$GT$$GT$5index17h48ff47bb52b59ad0E', symObjAddr: 0x60, symBinAddr: 0x25CA0, symSize: 0x5E }
  - { offset: 0x59B17, size: 0x8, addend: 0x0, symName: '__ZN5alloc3vec16Vec$LT$T$C$A$GT$17from_raw_parts_in18precondition_check17h5a89a4a167f035dbE', symObjAddr: 0x0, symBinAddr: 0x25D00, symSize: 0x50 }
  - { offset: 0x59B38, size: 0x8, addend: 0x0, symName: '__ZN5alloc3vec16Vec$LT$T$C$A$GT$17from_raw_parts_in18precondition_check17h5a89a4a167f035dbE', symObjAddr: 0x0, symBinAddr: 0x25D00, symSize: 0x50 }
  - { offset: 0x59B91, size: 0x8, addend: 0x0, symName: '__ZN5alloc3vec16Vec$LT$T$C$A$GT$7set_len18precondition_check17hbed6e4c6208a8520E', symObjAddr: 0x50, symBinAddr: 0x25D50, symSize: 0x49 }
  - { offset: 0x59C3B, size: 0x8, addend: 0x0, symName: __ZN4pyo35types8sequence10PySequence3len17h6ab077326625d72fE, symObjAddr: 0x0, symBinAddr: 0x25DA0, symSize: 0x120 }
  - { offset: 0x59C86, size: 0x8, addend: 0x0, symName: '__ZN77_$LT$pyo3..types..sequence..PySequence$u20$as$u20$core..ops..deref..Deref$GT$5deref17hdc7152fc4b7b13f5E', symObjAddr: 0x120, symBinAddr: 0x25EC0, symSize: 0xD }
  - { offset: 0x5A288, size: 0x8, addend: 0x0, symName: __ZN4pyo35types8sequence10PySequence3len17h6ab077326625d72fE, symObjAddr: 0x0, symBinAddr: 0x25DA0, symSize: 0x120 }
  - { offset: 0x5A327, size: 0x8, addend: 0x0, symName: __ZN4core3ptr5write17h2b6e14216fa4c6b5E, symObjAddr: 0xB0, symBinAddr: 0x25ED0, symSize: 0x20 }
  - { offset: 0x5A36A, size: 0x8, addend: 0x0, symName: __ZN4core3ptr5write17h96744e5b88c42b7bE, symObjAddr: 0xD0, symBinAddr: 0x25EF0, symSize: 0x20 }
  - { offset: 0x5A3AD, size: 0x8, addend: 0x0, symName: __ZN4core3ptr5write17ha54870435870ad41E, symObjAddr: 0xF0, symBinAddr: 0x25F10, symSize: 0x1C }
  - { offset: 0x5B103, size: 0x8, addend: 0x0, symName: __ZN8pyo3_ffi10boolobject7Py_True17h62bc790d867e96b6E, symObjAddr: 0x0, symBinAddr: 0x25F30, symSize: 0x10 }
  - { offset: 0x5B11A, size: 0x8, addend: 0x0, symName: __ZN8pyo3_ffi10boolobject7Py_True17h62bc790d867e96b6E, symObjAddr: 0x0, symBinAddr: 0x25F30, symSize: 0x10 }
  - { offset: 0x5B137, size: 0x8, addend: 0x0, symName: __ZN8pyo3_ffi10boolobject8Py_False17hecc26648554e6b7cE, symObjAddr: 0x10, symBinAddr: 0x25F40, symSize: 0xD }
  - { offset: 0x5B1EC, size: 0x8, addend: 0x0, symName: __ZN4pyo33gil7GILPool3new17hcf0bfb96dc07ea59E, symObjAddr: 0x0, symBinAddr: 0x25F50, symSize: 0x40 }
  - { offset: 0x5B3E5, size: 0x8, addend: 0x0, symName: __ZN4pyo33gil7GILPool3new17hcf0bfb96dc07ea59E, symObjAddr: 0x0, symBinAddr: 0x25F50, symSize: 0x40 }
  - { offset: 0x5B41B, size: 0x8, addend: 0x0, symName: __ZN4pyo33gil7GILPool6python17h013111e7e35ee2cfE, symObjAddr: 0x40, symBinAddr: 0x25F90, symSize: 0x17 }
  - { offset: 0x5B45C, size: 0x8, addend: 0x0, symName: __ZN4core9core_arch3x867__m128i8as_i8x1617hc99f823e0b6ed6fcE, symObjAddr: 0x0, symBinAddr: 0x25FB0, symSize: 0x11 }
  - { offset: 0x5B4F0, size: 0x8, addend: 0x0, symName: __ZN4core9core_arch3x867__m128i8as_i8x1617hc99f823e0b6ed6fcE, symObjAddr: 0x0, symBinAddr: 0x25FB0, symSize: 0x11 }
  - { offset: 0x5B531, size: 0x8, addend: 0x0, symName: '__ZN104_$LT$T$u20$as$u20$pyo3..callback..IntoPyCallbackOutput$LT$$BP$mut$u20$pyo3_ffi..object..PyObject$GT$$GT$7convert17h22cc93859510e576E', symObjAddr: 0x0, symBinAddr: 0x25FD0, symSize: 0x50 }
  - { offset: 0x5B5CE, size: 0x8, addend: 0x0, symName: '__ZN104_$LT$T$u20$as$u20$pyo3..callback..IntoPyCallbackOutput$LT$$BP$mut$u20$pyo3_ffi..object..PyObject$GT$$GT$7convert17h22cc93859510e576E', symObjAddr: 0x0, symBinAddr: 0x25FD0, symSize: 0x50 }
  - { offset: 0x5B628, size: 0x8, addend: 0x0, symName: '__ZN124_$LT$pyo3..instance..Py$LT$pyo3..types..any..PyAny$GT$$u20$as$u20$core..convert..From$LT$pyo3..instance..Py$LT$T$GT$$GT$$GT$4from17h067488bfcff97595E', symObjAddr: 0x50, symBinAddr: 0x26020, symSize: 0x20 }
  - { offset: 0x5B665, size: 0x8, addend: 0x0, symName: '__ZN133_$LT$$RF$pyo3..instance..Py$LT$T$GT$$u20$as$u20$pyo3..conversion..IntoPy$LT$pyo3..instance..Py$LT$pyo3..types..any..PyAny$GT$$GT$$GT$7into_py17hb180d4ca682eccdeE', symObjAddr: 0x70, symBinAddr: 0x26040, symSize: 0x20 }
  - { offset: 0x5B8B8, size: 0x8, addend: 0x0, symName: '__ZN4pyo38instance11Py$LT$T$GT$24from_borrowed_ptr_or_opt28_$u7b$$u7b$closure$u7d$$u7d$17h68844963282aa570E', symObjAddr: 0x370, symBinAddr: 0x26340, symSize: 0xE0 }
  - { offset: 0x5BA00, size: 0x8, addend: 0x0, symName: '__ZN66_$LT$pyo3..instance..Py$LT$T$GT$$u20$as$u20$core..clone..Clone$GT$5clone17h9b13103f2bd3ed3dE', symObjAddr: 0x840, symBinAddr: 0x26810, symSize: 0x30 }
  - { offset: 0x5BA3D, size: 0x8, addend: 0x0, symName: '__ZN78_$LT$pyo3..instance..Py$LT$T$GT$$u20$as$u20$pyo3..conversion..FromPyObject$GT$7extract17h4f41db81572a5058E', symObjAddr: 0x8D0, symBinAddr: 0x268A0, symSize: 0x40 }
  - { offset: 0x5BA74, size: 0x8, addend: 0x0, symName: '__ZN78_$LT$pyo3..instance..Py$LT$T$GT$$u20$as$u20$pyo3..conversion..FromPyObject$GT$7extract17h79e9215aa86b7ea4E', symObjAddr: 0x910, symBinAddr: 0x268E0, symSize: 0x40 }
  - { offset: 0x5BAB0, size: 0x8, addend: 0x0, symName: '__ZN78_$LT$pyo3..instance..Py$LT$T$GT$$u20$as$u20$pyo3..conversion..FromPyObject$GT$7extract28_$u7b$$u7b$closure$u7d$$u7d$17h05c706b906f98854E', symObjAddr: 0x950, symBinAddr: 0x26920, symSize: 0x30 }
  - { offset: 0x5BAF8, size: 0x8, addend: 0x0, symName: '__ZN78_$LT$pyo3..instance..Py$LT$T$GT$$u20$as$u20$pyo3..conversion..FromPyObject$GT$7extract28_$u7b$$u7b$closure$u7d$$u7d$17h538d561272dfa2c7E', symObjAddr: 0x980, symBinAddr: 0x26950, symSize: 0x30 }
  - { offset: 0x5BBFA, size: 0x8, addend: 0x0, symName: '__ZN4pyo35types5tuple129_$LT$impl$u20$pyo3..conversion..IntoPy$LT$pyo3..instance..Py$LT$pyo3..types..tuple..PyTuple$GT$$GT$$u20$for$u20$$LP$T0$C$$RP$$GT$7into_py17h74194e8e6b2c4b01E', symObjAddr: 0xC0, symBinAddr: 0x26090, symSize: 0x30 }
  - { offset: 0x5BC52, size: 0x8, addend: 0x0, symName: '__ZN4pyo35types5tuple131_$LT$impl$u20$pyo3..conversion..IntoPy$LT$pyo3..instance..Py$LT$pyo3..types..tuple..PyTuple$GT$$GT$$u20$for$u20$$LP$T0$C$T1$RP$$GT$7into_py17h909a9961a71b108fE', symObjAddr: 0xF0, symBinAddr: 0x260C0, symSize: 0xB0 }
  - { offset: 0x5BCAD, size: 0x8, addend: 0x0, symName: '__ZN4pyo35types5tuple131_$LT$impl$u20$pyo3..conversion..IntoPy$LT$pyo3..instance..Py$LT$pyo3..types..tuple..PyTuple$GT$$GT$$u20$for$u20$$LP$T0$C$T1$RP$$GT$7into_py17hb55e35641fedda93E', symObjAddr: 0x1A0, symBinAddr: 0x26170, symSize: 0xB0 }
  - { offset: 0x5BE60, size: 0x8, addend: 0x0, symName: '__ZN56_$LT$T$u20$as$u20$pyo3..impl_..wrap..OkWrap$LT$T$GT$$GT$4wrap17h066933c66624aae6E', symObjAddr: 0x800, symBinAddr: 0x267D0, symSize: 0x40 }
  - { offset: 0x5BEBA, size: 0x8, addend: 0x0, symName: '__ZN71_$LT$T$u20$as$u20$pyo3..impl_..extract_argument..PyFunctionArgument$GT$7extract17h22440fd0cd3b6f8eE', symObjAddr: 0x870, symBinAddr: 0x26840, symSize: 0x30 }
  - { offset: 0x5BEF9, size: 0x8, addend: 0x0, symName: '__ZN71_$LT$T$u20$as$u20$pyo3..impl_..extract_argument..PyFunctionArgument$GT$7extract17h84dd9fc6d9e9be7dE', symObjAddr: 0x8A0, symBinAddr: 0x26870, symSize: 0x30 }
  - { offset: 0x5C044, size: 0x8, addend: 0x0, symName: '__ZN54_$LT$$RF$T$u20$as$u20$pyo3..conversion..ToPyObject$GT$9to_object17hb8684bebd25aea42E', symObjAddr: 0x7E0, symBinAddr: 0x267B0, symSize: 0x20 }
  - { offset: 0x5C1A4, size: 0x8, addend: 0x0, symName: '__ZN4core5slice29_$LT$impl$u20$$u5b$T$u5d$$GT$3get17h295ca62847bf99e6E', symObjAddr: 0x90, symBinAddr: 0x26060, symSize: 0x30 }
  - { offset: 0x5C949, size: 0x8, addend: 0x0, symName: '__ZN50_$LT$T$u20$as$u20$core..convert..Into$LT$U$GT$$GT$4into17h1672016d54020079E', symObjAddr: 0x7C0, symBinAddr: 0x26790, symSize: 0x20 }
  - { offset: 0x5C9C8, size: 0x8, addend: 0x0, symName: '__ZN4pyo38instance11Py$LT$T$GT$13into_non_null17h1bc5ee3df01e6aceE', symObjAddr: 0x250, symBinAddr: 0x26220, symSize: 0x30 }
  - { offset: 0x5CA65, size: 0x8, addend: 0x0, symName: '__ZN4pyo38instance11Py$LT$T$GT$14from_owned_ptr17h7372404001125979E', symObjAddr: 0x280, symBinAddr: 0x26250, symSize: 0x50 }
  - { offset: 0x5D27F, size: 0x8, addend: 0x0, symName: '__ZN4pyo38instance11Py$LT$T$GT$14try_borrow_mut17hca7e55935ff314bfE', symObjAddr: 0x2D0, symBinAddr: 0x262A0, symSize: 0x20 }
  - { offset: 0x5D2C6, size: 0x8, addend: 0x0, symName: '__ZN4pyo38instance11Py$LT$T$GT$17from_borrowed_ptr17h9be8874cda27de5cE', symObjAddr: 0x2F0, symBinAddr: 0x262C0, symSize: 0x50 }
  - { offset: 0x5D30D, size: 0x8, addend: 0x0, symName: '__ZN4pyo38instance11Py$LT$T$GT$24from_borrowed_ptr_or_opt17h9d06f180e47b4cffE', symObjAddr: 0x340, symBinAddr: 0x26310, symSize: 0x30 }
  - { offset: 0x5D354, size: 0x8, addend: 0x0, symName: '__ZN4pyo38instance11Py$LT$T$GT$6as_ptr17hee11581a9413108eE', symObjAddr: 0x450, symBinAddr: 0x26420, symSize: 0x20 }
  - { offset: 0x5D380, size: 0x8, addend: 0x0, symName: '__ZN4pyo38instance11Py$LT$T$GT$6as_ref17h710d81c9f8d85e3aE', symObjAddr: 0x470, symBinAddr: 0x26440, symSize: 0x70 }
  - { offset: 0x5D3F1, size: 0x8, addend: 0x0, symName: '__ZN4pyo38instance11Py$LT$T$GT$7is_none17he7bc933306e57dccE', symObjAddr: 0x4E0, symBinAddr: 0x264B0, symSize: 0x40 }
  - { offset: 0x5D454, size: 0x8, addend: 0x0, symName: '__ZN4pyo38instance11Py$LT$T$GT$8into_ptr17h14701a77a8a40ef7E', symObjAddr: 0x520, symBinAddr: 0x264F0, symSize: 0x80 }
  - { offset: 0x5D4BC, size: 0x8, addend: 0x0, symName: '__ZN4pyo38instance11Py$LT$T$GT$8into_ptr17h74b6415ff4c3dec6E', symObjAddr: 0x5A0, symBinAddr: 0x26570, symSize: 0x80 }
  - { offset: 0x5D524, size: 0x8, addend: 0x0, symName: '__ZN4pyo38instance11Py$LT$T$GT$8into_ptr17h892cb006b39a5897E', symObjAddr: 0x620, symBinAddr: 0x265F0, symSize: 0x80 }
  - { offset: 0x5D58C, size: 0x8, addend: 0x0, symName: '__ZN4pyo38instance11Py$LT$T$GT$8into_ptr17hf6cf1af8b7d95519E', symObjAddr: 0x6A0, symBinAddr: 0x26670, symSize: 0x80 }
  - { offset: 0x5D5F4, size: 0x8, addend: 0x0, symName: '__ZN4pyo38instance11Py$LT$T$GT$8into_ptr17hf7d9b6ecd07ddfe3E', symObjAddr: 0x720, symBinAddr: 0x266F0, symSize: 0x80 }
  - { offset: 0x5D669, size: 0x8, addend: 0x0, symName: '__ZN4pyo38instance11Py$LT$T$GT$8into_ref17h9d7b22e175803820E', symObjAddr: 0x7A0, symBinAddr: 0x26770, symSize: 0x20 }
  - { offset: 0x5D7C0, size: 0x8, addend: 0x0, symName: __ZN4core3ptr19copy_nonoverlapping18precondition_check17h0c6b8802296dfd9aE, symObjAddr: 0x0, symBinAddr: 0x26980, symSize: 0x150 }
  - { offset: 0x5D9A9, size: 0x8, addend: 0x0, symName: __ZN4core3ptr19copy_nonoverlapping18precondition_check17h0c6b8802296dfd9aE, symObjAddr: 0x0, symBinAddr: 0x26980, symSize: 0x150 }
  - { offset: 0x5DBCB, size: 0x8, addend: 0x0, symName: __ZN4core3ptr4copy18precondition_check17hb466b0fdd205e949E, symObjAddr: 0x4E0, symBinAddr: 0x26AD0, symSize: 0x112 }
  - { offset: 0x5DDFE, size: 0x8, addend: 0x0, symName: _PyInit_tachyon_rs, symObjAddr: 0x0, symBinAddr: 0x26BF0, symSize: 0x29 }
  - { offset: 0x5DE22, size: 0x8, addend: 0x0, symName: __ZN10tachyon_rs10tachyon_rs3DEF17ha8cde5cb6caac3ceE, symObjAddr: 0x48, symBinAddr: 0xD4EE8, symSize: 0x0 }
  - { offset: 0x5DE2F, size: 0x8, addend: 0x0, symName: _PyInit_tachyon_rs, symObjAddr: 0x0, symBinAddr: 0x26BF0, symSize: 0x29 }
  - { offset: 0x5EAC6, size: 0x8, addend: 0x0, symName: __ZN4pyo36marker6Python19assume_gil_acquired17h5dcd2b950d1a077dE, symObjAddr: 0x0, symBinAddr: 0x26C20, symSize: 0x10 }
  - { offset: 0x5ED9F, size: 0x8, addend: 0x0, symName: __ZN4pyo36marker6Python19assume_gil_acquired17h5dcd2b950d1a077dE, symObjAddr: 0x0, symBinAddr: 0x26C20, symSize: 0x10 }
  - { offset: 0x5EDEE, size: 0x8, addend: 0x0, symName: __ZN4pyo36marker6Python4None17h78ebe07ce6661d8cE, symObjAddr: 0x10, symBinAddr: 0x26C30, symSize: 0x22 }
  - { offset: 0x5EE3B, size: 0x8, addend: 0x0, symName: '__ZN4core3ptr8non_null16NonNull$LT$T$GT$20offset_from_unsigned17h3d9e3276f433e6f3E', symObjAddr: 0x0, symBinAddr: 0x26C60, symSize: 0x60 }
  - { offset: 0x5F702, size: 0x8, addend: 0x0, symName: '__ZN4core3ptr8non_null16NonNull$LT$T$GT$20offset_from_unsigned17h3d9e3276f433e6f3E', symObjAddr: 0x0, symBinAddr: 0x26C60, symSize: 0x60 }
  - { offset: 0x5FAA9, size: 0x8, addend: 0x0, symName: '__ZN4core3ptr8non_null16NonNull$LT$T$GT$20offset_from_unsigned17h50581636cc24a522E', symObjAddr: 0x60, symBinAddr: 0x26CC0, symSize: 0x70 }
  - { offset: 0x5FBB3, size: 0x8, addend: 0x0, symName: '__ZN4core3ptr8non_null16NonNull$LT$T$GT$20offset_from_unsigned17ha940c65d45bdbcebE', symObjAddr: 0xD0, symBinAddr: 0x26D30, symSize: 0x60 }
  - { offset: 0x5FCBD, size: 0x8, addend: 0x0, symName: '__ZN4core3ptr8non_null16NonNull$LT$T$GT$20offset_from_unsigned17hed2cf4af5e6b48b4E', symObjAddr: 0x130, symBinAddr: 0x26D90, symSize: 0x70 }
  - { offset: 0x5FE26, size: 0x8, addend: 0x0, symName: '__ZN4core3ptr8non_null16NonNull$LT$T$GT$3new17h86cd92eb98a5f5daE', symObjAddr: 0x1A0, symBinAddr: 0x26E00, symSize: 0x50 }
  - { offset: 0x5FEE5, size: 0x8, addend: 0x0, symName: '__ZN4core3ptr8non_null16NonNull$LT$T$GT$3new17h99dd707897de82b0E', symObjAddr: 0x1F0, symBinAddr: 0x26E50, symSize: 0x44 }
  - { offset: 0x5FF8D, size: 0x8, addend: 0x0, symName: '__ZN9inventory1_87_$LT$impl$u20$core..ops..deref..Deref$u20$for$u20$inventory..private..iter$LT$T$GT$$GT$5deref17h205b22d54e47e46fE', symObjAddr: 0x0, symBinAddr: 0x26EA0, symSize: 0x20 }
  - { offset: 0x6052A, size: 0x8, addend: 0x0, symName: '__ZN9inventory1_87_$LT$impl$u20$core..ops..deref..Deref$u20$for$u20$inventory..private..iter$LT$T$GT$$GT$5deref17h205b22d54e47e46fE', symObjAddr: 0x0, symBinAddr: 0x26EA0, symSize: 0x20 }
  - { offset: 0x60561, size: 0x8, addend: 0x0, symName: '__ZN9inventory1_87_$LT$impl$u20$core..ops..deref..Deref$u20$for$u20$inventory..private..iter$LT$T$GT$$GT$5deref17hcb2d5e467153ce35E', symObjAddr: 0x20, symBinAddr: 0x26EC0, symSize: 0x20 }
  - { offset: 0x60598, size: 0x8, addend: 0x0, symName: '__ZN9inventory1_87_$LT$impl$u20$core..ops..deref..Deref$u20$for$u20$inventory..private..iter$LT$T$GT$$GT$5deref17he31e857ae3fde8e7E', symObjAddr: 0x40, symBinAddr: 0x26EE0, symSize: 0x11 }
  - { offset: 0x6108C, size: 0x8, addend: 0x0, symName: __ZN4pyo35impl_16extract_argument16extract_argument17h0b2a4c17d08bbc43E, symObjAddr: 0x0, symBinAddr: 0x26F00, symSize: 0x190 }
  - { offset: 0x623C2, size: 0x8, addend: 0x0, symName: __ZN4pyo35impl_16extract_argument16extract_argument17h0b2a4c17d08bbc43E, symObjAddr: 0x0, symBinAddr: 0x26F00, symSize: 0x190 }
  - { offset: 0x62446, size: 0x8, addend: 0x0, symName: __ZN4pyo35impl_16extract_argument16extract_argument17h7407604c46edf96eE, symObjAddr: 0x190, symBinAddr: 0x27090, symSize: 0x190 }
  - { offset: 0x624CA, size: 0x8, addend: 0x0, symName: __ZN4pyo35impl_16extract_argument16extract_argument17h787d7e85ceb54629E, symObjAddr: 0x320, symBinAddr: 0x27220, symSize: 0x1D0 }
  - { offset: 0x6254F, size: 0x8, addend: 0x0, symName: __ZN4pyo35impl_16extract_argument16extract_argument17hc25221990e77932cE, symObjAddr: 0x4F0, symBinAddr: 0x273F0, symSize: 0x190 }
  - { offset: 0x625D3, size: 0x8, addend: 0x0, symName: __ZN4pyo35impl_16extract_argument16extract_argument17hcf669a15d75afb51E, symObjAddr: 0x680, symBinAddr: 0x27580, symSize: 0x1D0 }
  - { offset: 0x62658, size: 0x8, addend: 0x0, symName: __ZN4pyo35impl_16extract_argument16extract_argument17hedd61beea3ba6923E, symObjAddr: 0x850, symBinAddr: 0x27750, symSize: 0x190 }
  - { offset: 0x626DC, size: 0x8, addend: 0x0, symName: __ZN4pyo35impl_16extract_argument16extract_argument17hfd281d66a20aec4cE, symObjAddr: 0x9E0, symBinAddr: 0x278E0, symSize: 0x1B0 }
  - { offset: 0x62865, size: 0x8, addend: 0x0, symName: '__ZN4pyo35impl_16extract_argument19FunctionDescription36find_keyword_parameter_in_positional28_$u7b$$u7b$closure$u7d$$u7d$17h271ca0052722381cE', symObjAddr: 0x1B70, symBinAddr: 0x28A70, symSize: 0x40 }
  - { offset: 0x628C5, size: 0x8, addend: 0x0, symName: '__ZN4pyo35impl_16extract_argument19FunctionDescription38find_keyword_parameter_in_keyword_only28_$u7b$$u7b$closure$u7d$$u7d$17h81510bf91deb8c0eE', symObjAddr: 0x1BB0, symBinAddr: 0x28AB0, symSize: 0x30 }
  - { offset: 0x62907, size: 0x8, addend: 0x0, symName: __ZN4pyo35impl_16extract_argument19extract_pyclass_ref17h7076e85ed11a7a18E, symObjAddr: 0x1BE0, symBinAddr: 0x28AE0, symSize: 0x100 }
  - { offset: 0x62968, size: 0x8, addend: 0x0, symName: __ZN4pyo35impl_16extract_argument19extract_pyclass_ref17hcce7565c9746ca5bE, symObjAddr: 0x1CE0, symBinAddr: 0x28BE0, symSize: 0x100 }
  - { offset: 0x629C9, size: 0x8, addend: 0x0, symName: __ZN4pyo35impl_16extract_argument19extract_pyclass_ref17hdf4ad68629db1a8aE, symObjAddr: 0x1DE0, symBinAddr: 0x28CE0, symSize: 0x100 }
  - { offset: 0x62A2A, size: 0x8, addend: 0x0, symName: __ZN4pyo35impl_16extract_argument23extract_pyclass_ref_mut17h2a0b3de5fbbc3e75E, symObjAddr: 0x1EE0, symBinAddr: 0x28DE0, symSize: 0x100 }
  - { offset: 0x62A8B, size: 0x8, addend: 0x0, symName: __ZN4pyo35impl_16extract_argument23extract_pyclass_ref_mut17heea713baf605f877E, symObjAddr: 0x1FE0, symBinAddr: 0x28EE0, symSize: 0x100 }
  - { offset: 0x62AEC, size: 0x8, addend: 0x0, symName: __ZN4pyo35impl_16extract_argument23extract_pyclass_ref_mut17hf0c5c8954513c9c9E, symObjAddr: 0x20E0, symBinAddr: 0x28FE0, symSize: 0x100 }
  - { offset: 0x62B4D, size: 0x8, addend: 0x0, symName: __ZN4pyo35impl_16extract_argument25extract_optional_argument17h932760050036ab11E, symObjAddr: 0x21E0, symBinAddr: 0x290E0, symSize: 0xE0 }
  - { offset: 0x62BC2, size: 0x8, addend: 0x0, symName: __ZN4pyo35impl_16extract_argument25extract_optional_argument17hce7e30cde470c9ffE, symObjAddr: 0x22C0, symBinAddr: 0x291C0, symSize: 0xE0 }
  - { offset: 0x62C3C, size: 0x8, addend: 0x0, symName: '__ZN71_$LT$T$u20$as$u20$pyo3..impl_..extract_argument..PyFunctionArgument$GT$7extract17h882b3560b5d485b2E', symObjAddr: 0x23A0, symBinAddr: 0x292A0, symSize: 0x30 }
  - { offset: 0x62C7B, size: 0x8, addend: 0x0, symName: '__ZN71_$LT$T$u20$as$u20$pyo3..impl_..extract_argument..PyFunctionArgument$GT$7extract17hb04b96e0d520ac9dE', symObjAddr: 0x23D0, symBinAddr: 0x292D0, symSize: 0x26 }
  - { offset: 0x63469, size: 0x8, addend: 0x0, symName: __ZN4pyo35impl_16extract_argument19FunctionDescription13handle_kwargs17h9ba2dcaaa2908892E, symObjAddr: 0xB90, symBinAddr: 0x27A90, symSize: 0x970 }
  - { offset: 0x636A9, size: 0x8, addend: 0x0, symName: __ZN4pyo35impl_16extract_argument19FunctionDescription28extract_arguments_tuple_dict17hd6c4dcab192dec9eE, symObjAddr: 0x1500, symBinAddr: 0x28400, symSize: 0x670 }
  - { offset: 0x64286, size: 0x8, addend: 0x0, symName: '__ZN78_$LT$pyo3..exceptions..PyKeyError$u20$as$u20$pyo3..type_object..PyTypeInfo$GT$15type_object_raw17h8b38a9554d284902E', symObjAddr: 0x0, symBinAddr: 0x29300, symSize: 0x20 }
  - { offset: 0x642E8, size: 0x8, addend: 0x0, symName: '__ZN78_$LT$pyo3..exceptions..PyKeyError$u20$as$u20$pyo3..type_object..PyTypeInfo$GT$15type_object_raw17h8b38a9554d284902E', symObjAddr: 0x0, symBinAddr: 0x29300, symSize: 0x20 }
  - { offset: 0x64325, size: 0x8, addend: 0x0, symName: '__ZN80_$LT$pyo3..exceptions..PyIndexError$u20$as$u20$pyo3..type_object..PyTypeInfo$GT$15type_object_raw17h7ff8aafec06f28b8E', symObjAddr: 0x20, symBinAddr: 0x29320, symSize: 0x18 }
  - { offset: 0x64531, size: 0x8, addend: 0x0, symName: '__ZN4pyo311conversions3std3num115_$LT$impl$u20$pyo3..conversion..IntoPy$LT$pyo3..instance..Py$LT$pyo3..types..any..PyAny$GT$$GT$$u20$for$u20$u64$GT$7into_py17hc66c9d3348f9dfc8E', symObjAddr: 0x0, symBinAddr: 0x29340, symSize: 0x20 }
  - { offset: 0x645BE, size: 0x8, addend: 0x0, symName: '__ZN4pyo311conversions3std3num115_$LT$impl$u20$pyo3..conversion..IntoPy$LT$pyo3..instance..Py$LT$pyo3..types..any..PyAny$GT$$GT$$u20$for$u20$u64$GT$7into_py17hc66c9d3348f9dfc8E', symObjAddr: 0x0, symBinAddr: 0x29340, symSize: 0x20 }
  - { offset: 0x64609, size: 0x8, addend: 0x0, symName: '__ZN4pyo311conversions3std3num64_$LT$impl$u20$pyo3..conversion..ToPyObject$u20$for$u20$usize$GT$9to_object17hdc5ea68a03103d79E', symObjAddr: 0x20, symBinAddr: 0x29360, symSize: 0x1A }
  - { offset: 0x648F7, size: 0x8, addend: 0x0, symName: '__ZN63_$LT$I$u20$as$u20$core..iter..traits..collect..IntoIterator$GT$9into_iter17h5efdb86c4dbc20a3E', symObjAddr: 0x0, symBinAddr: 0x29380, symSize: 0xD }
  - { offset: 0x6491D, size: 0x8, addend: 0x0, symName: '__ZN63_$LT$I$u20$as$u20$core..iter..traits..collect..IntoIterator$GT$9into_iter17h5efdb86c4dbc20a3E', symObjAddr: 0x0, symBinAddr: 0x29380, symSize: 0xD }
  - { offset: 0x64A5B, size: 0x8, addend: 0x0, symName: '__ZN4core3fmt3num52_$LT$impl$u20$core..fmt..Debug$u20$for$u20$isize$GT$3fmt17hffb6ac2f2a86f2c5E', symObjAddr: 0x0, symBinAddr: 0x29390, symSize: 0x7F }
  - { offset: 0x64AF6, size: 0x8, addend: 0x0, symName: '__ZN4core3fmt3num52_$LT$impl$u20$core..fmt..Debug$u20$for$u20$isize$GT$3fmt17hffb6ac2f2a86f2c5E', symObjAddr: 0x0, symBinAddr: 0x29390, symSize: 0x7F }
  - { offset: 0x64CE7, size: 0x8, addend: 0x0, symName: '__ZN92_$LT$hashbrown..map..Iter$LT$K$C$V$GT$$u20$as$u20$core..iter..traits..iterator..Iterator$GT$4next17he19987c1752faef4E', symObjAddr: 0x0, symBinAddr: 0x29410, symSize: 0xE0 }
  - { offset: 0x65467, size: 0x8, addend: 0x0, symName: '__ZN92_$LT$hashbrown..map..Iter$LT$K$C$V$GT$$u20$as$u20$core..iter..traits..iterator..Iterator$GT$4next17he19987c1752faef4E', symObjAddr: 0x0, symBinAddr: 0x29410, symSize: 0xE0 }
  - { offset: 0x655C2, size: 0x8, addend: 0x0, symName: '__ZN9hashbrown3map11make_hasher28_$u7b$$u7b$closure$u7d$$u7d$17h1710cb465907b2cfE', symObjAddr: 0xE0, symBinAddr: 0x294F0, symSize: 0x30 }
  - { offset: 0x6563E, size: 0x8, addend: 0x0, symName: '__ZN9hashbrown3map11make_hasher28_$u7b$$u7b$closure$u7d$$u7d$17h2a00f4e6360d7467E', symObjAddr: 0x110, symBinAddr: 0x29520, symSize: 0x30 }
  - { offset: 0x656BA, size: 0x8, addend: 0x0, symName: '__ZN9hashbrown3map11make_hasher28_$u7b$$u7b$closure$u7d$$u7d$17he223eac96d991075E', symObjAddr: 0x140, symBinAddr: 0x29550, symSize: 0x30 }
  - { offset: 0x657AE, size: 0x8, addend: 0x0, symName: '__ZN9hashbrown3map14equivalent_key28_$u7b$$u7b$closure$u7d$$u7d$17hd61358c46db98b48E', symObjAddr: 0x170, symBinAddr: 0x29580, symSize: 0x20 }
  - { offset: 0x65805, size: 0x8, addend: 0x0, symName: '__ZN9hashbrown3map14equivalent_key28_$u7b$$u7b$closure$u7d$$u7d$17hf09c02cf2840a0cfE', symObjAddr: 0x190, symBinAddr: 0x295A0, symSize: 0x20 }
  - { offset: 0x6585C, size: 0x8, addend: 0x0, symName: '__ZN9hashbrown3map14equivalent_key28_$u7b$$u7b$closure$u7d$$u7d$17hfece3ace99cd54b8E', symObjAddr: 0x1B0, symBinAddr: 0x295C0, symSize: 0x20 }
  - { offset: 0x67002, size: 0x8, addend: 0x0, symName: '__ZN9hashbrown3map24HashMap$LT$K$C$V$C$S$GT$24with_capacity_and_hasher17h8e4211af9a2bee1eE', symObjAddr: 0x1D0, symBinAddr: 0x295E0, symSize: 0x90 }
  - { offset: 0x67185, size: 0x8, addend: 0x0, symName: '__ZN9hashbrown3map28HashMap$LT$K$C$V$C$S$C$A$GT$12contains_key17h07d5e6a7a5749fedE', symObjAddr: 0x260, symBinAddr: 0x29670, symSize: 0x100 }
  - { offset: 0x6733C, size: 0x8, addend: 0x0, symName: '__ZN9hashbrown3map28HashMap$LT$K$C$V$C$S$C$A$GT$12remove_entry17hf069e6439472fbcbE', symObjAddr: 0x360, symBinAddr: 0x29770, symSize: 0x60 }
  - { offset: 0x674BA, size: 0x8, addend: 0x0, symName: '__ZN9hashbrown3map28HashMap$LT$K$C$V$C$S$C$A$GT$3get17h4e25d9081cc0be38E', symObjAddr: 0x3C0, symBinAddr: 0x297D0, symSize: 0x100 }
  - { offset: 0x6779D, size: 0x8, addend: 0x0, symName: '__ZN9hashbrown3map28HashMap$LT$K$C$V$C$S$C$A$GT$3get17h85f655b8428f4699E', symObjAddr: 0x4C0, symBinAddr: 0x298D0, symSize: 0x100 }
  - { offset: 0x67C78, size: 0x8, addend: 0x0, symName: '__ZN9hashbrown3map28HashMap$LT$K$C$V$C$S$C$A$GT$3get17hb0f8613dfafe649dE', symObjAddr: 0x5C0, symBinAddr: 0x299D0, symSize: 0x100 }
  - { offset: 0x67FAE, size: 0x8, addend: 0x0, symName: '__ZN9hashbrown3map28HashMap$LT$K$C$V$C$S$C$A$GT$4iter17he979ce8a9b78a04fE', symObjAddr: 0x6C0, symBinAddr: 0x29AD0, symSize: 0xE0 }
  - { offset: 0x68287, size: 0x8, addend: 0x0, symName: '__ZN9hashbrown3map28HashMap$LT$K$C$V$C$S$C$A$GT$6insert17h45e76150e7648e6bE', symObjAddr: 0x7A0, symBinAddr: 0x29BB0, symSize: 0x250 }
  - { offset: 0x685B3, size: 0x8, addend: 0x0, symName: '__ZN9hashbrown3map28HashMap$LT$K$C$V$C$S$C$A$GT$6insert17h4c0e09a459c9584eE', symObjAddr: 0x9F0, symBinAddr: 0x29E00, symSize: 0x2A0 }
  - { offset: 0x688D4, size: 0x8, addend: 0x0, symName: '__ZN9hashbrown3map28HashMap$LT$K$C$V$C$S$C$A$GT$6insert17hbffb7c764f5d0b22E', symObjAddr: 0xC90, symBinAddr: 0x2A0A0, symSize: 0x240 }
  - { offset: 0x68AC5, size: 0x8, addend: 0x0, symName: '__ZN9hashbrown3map28HashMap$LT$K$C$V$C$S$C$A$GT$6remove17h2c041aa70e25368cE', symObjAddr: 0xED0, symBinAddr: 0x2A2E0, symSize: 0x8A }
  - { offset: 0x68B6D, size: 0x8, addend: 0x0, symName: '__ZN4core3cmp5impls56_$LT$impl$u20$core..cmp..PartialEq$u20$for$u20$usize$GT$2eq17h1d05810173381248E', symObjAddr: 0x0, symBinAddr: 0x2A370, symSize: 0x19 }
  - { offset: 0x68B8E, size: 0x8, addend: 0x0, symName: '__ZN4core3cmp5impls56_$LT$impl$u20$core..cmp..PartialEq$u20$for$u20$usize$GT$2eq17h1d05810173381248E', symObjAddr: 0x0, symBinAddr: 0x2A370, symSize: 0x19 }
  - { offset: 0x68C08, size: 0x8, addend: 0x0, symName: '__ZN10tachyon_rs6engine1_1_11__INVENTORY10trampoline196_$LT$impl$u20$pyo3..impl_..pyclass..PyClassNewTextSignature$LT$tachyon_rs..engine..TrackedDict$GT$$u20$for$u20$pyo3..impl_..pyclass..PyClassImplCollector$LT$tachyon_rs..engine..TrackedDict$GT$$GT$18new_text_signature17h9a4d4c158020004bE', symObjAddr: 0x0, symBinAddr: 0x2A390, symSize: 0x20 }
  - { offset: 0x68C9F, size: 0x8, addend: 0x0, symName: '__ZN10tachyon_rs6engine1_1_11__INVENTORY10trampoline196_$LT$impl$u20$pyo3..impl_..pyclass..PyClassNewTextSignature$LT$tachyon_rs..engine..TrackedDict$GT$$u20$for$u20$pyo3..impl_..pyclass..PyClassImplCollector$LT$tachyon_rs..engine..TrackedDict$GT$$GT$18new_text_signature17h9a4d4c158020004bE', symObjAddr: 0x0, symBinAddr: 0x2A390, symSize: 0x20 }
  - { offset: 0x68CD9, size: 0x8, addend: 0x0, symName: '__ZN10tachyon_rs6engine1_1_11__INVENTORY10trampoline196_$LT$impl$u20$pyo3..impl_..pyclass..PyClassNewTextSignature$LT$tachyon_rs..engine..TrackedList$GT$$u20$for$u20$pyo3..impl_..pyclass..PyClassImplCollector$LT$tachyon_rs..engine..TrackedList$GT$$GT$18new_text_signature17hefce5285c1c670c0E', symObjAddr: 0x20, symBinAddr: 0x2A3B0, symSize: 0x20 }
  - { offset: 0x68D13, size: 0x8, addend: 0x0, symName: '__ZN10tachyon_rs6engine1_1_11__INVENTORY10trampoline200_$LT$impl$u20$pyo3..impl_..pyclass..PyClassNewTextSignature$LT$tachyon_rs..engine..TachyonEngine$GT$$u20$for$u20$pyo3..impl_..pyclass..PyClassImplCollector$LT$tachyon_rs..engine..TachyonEngine$GT$$GT$18new_text_signature17he8b28f09d5e3a622E', symObjAddr: 0x40, symBinAddr: 0x2A3D0, symSize: 0x20 }
  - { offset: 0x68D53, size: 0x8, addend: 0x0, symName: '__ZN10tachyon_rs6engine1_203_$LT$impl$u20$pyo3..impl_..pyclass..PyClass__delitem__SlotFragment$LT$tachyon_rs..engine..TrackedDict$GT$$u20$for$u20$pyo3..impl_..pyclass..PyClassImplCollector$LT$tachyon_rs..engine..TrackedDict$GT$$GT$11__delitem__17h88053055add7d37bE', symObjAddr: 0x60, symBinAddr: 0x2A3F0, symSize: 0x30 }
  - { offset: 0x68DCC, size: 0x8, addend: 0x0, symName: '__ZN10tachyon_rs6engine1_203_$LT$impl$u20$pyo3..impl_..pyclass..PyClass__setitem__SlotFragment$LT$tachyon_rs..engine..TrackedDict$GT$$u20$for$u20$pyo3..impl_..pyclass..PyClassImplCollector$LT$tachyon_rs..engine..TrackedDict$GT$$GT$11__setitem__17hfd20158790b9a9b1E', symObjAddr: 0x90, symBinAddr: 0x2A420, symSize: 0x2A }
  - { offset: 0x69ED7, size: 0x8, addend: 0x0, symName: '__ZN106_$LT$pyo3..impl_..extract_argument..NoVarargs$u20$as$u20$pyo3..impl_..extract_argument..VarargsHandler$GT$20handle_varargs_tuple17h781e8bbb3b598864E', symObjAddr: 0x0, symBinAddr: 0x2A450, symSize: 0xA0 }
  - { offset: 0x69EF8, size: 0x8, addend: 0x0, symName: '__ZN106_$LT$pyo3..impl_..extract_argument..NoVarargs$u20$as$u20$pyo3..impl_..extract_argument..VarargsHandler$GT$20handle_varargs_tuple17h781e8bbb3b598864E', symObjAddr: 0x0, symBinAddr: 0x2A450, symSize: 0xA0 }
  - { offset: 0x69F77, size: 0x8, addend: 0x0, symName: '__ZN114_$LT$pyo3..impl_..extract_argument..NoVarkeywords$u20$as$u20$pyo3..impl_..extract_argument..VarkeywordsHandler$GT$17handle_varkeyword17h265e41fda4e46337E', symObjAddr: 0xA0, symBinAddr: 0x2A4F0, symSize: 0x70 }
  - { offset: 0x6A0B6, size: 0x8, addend: 0x0, symName: __ZN4pyo35impl_16extract_argument24unwrap_required_argument17hb10ed8aad29d193cE, symObjAddr: 0x540, symBinAddr: 0x2A990, symSize: 0x58 }
  - { offset: 0x6A9F4, size: 0x8, addend: 0x0, symName: __ZN4pyo35impl_16extract_argument19FunctionDescription36find_keyword_parameter_in_positional17h270302b9d977710cE, symObjAddr: 0x110, symBinAddr: 0x2A560, symSize: 0x40 }
  - { offset: 0x6AA26, size: 0x8, addend: 0x0, symName: __ZN4pyo35impl_16extract_argument19FunctionDescription38find_keyword_parameter_in_keyword_only17h87b85814b5dc386eE, symObjAddr: 0x150, symBinAddr: 0x2A5A0, symSize: 0x40 }
  - { offset: 0x6AB52, size: 0x8, addend: 0x0, symName: __ZN4pyo35impl_16extract_argument19FunctionDescription44ensure_no_missing_required_keyword_arguments17h3cc46f2a1a251daaE, symObjAddr: 0x190, symBinAddr: 0x2A5E0, symSize: 0x1B0 }
  - { offset: 0x6AC1D, size: 0x8, addend: 0x0, symName: __ZN4pyo35impl_16extract_argument19FunctionDescription47ensure_no_missing_required_positional_arguments17hba477a9b9881ea3bE, symObjAddr: 0x340, symBinAddr: 0x2A790, symSize: 0x200 }
  - { offset: 0x6ADA4, size: 0x8, addend: 0x0, symName: '__ZN4pyo35impl_7pyclass16lazy_type_object23LazyTypeObject$LT$T$GT$11get_or_init17h0e254840d0964e55E', symObjAddr: 0x0, symBinAddr: 0x2A9F0, symSize: 0x40 }
  - { offset: 0x6AFB3, size: 0x8, addend: 0x0, symName: '__ZN4pyo35impl_7pyclass16lazy_type_object23LazyTypeObject$LT$T$GT$11get_or_init28_$u7b$$u7b$closure$u7d$$u7d$17h11d65b7ebd5d0acaE', symObjAddr: 0xC0, symBinAddr: 0x2AAB0, symSize: 0xB0 }
  - { offset: 0x6B03D, size: 0x8, addend: 0x0, symName: '__ZN4pyo35impl_7pyclass16lazy_type_object23LazyTypeObject$LT$T$GT$11get_or_init28_$u7b$$u7b$closure$u7d$$u7d$17h5bdc33072004cc9dE', symObjAddr: 0x170, symBinAddr: 0x2AB60, symSize: 0xB0 }
  - { offset: 0x6B0C7, size: 0x8, addend: 0x0, symName: '__ZN4pyo35impl_7pyclass16lazy_type_object23LazyTypeObject$LT$T$GT$11get_or_init28_$u7b$$u7b$closure$u7d$$u7d$17he82f21e1ab69620aE', symObjAddr: 0x220, symBinAddr: 0x2AC10, symSize: 0xB0 }
  - { offset: 0x6C9B0, size: 0x8, addend: 0x0, symName: '__ZN4pyo35impl_7pyclass16lazy_type_object23LazyTypeObject$LT$T$GT$11get_or_init17h0e254840d0964e55E', symObjAddr: 0x0, symBinAddr: 0x2A9F0, symSize: 0x40 }
  - { offset: 0x6CA01, size: 0x8, addend: 0x0, symName: '__ZN4pyo35impl_7pyclass16lazy_type_object23LazyTypeObject$LT$T$GT$11get_or_init17h72233feeaf30661cE', symObjAddr: 0x40, symBinAddr: 0x2AA30, symSize: 0x40 }
  - { offset: 0x6CA52, size: 0x8, addend: 0x0, symName: '__ZN4pyo35impl_7pyclass16lazy_type_object23LazyTypeObject$LT$T$GT$11get_or_init17hcc7d8fa16cb1c2bfE', symObjAddr: 0x80, symBinAddr: 0x2AA70, symSize: 0x40 }
  - { offset: 0x6CA96, size: 0x8, addend: 0x0, symName: '__ZN4pyo35impl_7pyclass16lazy_type_object23LazyTypeObject$LT$T$GT$15get_or_try_init17h179867e514cc4898E', symObjAddr: 0x2D0, symBinAddr: 0x2ACC0, symSize: 0x50 }
  - { offset: 0x6CADA, size: 0x8, addend: 0x0, symName: '__ZN4pyo35impl_7pyclass16lazy_type_object23LazyTypeObject$LT$T$GT$15get_or_try_init17h1c18b129cf296c4fE', symObjAddr: 0x320, symBinAddr: 0x2AD10, symSize: 0x50 }
  - { offset: 0x6CB1E, size: 0x8, addend: 0x0, symName: '__ZN4pyo35impl_7pyclass16lazy_type_object23LazyTypeObject$LT$T$GT$15get_or_try_init17hc2a754501bcba251E', symObjAddr: 0x370, symBinAddr: 0x2AD60, symSize: 0x50 }
  - { offset: 0x6CC6B, size: 0x8, addend: 0x0, symName: '__ZN4core3ptr8non_null16NonNull$LT$T$GT$13new_unchecked18precondition_check17h8c31e79e4aaade8fE', symObjAddr: 0x0, symBinAddr: 0x2ADB0, symSize: 0x46 }
  - { offset: 0x6CCFF, size: 0x8, addend: 0x0, symName: '__ZN4core3ptr8non_null16NonNull$LT$T$GT$13new_unchecked18precondition_check17h8c31e79e4aaade8fE', symObjAddr: 0x0, symBinAddr: 0x2ADB0, symSize: 0x46 }
  - { offset: 0x6CDFE, size: 0x8, addend: 0x0, symName: '__ZN5alloc7raw_vec19RawVec$LT$T$C$A$GT$8grow_one17h1f439693861614bfE', symObjAddr: 0x0, symBinAddr: 0x2AE00, symSize: 0x80 }
  - { offset: 0x6D46C, size: 0x8, addend: 0x0, symName: '__ZN5alloc7raw_vec19RawVec$LT$T$C$A$GT$8grow_one17h1f439693861614bfE', symObjAddr: 0x0, symBinAddr: 0x2AE00, symSize: 0x80 }
  - { offset: 0x6D545, size: 0x8, addend: 0x0, symName: '__ZN5alloc7raw_vec19RawVec$LT$T$C$A$GT$8grow_one17hb7f90596a82b859aE', symObjAddr: 0x80, symBinAddr: 0x2AE80, symSize: 0x80 }
  - { offset: 0x6D6C5, size: 0x8, addend: 0x0, symName: '__ZN5alloc7raw_vec19RawVec$LT$T$C$A$GT$8grow_one17heb8988723b743152E', symObjAddr: 0x100, symBinAddr: 0x2AF00, symSize: 0x7E }
  - { offset: 0x6D750, size: 0x8, addend: 0x0, symName: '__ZN157_$LT$$LT$alloc..vec..into_iter..IntoIter$LT$T$C$A$GT$$u20$as$u20$core..ops..drop..Drop$GT$..drop..DropGuard$LT$T$C$A$GT$$u20$as$u20$core..ops..drop..Drop$GT$4drop17h1ae71cb457bde1ecE', symObjAddr: 0x0, symBinAddr: 0x2AF80, symSize: 0x60 }
  - { offset: 0x6DD67, size: 0x8, addend: 0x0, symName: '__ZN4core3ptr100drop_in_place$LT$alloc..raw_vec..RawVec$LT$pyo3..instance..Py$LT$pyo3..types..any..PyAny$GT$$GT$$GT$17h3fe1bb559c66e308E', symObjAddr: 0xAD0, symBinAddr: 0x2BA50, symSize: 0x20 }
  - { offset: 0x6DD96, size: 0x8, addend: 0x0, symName: '__ZN4core3ptr100drop_in_place$LT$pyo3..pyclass_init..PyClassInitializer$LT$tachyon_rs..engine..TachyonEngine$GT$$GT$17h2e0242614d098352E', symObjAddr: 0xAF0, symBinAddr: 0x2BA70, symSize: 0x20 }
  - { offset: 0x6DDC5, size: 0x8, addend: 0x0, symName: '__ZN4core3ptr102drop_in_place$LT$$LP$alloc..string..String$C$pyo3..instance..Py$LT$pyo3..types..any..PyAny$GT$$RP$$GT$17h39221aeb56cde157E', symObjAddr: 0xB30, symBinAddr: 0x2BA90, symSize: 0x60 }
  - { offset: 0x6DDF4, size: 0x8, addend: 0x0, symName: '__ZN4core3ptr102drop_in_place$LT$pyo3..pyclass_init..PyClassInitializerImpl$LT$tachyon_rs..engine..TrackedDict$GT$$GT$17h3d8b4d0d0121363dE', symObjAddr: 0xB90, symBinAddr: 0x2BAF0, symSize: 0x50 }
  - { offset: 0x6DE23, size: 0x8, addend: 0x0, symName: '__ZN4core3ptr102drop_in_place$LT$pyo3..pyclass_init..PyClassInitializerImpl$LT$tachyon_rs..engine..TrackedList$GT$$GT$17h58622304d10a2cb7E', symObjAddr: 0xBE0, symBinAddr: 0x2BB40, symSize: 0x50 }
  - { offset: 0x6DE52, size: 0x8, addend: 0x0, symName: '__ZN4core3ptr102drop_in_place$LT$std..collections..hash..map..HashMap$LT$usize$C$tachyon_rs..engine..StateNode$GT$$GT$17h84c197f220742a72E', symObjAddr: 0xC30, symBinAddr: 0x2BB90, symSize: 0x20 }
  - { offset: 0x6DE81, size: 0x8, addend: 0x0, symName: '__ZN4core3ptr104drop_in_place$LT$pyo3..pyclass_init..PyClassInitializerImpl$LT$tachyon_rs..engine..TachyonEngine$GT$$GT$17hb8bc6dea7a9529d3E', symObjAddr: 0xC50, symBinAddr: 0x2BBB0, symSize: 0x50 }
  - { offset: 0x6DEB0, size: 0x8, addend: 0x0, symName: '__ZN4core3ptr107drop_in_place$LT$core..option..Option$LT$pyo3..pycell..PyRef$LT$tachyon_rs..engine..TrackedDict$GT$$GT$$GT$17h4df079284acf6077E', symObjAddr: 0xCC0, symBinAddr: 0x2BC00, symSize: 0x40 }
  - { offset: 0x6DEDF, size: 0x8, addend: 0x0, symName: '__ZN4core3ptr107drop_in_place$LT$core..option..Option$LT$pyo3..pycell..PyRef$LT$tachyon_rs..engine..TrackedList$GT$$GT$$GT$17h6fe0aa8e5ad535ecE', symObjAddr: 0xD00, symBinAddr: 0x2BC40, symSize: 0x40 }
  - { offset: 0x6DF0E, size: 0x8, addend: 0x0, symName: '__ZN4core3ptr108drop_in_place$LT$core..result..Result$LT$$LP$$RP$$C$alloc..borrow..Cow$LT$core..ffi..c_str..CStr$GT$$GT$$GT$17h4608610f91878d2aE', symObjAddr: 0xD60, symBinAddr: 0x2BC80, symSize: 0x40 }
  - { offset: 0x6DF3D, size: 0x8, addend: 0x0, symName: '__ZN4core3ptr109drop_in_place$LT$alloc..vec..into_iter..IntoIter$LT$pyo3..instance..Py$LT$pyo3..types..any..PyAny$GT$$GT$$GT$17h3da66780773ae1f4E', symObjAddr: 0xDA0, symBinAddr: 0x2BCC0, symSize: 0x20 }
  - { offset: 0x6DF6C, size: 0x8, addend: 0x0, symName: '__ZN4core3ptr109drop_in_place$LT$core..option..Option$LT$pyo3..pycell..PyRef$LT$tachyon_rs..engine..TachyonEngine$GT$$GT$$GT$17ha13d3179876675bfE', symObjAddr: 0xDC0, symBinAddr: 0x2BCE0, symSize: 0x40 }
  - { offset: 0x6DF9B, size: 0x8, addend: 0x0, symName: '__ZN4core3ptr110drop_in_place$LT$core..option..Option$LT$pyo3..pycell..PyRefMut$LT$tachyon_rs..engine..TrackedDict$GT$$GT$$GT$17hbeb8b02a8753db92E', symObjAddr: 0xE00, symBinAddr: 0x2BD20, symSize: 0x40 }
  - { offset: 0x6DFCA, size: 0x8, addend: 0x0, symName: '__ZN4core3ptr110drop_in_place$LT$core..option..Option$LT$pyo3..pycell..PyRefMut$LT$tachyon_rs..engine..TrackedList$GT$$GT$$GT$17h47758b2b529b66a3E', symObjAddr: 0xE40, symBinAddr: 0x2BD60, symSize: 0x40 }
  - { offset: 0x6DFF9, size: 0x8, addend: 0x0, symName: '__ZN4core3ptr112drop_in_place$LT$core..option..Option$LT$pyo3..pycell..PyRefMut$LT$tachyon_rs..engine..TachyonEngine$GT$$GT$$GT$17h94ab3af333da0b96E', symObjAddr: 0xE80, symBinAddr: 0x2BDA0, symSize: 0x40 }
  - { offset: 0x6E028, size: 0x8, addend: 0x0, symName: '__ZN4core3ptr114drop_in_place$LT$hashbrown..map..HashMap$LT$alloc..string..String$C$usize$C$std..hash..random..RandomState$GT$$GT$17hb9b9bedb9c2b248dE', symObjAddr: 0xEC0, symBinAddr: 0x2BDE0, symSize: 0x20 }
  - { offset: 0x6E057, size: 0x8, addend: 0x0, symName: '__ZN4core3ptr122drop_in_place$LT$hashbrown..map..HashMap$LT$usize$C$tachyon_rs..engine..StateNode$C$std..hash..random..RandomState$GT$$GT$17hd45901cee620f899E', symObjAddr: 0xF40, symBinAddr: 0x2BE00, symSize: 0x20 }
  - { offset: 0x6E086, size: 0x8, addend: 0x0, symName: '__ZN4core3ptr131drop_in_place$LT$pyo3..err..PyErr..new$LT$pyo3..exceptions..PyKeyError$C$alloc..string..String$GT$..$u7b$$u7b$closure$u7d$$u7d$$GT$17h99776c1f5ee5c64aE', symObjAddr: 0x1000, symBinAddr: 0x2BE20, symSize: 0x20 }
  - { offset: 0x6E0B5, size: 0x8, addend: 0x0, symName: '__ZN4core3ptr134drop_in_place$LT$hashbrown..raw..RawTable$LT$$LP$alloc..string..String$C$pyo3..instance..Py$LT$pyo3..types..any..PyAny$GT$$RP$$GT$$GT$17h9b4c5ac97a39f565E', symObjAddr: 0x1040, symBinAddr: 0x2BE40, symSize: 0x20 }
  - { offset: 0x6E0E4, size: 0x8, addend: 0x0, symName: '__ZN4core3ptr138drop_in_place$LT$std..collections..hash..map..HashMap$LT$alloc..string..String$C$pyo3..instance..Py$LT$pyo3..types..any..PyAny$GT$$GT$$GT$17h1c9b78bca39d2940E', symObjAddr: 0x1060, symBinAddr: 0x2BE60, symSize: 0x20 }
  - { offset: 0x6E113, size: 0x8, addend: 0x0, symName: '__ZN4core3ptr149drop_in_place$LT$alloc..boxed..Box$LT$dyn$u20$core..iter..traits..iterator..Iterator$u2b$Item$u20$$u3d$$u20$$RF$tachyon_rs..engine..Operation$GT$$GT$17h9ae16070895bc758E', symObjAddr: 0x1080, symBinAddr: 0x2BE80, symSize: 0x70 }
  - { offset: 0x6E142, size: 0x8, addend: 0x0, symName: '__ZN4core3ptr158drop_in_place$LT$hashbrown..map..HashMap$LT$alloc..string..String$C$pyo3..instance..Py$LT$pyo3..types..any..PyAny$GT$$C$std..hash..random..RandomState$GT$$GT$17h57e1db4e4adbe910E', symObjAddr: 0x10F0, symBinAddr: 0x2BEF0, symSize: 0x20 }
  - { offset: 0x6E171, size: 0x8, addend: 0x0, symName: '__ZN4core3ptr159drop_in_place$LT$$LT$alloc..vec..into_iter..IntoIter$LT$T$C$A$GT$$u20$as$u20$core..ops..drop..Drop$GT$..drop..DropGuard$LT$usize$C$alloc..alloc..Global$GT$$GT$17haf2479a3f8c8676dE', symObjAddr: 0x1110, symBinAddr: 0x2BF10, symSize: 0x20 }
  - { offset: 0x6E1A0, size: 0x8, addend: 0x0, symName: '__ZN4core3ptr175drop_in_place$LT$$LT$alloc..vec..into_iter..IntoIter$LT$T$C$A$GT$$u20$as$u20$core..ops..drop..Drop$GT$..drop..DropGuard$LT$alloc..string..String$C$alloc..alloc..Global$GT$$GT$17h8d3eb8eef5f21225E', symObjAddr: 0x1130, symBinAddr: 0x2BF30, symSize: 0x20 }
  - { offset: 0x6E1CF, size: 0x8, addend: 0x0, symName: '__ZN4core3ptr182drop_in_place$LT$alloc..vec..Vec$LT$usize$GT$..extend_trusted$LT$core..iter..adapters..cloned..Cloned$LT$core..slice..iter..Iter$LT$usize$GT$$GT$$GT$..$u7b$$u7b$closure$u7d$$u7d$$GT$17h033aa95454379e1dE', symObjAddr: 0x1150, symBinAddr: 0x2BF50, symSize: 0x20 }
  - { offset: 0x6E1FE, size: 0x8, addend: 0x0, symName: '__ZN4core3ptr188drop_in_place$LT$core..iter..adapters..map..Map$LT$alloc..vec..into_iter..IntoIter$LT$alloc..string..String$GT$$C$tachyon_rs..engine..TrackedDict..keys..$u7b$$u7b$closure$u7d$$u7d$$GT$$GT$17h8b3225e1f342ff3aE', symObjAddr: 0x1170, symBinAddr: 0x2BF70, symSize: 0x20 }
  - { offset: 0x6E22D, size: 0x8, addend: 0x0, symName: '__ZN4core3ptr192drop_in_place$LT$core..iter..adapters..map..Map$LT$alloc..vec..into_iter..IntoIter$LT$alloc..string..String$GT$$C$tachyon_rs..engine..TrackedDict..__iter__..$u7b$$u7b$closure$u7d$$u7d$$GT$$GT$17h3805c9c3d4764593E', symObjAddr: 0x1190, symBinAddr: 0x2BF90, symSize: 0x20 }
  - { offset: 0x6E25C, size: 0x8, addend: 0x0, symName: '__ZN4core3ptr203drop_in_place$LT$$LT$alloc..vec..into_iter..IntoIter$LT$T$C$A$GT$$u20$as$u20$core..ops..drop..Drop$GT$..drop..DropGuard$LT$pyo3..instance..Py$LT$pyo3..types..any..PyAny$GT$$C$alloc..alloc..Global$GT$$GT$17hfa5c137d8b99afbcE', symObjAddr: 0x11B0, symBinAddr: 0x2BFB0, symSize: 0x20 }
  - { offset: 0x6E28B, size: 0x8, addend: 0x0, symName: '__ZN4core3ptr220drop_in_place$LT$alloc..vec..Vec$LT$usize$GT$..extend_trusted$LT$core..iter..adapters..cloned..Cloned$LT$core..iter..adapters..rev..Rev$LT$core..slice..iter..Iter$LT$usize$GT$$GT$$GT$$GT$..$u7b$$u7b$closure$u7d$$u7d$$GT$17h8b85c3d79ddd579bE', symObjAddr: 0x11D0, symBinAddr: 0x2BFD0, symSize: 0x20 }
  - { offset: 0x6E2BA, size: 0x8, addend: 0x0, symName: '__ZN4core3ptr281drop_in_place$LT$core..iter..traits..iterator..Iterator..for_each..call$LT$usize$C$alloc..vec..Vec$LT$usize$GT$..extend_trusted$LT$core..iter..adapters..cloned..Cloned$LT$core..slice..iter..Iter$LT$usize$GT$$GT$$GT$..$u7b$$u7b$closure$u7d$$u7d$$GT$..$u7b$$u7b$closure$u7d$$u7d$$GT$17h7d835cfefd4b25e3E', symObjAddr: 0x11F0, symBinAddr: 0x2BFF0, symSize: 0x20 }
  - { offset: 0x6E2E9, size: 0x8, addend: 0x0, symName: '__ZN4core3ptr319drop_in_place$LT$core..iter..traits..iterator..Iterator..for_each..call$LT$usize$C$alloc..vec..Vec$LT$usize$GT$..extend_trusted$LT$core..iter..adapters..cloned..Cloned$LT$core..iter..adapters..rev..Rev$LT$core..slice..iter..Iter$LT$usize$GT$$GT$$GT$$GT$..$u7b$$u7b$closure$u7d$$u7d$$GT$..$u7b$$u7b$closure$u7d$$u7d$$GT$17hd28407cecda2a4a4E', symObjAddr: 0x1210, symBinAddr: 0x2C010, symSize: 0x20 }
  - { offset: 0x6E318, size: 0x8, addend: 0x0, symName: '__ZN4core3ptr400drop_in_place$LT$core..iter..adapters..map..Map$LT$alloc..vec..into_iter..IntoIter$LT$pyo3..instance..Py$LT$pyo3..types..any..PyAny$GT$$GT$$C$pyo3..conversions..std..vec..$LT$impl$u20$pyo3..conversion..IntoPy$LT$pyo3..instance..Py$LT$pyo3..types..any..PyAny$GT$$GT$$u20$for$u20$alloc..vec..Vec$LT$pyo3..instance..Py$LT$pyo3..types..any..PyAny$GT$$GT$$GT$..into_py..$u7b$$u7b$closure$u7d$$u7d$$GT$$GT$17hf235ff36efe6521cE', symObjAddr: 0x1230, symBinAddr: 0x2C030, symSize: 0x20 }
  - { offset: 0x6E347, size: 0x8, addend: 0x0, symName: '__ZN4core3ptr437drop_in_place$LT$core..iter..adapters..map..map_fold$LT$$RF$usize$C$usize$C$$LP$$RP$$C$$LT$usize$u20$as$u20$core..clone..Clone$GT$..clone$C$core..iter..traits..iterator..Iterator..for_each..call$LT$usize$C$alloc..vec..Vec$LT$usize$GT$..extend_trusted$LT$core..iter..adapters..cloned..Cloned$LT$core..slice..iter..Iter$LT$usize$GT$$GT$$GT$..$u7b$$u7b$closure$u7d$$u7d$$GT$..$u7b$$u7b$closure$u7d$$u7d$$GT$..$u7b$$u7b$closure$u7d$$u7d$$GT$17ha021b6a3279b2783E', symObjAddr: 0x1250, symBinAddr: 0x2C050, symSize: 0x20 }
  - { offset: 0x6E376, size: 0x8, addend: 0x0, symName: '__ZN4core3ptr475drop_in_place$LT$core..iter..adapters..map..map_fold$LT$$RF$usize$C$usize$C$$LP$$RP$$C$$LT$usize$u20$as$u20$core..clone..Clone$GT$..clone$C$core..iter..traits..iterator..Iterator..for_each..call$LT$usize$C$alloc..vec..Vec$LT$usize$GT$..extend_trusted$LT$core..iter..adapters..cloned..Cloned$LT$core..iter..adapters..rev..Rev$LT$core..slice..iter..Iter$LT$usize$GT$$GT$$GT$$GT$..$u7b$$u7b$closure$u7d$$u7d$$GT$..$u7b$$u7b$closure$u7d$$u7d$$GT$..$u7b$$u7b$closure$u7d$$u7d$$GT$17h4438e90b53b4f57aE', symObjAddr: 0x1270, symBinAddr: 0x2C070, symSize: 0x20 }
  - { offset: 0x6E3A5, size: 0x8, addend: 0x0, symName: '__ZN4core3ptr49drop_in_place$LT$alloc..vec..Vec$LT$usize$GT$$GT$17hbdd486daf8f680a8E', symObjAddr: 0x1290, symBinAddr: 0x2C090, symSize: 0x50 }
  - { offset: 0x6E3D4, size: 0x8, addend: 0x0, symName: '__ZN4core3ptr50drop_in_place$LT$tachyon_rs..engine..Operation$GT$17h7d8a5ab17599377eE', symObjAddr: 0x12E0, symBinAddr: 0x2C0E0, symSize: 0x2D0 }
  - { offset: 0x6E403, size: 0x8, addend: 0x0, symName: '__ZN4core3ptr50drop_in_place$LT$tachyon_rs..engine..StateNode$GT$17h84d1aa8b9b3e7bd4E', symObjAddr: 0x15B0, symBinAddr: 0x2C3B0, symSize: 0x90 }
  - { offset: 0x6E432, size: 0x8, addend: 0x0, symName: '__ZN4core3ptr52drop_in_place$LT$$u5b$alloc..string..String$u5d$$GT$17hb79113088a1d98f0E', symObjAddr: 0x1640, symBinAddr: 0x2C440, symSize: 0xA0 }
  - { offset: 0x6E461, size: 0x8, addend: 0x0, symName: '__ZN4core3ptr52drop_in_place$LT$tachyon_rs..engine..TrackedDict$GT$17h8758f0e8a0019a35E', symObjAddr: 0x16E0, symBinAddr: 0x2C4E0, symSize: 0x80 }
  - { offset: 0x6E490, size: 0x8, addend: 0x0, symName: '__ZN4core3ptr52drop_in_place$LT$tachyon_rs..engine..TrackedList$GT$17hc6c854c2c19d5c34E', symObjAddr: 0x1760, symBinAddr: 0x2C560, symSize: 0x90 }
  - { offset: 0x6E4BF, size: 0x8, addend: 0x0, symName: '__ZN4core3ptr54drop_in_place$LT$tachyon_rs..engine..TachyonEngine$GT$17h64c1d8bad2754052E', symObjAddr: 0x1810, symBinAddr: 0x2C5F0, symSize: 0xB0 }
  - { offset: 0x6E4EE, size: 0x8, addend: 0x0, symName: '__ZN4core3ptr56drop_in_place$LT$alloc..raw_vec..RawVec$LT$usize$GT$$GT$17h6a5635f4bee19a6aE', symObjAddr: 0x18C0, symBinAddr: 0x2C6A0, symSize: 0x20 }
  - { offset: 0x6E51D, size: 0x8, addend: 0x0, symName: '__ZN4core3ptr58drop_in_place$LT$$LP$alloc..string..String$C$usize$RP$$GT$17h24d986c20ae6728bE', symObjAddr: 0x18E0, symBinAddr: 0x2C6C0, symSize: 0x20 }
  - { offset: 0x6E54C, size: 0x8, addend: 0x0, symName: '__ZN4core3ptr60drop_in_place$LT$$u5b$tachyon_rs..engine..Operation$u5d$$GT$17h1daf2d5ea7ddd034E', symObjAddr: 0x1900, symBinAddr: 0x2C6E0, symSize: 0xA0 }
  - { offset: 0x6E57B, size: 0x8, addend: 0x0, symName: '__ZN4core3ptr62drop_in_place$LT$alloc..vec..set_len_on_drop..SetLenOnDrop$GT$17ha74673aff2640fd8E', symObjAddr: 0x19A0, symBinAddr: 0x2C780, symSize: 0x20 }
  - { offset: 0x6E5AA, size: 0x8, addend: 0x0, symName: '__ZN4core3ptr65drop_in_place$LT$alloc..vec..Vec$LT$alloc..string..String$GT$$GT$17h57d229ec663305b4E', symObjAddr: 0x19C0, symBinAddr: 0x2C7A0, symSize: 0x50 }
  - { offset: 0x6E5D9, size: 0x8, addend: 0x0, symName: '__ZN4core3ptr65drop_in_place$LT$alloc..vec..into_iter..IntoIter$LT$usize$GT$$GT$17h98d35daf23c7b5d4E', symObjAddr: 0x1A10, symBinAddr: 0x2C7F0, symSize: 0x20 }
  - { offset: 0x6E608, size: 0x8, addend: 0x0, symName: '__ZN4core3ptr66drop_in_place$LT$$LP$usize$C$tachyon_rs..engine..StateNode$RP$$GT$17hea3062cfe591493fE', symObjAddr: 0x1A30, symBinAddr: 0x2C810, symSize: 0x20 }
  - { offset: 0x6E637, size: 0x8, addend: 0x0, symName: '__ZN4core3ptr685drop_in_place$LT$core..iter..adapters..map..Map$LT$core..iter..adapters..map..Map$LT$alloc..vec..into_iter..IntoIter$LT$alloc..string..String$GT$$C$tachyon_rs..engine..TrackedDict..keys..$u7b$$u7b$closure$u7d$$u7d$$GT$$C$pyo3..types..list..PyList..new$LT$pyo3..instance..Py$LT$pyo3..types..any..PyAny$GT$$C$core..iter..adapters..map..Map$LT$alloc..vec..into_iter..IntoIter$LT$alloc..string..String$GT$$C$tachyon_rs..engine..TrackedDict..keys..$u7b$$u7b$closure$u7d$$u7d$$GT$$C$core..iter..adapters..map..Map$LT$alloc..vec..into_iter..IntoIter$LT$alloc..string..String$GT$$C$tachyon_rs..engine..TrackedDict..keys..$u7b$$u7b$closure$u7d$$u7d$$GT$$GT$..$u7b$$u7b$closure$u7d$$u7d$$GT$$GT$17hdd247c230297fd4eE', symObjAddr: 0x1A50, symBinAddr: 0x2C830, symSize: 0x20 }
  - { offset: 0x6E666, size: 0x8, addend: 0x0, symName: '__ZN4core3ptr697drop_in_place$LT$core..iter..adapters..map..Map$LT$core..iter..adapters..map..Map$LT$alloc..vec..into_iter..IntoIter$LT$alloc..string..String$GT$$C$tachyon_rs..engine..TrackedDict..__iter__..$u7b$$u7b$closure$u7d$$u7d$$GT$$C$pyo3..types..list..PyList..new$LT$pyo3..instance..Py$LT$pyo3..types..any..PyAny$GT$$C$core..iter..adapters..map..Map$LT$alloc..vec..into_iter..IntoIter$LT$alloc..string..String$GT$$C$tachyon_rs..engine..TrackedDict..__iter__..$u7b$$u7b$closure$u7d$$u7d$$GT$$C$core..iter..adapters..map..Map$LT$alloc..vec..into_iter..IntoIter$LT$alloc..string..String$GT$$C$tachyon_rs..engine..TrackedDict..__iter__..$u7b$$u7b$closure$u7d$$u7d$$GT$$GT$..$u7b$$u7b$closure$u7d$$u7d$$GT$$GT$17h2eb7dd168b9500a1E', symObjAddr: 0x1A70, symBinAddr: 0x2C850, symSize: 0x20 }
  - { offset: 0x6E695, size: 0x8, addend: 0x0, symName: '__ZN4core3ptr72drop_in_place$LT$alloc..raw_vec..RawVec$LT$alloc..string..String$GT$$GT$17hb622f02ac937b488E', symObjAddr: 0x1A90, symBinAddr: 0x2C870, symSize: 0x20 }
  - { offset: 0x6E6C4, size: 0x8, addend: 0x0, symName: '__ZN4core3ptr72drop_in_place$LT$pyo3..instance..Py$LT$pyo3..types..list..PyList$GT$$GT$17hf71657ea31efd21dE', symObjAddr: 0x1AB0, symBinAddr: 0x2C890, symSize: 0x20 }
  - { offset: 0x6E6F3, size: 0x8, addend: 0x0, symName: '__ZN4core3ptr73drop_in_place$LT$alloc..vec..Vec$LT$tachyon_rs..engine..Operation$GT$$GT$17h89f171f7ef7c2573E', symObjAddr: 0x1AD0, symBinAddr: 0x2C8B0, symSize: 0x50 }
  - { offset: 0x6E722, size: 0x8, addend: 0x0, symName: '__ZN4core3ptr73drop_in_place$LT$core..result..Result$LT$usize$C$pyo3..err..PyErr$GT$$GT$17h2271455a7efb437fE', symObjAddr: 0x1B20, symBinAddr: 0x2C900, symSize: 0x30 }
  - { offset: 0x6E751, size: 0x8, addend: 0x0, symName: '__ZN4core3ptr78drop_in_place$LT$core..option..Option$LT$tachyon_rs..engine..StateNode$GT$$GT$17h637af3df996eef6dE', symObjAddr: 0x1B50, symBinAddr: 0x2C930, symSize: 0x40 }
  - { offset: 0x6E780, size: 0x8, addend: 0x0, symName: '__ZN4core3ptr78drop_in_place$LT$pyo3..instance..Py$LT$tachyon_rs..engine..TrackedDict$GT$$GT$17h06f71474a9c9fb96E', symObjAddr: 0x1B90, symBinAddr: 0x2C970, symSize: 0x20 }
  - { offset: 0x6E7AF, size: 0x8, addend: 0x0, symName: '__ZN4core3ptr78drop_in_place$LT$pyo3..instance..Py$LT$tachyon_rs..engine..TrackedList$GT$$GT$17h835d28b7e1f2214dE', symObjAddr: 0x1BB0, symBinAddr: 0x2C990, symSize: 0x20 }
  - { offset: 0x6E7DE, size: 0x8, addend: 0x0, symName: '__ZN4core3ptr79drop_in_place$LT$pyo3..pycell..PyRef$LT$tachyon_rs..engine..TrackedDict$GT$$GT$17h3f886faf2bfa4eacE', symObjAddr: 0x1BD0, symBinAddr: 0x2C9B0, symSize: 0x20 }
  - { offset: 0x6E80D, size: 0x8, addend: 0x0, symName: '__ZN4core3ptr79drop_in_place$LT$pyo3..pycell..PyRef$LT$tachyon_rs..engine..TrackedList$GT$$GT$17ha71e86fc48d3629dE', symObjAddr: 0x1BF0, symBinAddr: 0x2C9D0, symSize: 0x20 }
  - { offset: 0x6E83C, size: 0x8, addend: 0x0, symName: '__ZN4core3ptr80drop_in_place$LT$alloc..raw_vec..RawVec$LT$tachyon_rs..engine..Operation$GT$$GT$17h7fb606dd9d3f7f41E', symObjAddr: 0x1C10, symBinAddr: 0x2C9F0, symSize: 0x20 }
  - { offset: 0x6E86B, size: 0x8, addend: 0x0, symName: '__ZN4core3ptr80drop_in_place$LT$pyo3..instance..Py$LT$tachyon_rs..engine..TachyonEngine$GT$$GT$17hcddf5b0d81b73c45E', symObjAddr: 0x1C90, symBinAddr: 0x2CA10, symSize: 0x20 }
  - { offset: 0x6E89A, size: 0x8, addend: 0x0, symName: '__ZN4core3ptr81drop_in_place$LT$alloc..vec..into_iter..IntoIter$LT$alloc..string..String$GT$$GT$17h773fbe15450926a5E', symObjAddr: 0x1CB0, symBinAddr: 0x2CA30, symSize: 0x20 }
  - { offset: 0x6E8C9, size: 0x8, addend: 0x0, symName: '__ZN4core3ptr81drop_in_place$LT$pyo3..pycell..PyRef$LT$tachyon_rs..engine..TachyonEngine$GT$$GT$17h0ac45967b08e17e1E', symObjAddr: 0x1CD0, symBinAddr: 0x2CA50, symSize: 0x20 }
  - { offset: 0x6E8F8, size: 0x8, addend: 0x0, symName: '__ZN4core3ptr82drop_in_place$LT$core..cell..UnsafeCell$LT$tachyon_rs..engine..TrackedDict$GT$$GT$17h0b4005be9e526944E', symObjAddr: 0x1CF0, symBinAddr: 0x2CA70, symSize: 0x20 }
  - { offset: 0x6E927, size: 0x8, addend: 0x0, symName: '__ZN4core3ptr82drop_in_place$LT$core..cell..UnsafeCell$LT$tachyon_rs..engine..TrackedList$GT$$GT$17hea420f94fad20bbfE', symObjAddr: 0x1D10, symBinAddr: 0x2CA90, symSize: 0x20 }
  - { offset: 0x6E956, size: 0x8, addend: 0x0, symName: '__ZN4core3ptr82drop_in_place$LT$pyo3..pycell..PyRefMut$LT$tachyon_rs..engine..TrackedDict$GT$$GT$17hfe8d433d94f495ffE', symObjAddr: 0x1D30, symBinAddr: 0x2CAB0, symSize: 0x20 }
  - { offset: 0x6E985, size: 0x8, addend: 0x0, symName: '__ZN4core3ptr82drop_in_place$LT$pyo3..pycell..PyRefMut$LT$tachyon_rs..engine..TrackedList$GT$$GT$17hf2a3b4cc5fa10904E', symObjAddr: 0x1D50, symBinAddr: 0x2CAD0, symSize: 0x20 }
  - { offset: 0x6E9B4, size: 0x8, addend: 0x0, symName: '__ZN4core3ptr84drop_in_place$LT$core..cell..UnsafeCell$LT$tachyon_rs..engine..TachyonEngine$GT$$GT$17h6b4235fb926f06aaE', symObjAddr: 0x1D70, symBinAddr: 0x2CAF0, symSize: 0x20 }
  - { offset: 0x6E9E3, size: 0x8, addend: 0x0, symName: '__ZN4core3ptr84drop_in_place$LT$pyo3..pycell..PyRefMut$LT$tachyon_rs..engine..TachyonEngine$GT$$GT$17h769e6970a37e6185E', symObjAddr: 0x1D90, symBinAddr: 0x2CB10, symSize: 0x20 }
  - { offset: 0x6EA12, size: 0x8, addend: 0x0, symName: '__ZN4core3ptr86drop_in_place$LT$tachyon_rs..engine..TrackedDict..get..$u7b$$u7b$closure$u7d$$u7d$$GT$17hc6e4fe2c2d82ea47E', symObjAddr: 0x1DB0, symBinAddr: 0x2CB30, symSize: 0x20 }
  - { offset: 0x6EA41, size: 0x8, addend: 0x0, symName: '__ZN4core3ptr90drop_in_place$LT$hashbrown..raw..RawTable$LT$$LP$alloc..string..String$C$usize$RP$$GT$$GT$17h7a3f80cfc6a3fc81E', symObjAddr: 0x1DD0, symBinAddr: 0x2CB50, symSize: 0x20 }
  - { offset: 0x6EA70, size: 0x8, addend: 0x0, symName: '__ZN4core3ptr93drop_in_place$LT$alloc..vec..Vec$LT$pyo3..instance..Py$LT$pyo3..types..any..PyAny$GT$$GT$$GT$17h5a8753166feae7c8E', symObjAddr: 0x1DF0, symBinAddr: 0x2CB70, symSize: 0x50 }
  - { offset: 0x6EA9F, size: 0x8, addend: 0x0, symName: '__ZN4core3ptr94drop_in_place$LT$std..collections..hash..map..HashMap$LT$alloc..string..String$C$usize$GT$$GT$17h93bf319f1ca75d42E', symObjAddr: 0x1E40, symBinAddr: 0x2CBC0, symSize: 0x20 }
  - { offset: 0x6EACE, size: 0x8, addend: 0x0, symName: '__ZN4core3ptr94drop_in_place$LT$tachyon_rs..engine..TrackedDict..__getitem__..$u7b$$u7b$closure$u7d$$u7d$$GT$17h9968948c9a432a85E', symObjAddr: 0x1E60, symBinAddr: 0x2CBE0, symSize: 0x20 }
  - { offset: 0x6EAFD, size: 0x8, addend: 0x0, symName: '__ZN4core3ptr98drop_in_place$LT$hashbrown..raw..RawTable$LT$$LP$usize$C$tachyon_rs..engine..StateNode$RP$$GT$$GT$17ha08284cb333a41e6E', symObjAddr: 0x1EA0, symBinAddr: 0x2CC00, symSize: 0x20 }
  - { offset: 0x6EB2C, size: 0x8, addend: 0x0, symName: '__ZN4core3ptr98drop_in_place$LT$pyo3..pyclass_init..PyClassInitializer$LT$tachyon_rs..engine..TrackedDict$GT$$GT$17hc3fc7a0a17d3f9d9E', symObjAddr: 0x1EC0, symBinAddr: 0x2CC20, symSize: 0x20 }
  - { offset: 0x6EB5B, size: 0x8, addend: 0x0, symName: '__ZN4core3ptr98drop_in_place$LT$pyo3..pyclass_init..PyClassInitializer$LT$tachyon_rs..engine..TrackedList$GT$$GT$17h8dda5303afa99020E', symObjAddr: 0x1EE0, symBinAddr: 0x2CC40, symSize: 0x20 }
  - { offset: 0x6EF33, size: 0x8, addend: 0x0, symName: __ZN4core3ops8function5FnMut8call_mut17h03722f958629a6b0E, symObjAddr: 0x120, symBinAddr: 0x2B0A0, symSize: 0x20 }
  - { offset: 0x6EF77, size: 0x8, addend: 0x0, symName: __ZN4core3ops8function5FnMut8call_mut17h3791ff24cbefbb4fE, symObjAddr: 0x140, symBinAddr: 0x2B0C0, symSize: 0x20 }
  - { offset: 0x6EFBB, size: 0x8, addend: 0x0, symName: __ZN4core3ops8function5FnMut8call_mut17h576bfbc614c2e4bbE, symObjAddr: 0x160, symBinAddr: 0x2B0E0, symSize: 0x20 }
  - { offset: 0x6F01C, size: 0x8, addend: 0x0, symName: __ZN4core3ops8function5FnMut8call_mut17h903a6ba8ef5dcf0eE, symObjAddr: 0x180, symBinAddr: 0x2B100, symSize: 0x20 }
  - { offset: 0x6F066, size: 0x8, addend: 0x0, symName: '__ZN4core3ops8function6FnOnce40call_once$u7b$$u7b$vtable.shim$u7d$$u7d$17h24806cbc6261cf4dE', symObjAddr: 0x1A0, symBinAddr: 0x2B120, symSize: 0x30 }
  - { offset: 0x6F0AA, size: 0x8, addend: 0x0, symName: '__ZN4core3ops8function6FnOnce40call_once$u7b$$u7b$vtable.shim$u7d$$u7d$17h3ceab5b856950b43E', symObjAddr: 0x1D0, symBinAddr: 0x2B150, symSize: 0x30 }
  - { offset: 0x6F0EE, size: 0x8, addend: 0x0, symName: '__ZN4core3ops8function6FnOnce40call_once$u7b$$u7b$vtable.shim$u7d$$u7d$17h4d442b6011156e3bE', symObjAddr: 0x200, symBinAddr: 0x2B180, symSize: 0x30 }
  - { offset: 0x6F132, size: 0x8, addend: 0x0, symName: '__ZN4core3ops8function6FnOnce40call_once$u7b$$u7b$vtable.shim$u7d$$u7d$17h5b415213388d0146E', symObjAddr: 0x230, symBinAddr: 0x2B1B0, symSize: 0x30 }
  - { offset: 0x6F176, size: 0x8, addend: 0x0, symName: '__ZN4core3ops8function6FnOnce40call_once$u7b$$u7b$vtable.shim$u7d$$u7d$17h6b9eb25e9742a97dE', symObjAddr: 0x260, symBinAddr: 0x2B1E0, symSize: 0x30 }
  - { offset: 0x6F1BA, size: 0x8, addend: 0x0, symName: '__ZN4core3ops8function6FnOnce40call_once$u7b$$u7b$vtable.shim$u7d$$u7d$17h7343431c83e34aedE', symObjAddr: 0x290, symBinAddr: 0x2B210, symSize: 0x30 }
  - { offset: 0x6F1FE, size: 0x8, addend: 0x0, symName: '__ZN4core3ops8function6FnOnce40call_once$u7b$$u7b$vtable.shim$u7d$$u7d$17h8d3762f08fdc0658E', symObjAddr: 0x2C0, symBinAddr: 0x2B240, symSize: 0x20 }
  - { offset: 0x6F242, size: 0x8, addend: 0x0, symName: '__ZN4core3ops8function6FnOnce40call_once$u7b$$u7b$vtable.shim$u7d$$u7d$17ha544339f192c986cE', symObjAddr: 0x2E0, symBinAddr: 0x2B260, symSize: 0x30 }
  - { offset: 0x6F286, size: 0x8, addend: 0x0, symName: '__ZN4core3ops8function6FnOnce40call_once$u7b$$u7b$vtable.shim$u7d$$u7d$17ha660a022fddf7823E', symObjAddr: 0x310, symBinAddr: 0x2B290, symSize: 0x30 }
  - { offset: 0x6F2CA, size: 0x8, addend: 0x0, symName: '__ZN4core3ops8function6FnOnce40call_once$u7b$$u7b$vtable.shim$u7d$$u7d$17hb3a9241ed98bc8fbE', symObjAddr: 0x340, symBinAddr: 0x2B2C0, symSize: 0x20 }
  - { offset: 0x6F30E, size: 0x8, addend: 0x0, symName: '__ZN4core3ops8function6FnOnce40call_once$u7b$$u7b$vtable.shim$u7d$$u7d$17hb5f099aea17ff45aE', symObjAddr: 0x360, symBinAddr: 0x2B2E0, symSize: 0x30 }
  - { offset: 0x6F352, size: 0x8, addend: 0x0, symName: '__ZN4core3ops8function6FnOnce40call_once$u7b$$u7b$vtable.shim$u7d$$u7d$17hffbaed235b9235dbE', symObjAddr: 0x390, symBinAddr: 0x2B310, symSize: 0x30 }
  - { offset: 0x6F396, size: 0x8, addend: 0x0, symName: __ZN4core3ops8function6FnOnce9call_once17h017b9fa7894207b6E, symObjAddr: 0x3C0, symBinAddr: 0x2B340, symSize: 0x50 }
  - { offset: 0x6F3DA, size: 0x8, addend: 0x0, symName: __ZN4core3ops8function6FnOnce9call_once17h0813baa7cae27363E, symObjAddr: 0x410, symBinAddr: 0x2B390, symSize: 0x60 }
  - { offset: 0x6F41E, size: 0x8, addend: 0x0, symName: __ZN4core3ops8function6FnOnce9call_once17h0b9f7c1a3cbf9687E, symObjAddr: 0x470, symBinAddr: 0x2B3F0, symSize: 0x50 }
  - { offset: 0x6F462, size: 0x8, addend: 0x0, symName: __ZN4core3ops8function6FnOnce9call_once17h0dca670447d933cfE, symObjAddr: 0x4C0, symBinAddr: 0x2B440, symSize: 0x20 }
  - { offset: 0x6F4A6, size: 0x8, addend: 0x0, symName: __ZN4core3ops8function6FnOnce9call_once17h11515a8fec83ef55E, symObjAddr: 0x4E0, symBinAddr: 0x2B460, symSize: 0x20 }
  - { offset: 0x6F4EA, size: 0x8, addend: 0x0, symName: __ZN4core3ops8function6FnOnce9call_once17h180e35556bbbf0afE, symObjAddr: 0x500, symBinAddr: 0x2B480, symSize: 0x40 }
  - { offset: 0x6F52E, size: 0x8, addend: 0x0, symName: __ZN4core3ops8function6FnOnce9call_once17h1c4a10bdb78778b3E, symObjAddr: 0x540, symBinAddr: 0x2B4C0, symSize: 0x50 }
  - { offset: 0x6F572, size: 0x8, addend: 0x0, symName: __ZN4core3ops8function6FnOnce9call_once17h1d28a6a3b1ad4644E, symObjAddr: 0x590, symBinAddr: 0x2B510, symSize: 0x40 }
  - { offset: 0x6F5B2, size: 0x8, addend: 0x0, symName: __ZN4core3ops8function6FnOnce9call_once17h21901b20d411f0d2E, symObjAddr: 0x5D0, symBinAddr: 0x2B550, symSize: 0x20 }
  - { offset: 0x6F5F6, size: 0x8, addend: 0x0, symName: __ZN4core3ops8function6FnOnce9call_once17h2da8c922a178294dE, symObjAddr: 0x5F0, symBinAddr: 0x2B570, symSize: 0x40 }
  - { offset: 0x6F63A, size: 0x8, addend: 0x0, symName: __ZN4core3ops8function6FnOnce9call_once17h50521663d3d1b840E, symObjAddr: 0x630, symBinAddr: 0x2B5B0, symSize: 0x40 }
  - { offset: 0x6F67E, size: 0x8, addend: 0x0, symName: __ZN4core3ops8function6FnOnce9call_once17h566660b0aaf7177aE, symObjAddr: 0x670, symBinAddr: 0x2B5F0, symSize: 0x30 }
  - { offset: 0x6F6C2, size: 0x8, addend: 0x0, symName: __ZN4core3ops8function6FnOnce9call_once17h59d2776657855b9eE, symObjAddr: 0x6A0, symBinAddr: 0x2B620, symSize: 0x40 }
  - { offset: 0x6F706, size: 0x8, addend: 0x0, symName: __ZN4core3ops8function6FnOnce9call_once17h5a5cd8a95357864eE, symObjAddr: 0x6E0, symBinAddr: 0x2B660, symSize: 0x40 }
  - { offset: 0x6F746, size: 0x8, addend: 0x0, symName: __ZN4core3ops8function6FnOnce9call_once17h69ec364272250da5E, symObjAddr: 0x720, symBinAddr: 0x2B6A0, symSize: 0x20 }
  - { offset: 0x6F78A, size: 0x8, addend: 0x0, symName: __ZN4core3ops8function6FnOnce9call_once17h7d91ffef9fc6f834E, symObjAddr: 0x740, symBinAddr: 0x2B6C0, symSize: 0x50 }
  - { offset: 0x6F7CE, size: 0x8, addend: 0x0, symName: __ZN4core3ops8function6FnOnce9call_once17h8b02b3a157088bf3E, symObjAddr: 0x790, symBinAddr: 0x2B710, symSize: 0x50 }
  - { offset: 0x6F812, size: 0x8, addend: 0x0, symName: __ZN4core3ops8function6FnOnce9call_once17h9df5cba64b9ebeaeE, symObjAddr: 0x7E0, symBinAddr: 0x2B760, symSize: 0x50 }
  - { offset: 0x6F856, size: 0x8, addend: 0x0, symName: __ZN4core3ops8function6FnOnce9call_once17ha12289fb47f4a81eE, symObjAddr: 0x830, symBinAddr: 0x2B7B0, symSize: 0x50 }
  - { offset: 0x6F89A, size: 0x8, addend: 0x0, symName: __ZN4core3ops8function6FnOnce9call_once17ha3ec26325bc2d8dbE, symObjAddr: 0x880, symBinAddr: 0x2B800, symSize: 0x50 }
  - { offset: 0x6F8DE, size: 0x8, addend: 0x0, symName: __ZN4core3ops8function6FnOnce9call_once17hadbf8586c9196fe2E, symObjAddr: 0x8D0, symBinAddr: 0x2B850, symSize: 0x50 }
  - { offset: 0x6F922, size: 0x8, addend: 0x0, symName: __ZN4core3ops8function6FnOnce9call_once17hb3ec73034c491c11E, symObjAddr: 0x920, symBinAddr: 0x2B8A0, symSize: 0x40 }
  - { offset: 0x6F962, size: 0x8, addend: 0x0, symName: __ZN4core3ops8function6FnOnce9call_once17hb5873b4b98e54629E, symObjAddr: 0x960, symBinAddr: 0x2B8E0, symSize: 0x30 }
  - { offset: 0x6F9A6, size: 0x8, addend: 0x0, symName: __ZN4core3ops8function6FnOnce9call_once17hbd62a309496d37efE, symObjAddr: 0x990, symBinAddr: 0x2B910, symSize: 0x20 }
  - { offset: 0x6F9EA, size: 0x8, addend: 0x0, symName: __ZN4core3ops8function6FnOnce9call_once17hcacd62ce700edd7aE, symObjAddr: 0x9B0, symBinAddr: 0x2B930, symSize: 0x50 }
  - { offset: 0x6FA2E, size: 0x8, addend: 0x0, symName: __ZN4core3ops8function6FnOnce9call_once17hcf28c02b18b0364fE, symObjAddr: 0xA00, symBinAddr: 0x2B980, symSize: 0x40 }
  - { offset: 0x6FA72, size: 0x8, addend: 0x0, symName: __ZN4core3ops8function6FnOnce9call_once17hef30a9c4c54abb43E, symObjAddr: 0xA40, symBinAddr: 0x2B9C0, symSize: 0x50 }
  - { offset: 0x6FAB6, size: 0x8, addend: 0x0, symName: __ZN4core3ops8function6FnOnce9call_once17hfc5668254e7b4a1aE, symObjAddr: 0xA90, symBinAddr: 0x2BA10, symSize: 0x40 }
  - { offset: 0x70946, size: 0x8, addend: 0x0, symName: '__ZN157_$LT$$LT$alloc..vec..into_iter..IntoIter$LT$T$C$A$GT$$u20$as$u20$core..ops..drop..Drop$GT$..drop..DropGuard$LT$T$C$A$GT$$u20$as$u20$core..ops..drop..Drop$GT$4drop17h1ae71cb457bde1ecE', symObjAddr: 0x0, symBinAddr: 0x2AF80, symSize: 0x60 }
  - { offset: 0x70A89, size: 0x8, addend: 0x0, symName: '__ZN157_$LT$$LT$alloc..vec..into_iter..IntoIter$LT$T$C$A$GT$$u20$as$u20$core..ops..drop..Drop$GT$..drop..DropGuard$LT$T$C$A$GT$$u20$as$u20$core..ops..drop..Drop$GT$4drop17h61e4171313f7b026E', symObjAddr: 0x60, symBinAddr: 0x2AFE0, symSize: 0x60 }
  - { offset: 0x70BCC, size: 0x8, addend: 0x0, symName: '__ZN157_$LT$$LT$alloc..vec..into_iter..IntoIter$LT$T$C$A$GT$$u20$as$u20$core..ops..drop..Drop$GT$..drop..DropGuard$LT$T$C$A$GT$$u20$as$u20$core..ops..drop..Drop$GT$4drop17h64d05ca55aa49ec8E', symObjAddr: 0xC0, symBinAddr: 0x2B040, symSize: 0x60 }
  - { offset: 0x70D86, size: 0x8, addend: 0x0, symName: '__ZN86_$LT$alloc..vec..into_iter..IntoIter$LT$T$C$A$GT$$u20$as$u20$core..ops..drop..Drop$GT$4drop17h5c3f5dd4e0047846E', symObjAddr: 0x2370, symBinAddr: 0x2D0B0, symSize: 0x70 }
  - { offset: 0x70DD8, size: 0x8, addend: 0x0, symName: '__ZN86_$LT$alloc..vec..into_iter..IntoIter$LT$T$C$A$GT$$u20$as$u20$core..ops..drop..Drop$GT$4drop17h8f4355200175918cE', symObjAddr: 0x23E0, symBinAddr: 0x2D120, symSize: 0x60 }
  - { offset: 0x70E32, size: 0x8, addend: 0x0, symName: '__ZN86_$LT$alloc..vec..into_iter..IntoIter$LT$T$C$A$GT$$u20$as$u20$core..ops..drop..Drop$GT$4drop17ha56b489515877717E', symObjAddr: 0x2440, symBinAddr: 0x2D180, symSize: 0x68 }
  - { offset: 0x7100F, size: 0x8, addend: 0x0, symName: '__ZN70_$LT$alloc..vec..Vec$LT$T$C$A$GT$$u20$as$u20$core..ops..drop..Drop$GT$4drop17h0ded5f566a704162E', symObjAddr: 0x1FA0, symBinAddr: 0x2CCE0, symSize: 0x30 }
  - { offset: 0x710BF, size: 0x8, addend: 0x0, symName: '__ZN70_$LT$alloc..vec..Vec$LT$T$C$A$GT$$u20$as$u20$core..ops..drop..Drop$GT$4drop17h56ead408a2055fd2E', symObjAddr: 0x1FD0, symBinAddr: 0x2CD10, symSize: 0x30 }
  - { offset: 0x7116F, size: 0x8, addend: 0x0, symName: '__ZN70_$LT$alloc..vec..Vec$LT$T$C$A$GT$$u20$as$u20$core..ops..drop..Drop$GT$4drop17hccb9e9fdd8c3c0daE', symObjAddr: 0x2000, symBinAddr: 0x2CD40, symSize: 0x30 }
  - { offset: 0x7121F, size: 0x8, addend: 0x0, symName: '__ZN70_$LT$alloc..vec..Vec$LT$T$C$A$GT$$u20$as$u20$core..ops..drop..Drop$GT$4drop17hf30607262dde5620E', symObjAddr: 0x2030, symBinAddr: 0x2CD70, symSize: 0x20 }
  - { offset: 0x713EB, size: 0x8, addend: 0x0, symName: '__ZN83_$LT$alloc..vec..set_len_on_drop..SetLenOnDrop$u20$as$u20$core..ops..drop..Drop$GT$4drop17h48b016cb0fffd96aE', symObjAddr: 0x2350, symBinAddr: 0x2D090, symSize: 0x20 }
  - { offset: 0x7190D, size: 0x8, addend: 0x0, symName: '__ZN77_$LT$alloc..raw_vec..RawVec$LT$T$C$A$GT$$u20$as$u20$core..ops..drop..Drop$GT$4drop17h347757ac9ed82637E', symObjAddr: 0x2220, symBinAddr: 0x2CF60, symSize: 0x30 }
  - { offset: 0x71949, size: 0x8, addend: 0x0, symName: '__ZN77_$LT$alloc..raw_vec..RawVec$LT$T$C$A$GT$$u20$as$u20$core..ops..drop..Drop$GT$4drop17h727d41fb7f1744c1E', symObjAddr: 0x2250, symBinAddr: 0x2CF90, symSize: 0x30 }
  - { offset: 0x71985, size: 0x8, addend: 0x0, symName: '__ZN77_$LT$alloc..raw_vec..RawVec$LT$T$C$A$GT$$u20$as$u20$core..ops..drop..Drop$GT$4drop17h99c2253d41287da6E', symObjAddr: 0x2280, symBinAddr: 0x2CFC0, symSize: 0x20 }
  - { offset: 0x719C1, size: 0x8, addend: 0x0, symName: '__ZN77_$LT$alloc..raw_vec..RawVec$LT$T$C$A$GT$$u20$as$u20$core..ops..drop..Drop$GT$4drop17hff978d8b2b5adb09E', symObjAddr: 0x22A0, symBinAddr: 0x2CFE0, symSize: 0x20 }
  - { offset: 0x71A3C, size: 0x8, addend: 0x0, symName: '__ZN72_$LT$alloc..boxed..Box$LT$T$C$A$GT$$u20$as$u20$core..ops..drop..Drop$GT$4drop17hf84f0f1c70d80548E', symObjAddr: 0x20E0, symBinAddr: 0x2CE20, symSize: 0xB0 }
  - { offset: 0x71DA7, size: 0x8, addend: 0x0, symName: '__ZN69_$LT$pyo3..instance..Py$LT$T$GT$$u20$as$u20$core..ops..drop..Drop$GT$4drop17h4743a15768040f8bE', symObjAddr: 0x1F20, symBinAddr: 0x2CC60, symSize: 0x20 }
  - { offset: 0x71DDA, size: 0x8, addend: 0x0, symName: '__ZN69_$LT$pyo3..instance..Py$LT$T$GT$$u20$as$u20$core..ops..drop..Drop$GT$4drop17h74c44a5f74a3fca9E', symObjAddr: 0x1F40, symBinAddr: 0x2CC80, symSize: 0x20 }
  - { offset: 0x71E0D, size: 0x8, addend: 0x0, symName: '__ZN69_$LT$pyo3..instance..Py$LT$T$GT$$u20$as$u20$core..ops..drop..Drop$GT$4drop17hc16adace86e4d16dE', symObjAddr: 0x1F60, symBinAddr: 0x2CCA0, symSize: 0x20 }
  - { offset: 0x71E40, size: 0x8, addend: 0x0, symName: '__ZN69_$LT$pyo3..instance..Py$LT$T$GT$$u20$as$u20$core..ops..drop..Drop$GT$4drop17heaec60aea5bd458bE', symObjAddr: 0x1F80, symBinAddr: 0x2CCC0, symSize: 0x20 }
  - { offset: 0x7208E, size: 0x8, addend: 0x0, symName: '__ZN70_$LT$pyo3..pycell..PyRef$LT$T$GT$$u20$as$u20$core..ops..drop..Drop$GT$4drop17h5b4c7e565b858014E', symObjAddr: 0x2050, symBinAddr: 0x2CD90, symSize: 0x30 }
  - { offset: 0x720C1, size: 0x8, addend: 0x0, symName: '__ZN70_$LT$pyo3..pycell..PyRef$LT$T$GT$$u20$as$u20$core..ops..drop..Drop$GT$4drop17h5e8e6380d6146850E', symObjAddr: 0x2080, symBinAddr: 0x2CDC0, symSize: 0x30 }
  - { offset: 0x720F4, size: 0x8, addend: 0x0, symName: '__ZN70_$LT$pyo3..pycell..PyRef$LT$T$GT$$u20$as$u20$core..ops..drop..Drop$GT$4drop17hda88ca24691c4d9bE', symObjAddr: 0x20B0, symBinAddr: 0x2CDF0, symSize: 0x30 }
  - { offset: 0x7212D, size: 0x8, addend: 0x0, symName: '__ZN73_$LT$pyo3..pycell..PyRefMut$LT$T$GT$$u20$as$u20$core..ops..drop..Drop$GT$4drop17h0ce45d0243db097eE', symObjAddr: 0x2190, symBinAddr: 0x2CED0, symSize: 0x30 }
  - { offset: 0x72160, size: 0x8, addend: 0x0, symName: '__ZN73_$LT$pyo3..pycell..PyRefMut$LT$T$GT$$u20$as$u20$core..ops..drop..Drop$GT$4drop17h0f9cd6b65e93861aE', symObjAddr: 0x21C0, symBinAddr: 0x2CF00, symSize: 0x30 }
  - { offset: 0x72193, size: 0x8, addend: 0x0, symName: '__ZN73_$LT$pyo3..pycell..PyRefMut$LT$T$GT$$u20$as$u20$core..ops..drop..Drop$GT$4drop17hc584aff45f0f4fedE', symObjAddr: 0x21F0, symBinAddr: 0x2CF30, symSize: 0x30 }
  - { offset: 0x73526, size: 0x8, addend: 0x0, symName: '__ZN79_$LT$hashbrown..raw..RawTable$LT$T$C$A$GT$$u20$as$u20$core..ops..drop..Drop$GT$4drop17h2f49c9904af356e4E', symObjAddr: 0x22C0, symBinAddr: 0x2D000, symSize: 0x30 }
  - { offset: 0x73562, size: 0x8, addend: 0x0, symName: '__ZN79_$LT$hashbrown..raw..RawTable$LT$T$C$A$GT$$u20$as$u20$core..ops..drop..Drop$GT$4drop17hcce692c7ee496109E', symObjAddr: 0x22F0, symBinAddr: 0x2D030, symSize: 0x30 }
  - { offset: 0x7359E, size: 0x8, addend: 0x0, symName: '__ZN79_$LT$hashbrown..raw..RawTable$LT$T$C$A$GT$$u20$as$u20$core..ops..drop..Drop$GT$4drop17hea19ca9cfebebb2eE', symObjAddr: 0x2320, symBinAddr: 0x2D060, symSize: 0x30 }
  - { offset: 0x74745, size: 0x8, addend: 0x0, symName: __ZN4core4hash11BuildHasher8hash_one17h410d1401360857d4E, symObjAddr: 0x0, symBinAddr: 0x2D1F0, symSize: 0x80 }
  - { offset: 0x74761, size: 0x8, addend: 0x0, symName: __ZN4core4hash11BuildHasher8hash_one17h410d1401360857d4E, symObjAddr: 0x0, symBinAddr: 0x2D1F0, symSize: 0x80 }
  - { offset: 0x747C8, size: 0x8, addend: 0x0, symName: __ZN4core4hash11BuildHasher8hash_one17hc6b2923860b56a48E, symObjAddr: 0x80, symBinAddr: 0x2D270, symSize: 0x80 }
  - { offset: 0x74835, size: 0x8, addend: 0x0, symName: __ZN4core4hash6Hasher11write_usize17hc7e70c66f715ae4eE, symObjAddr: 0x100, symBinAddr: 0x2D2F0, symSize: 0x28 }
  - { offset: 0x74BCA, size: 0x8, addend: 0x0, symName: __ZN4pyo35types4dict6PyDict8set_item17h2ceafec4e99aa8f8E, symObjAddr: 0x0, symBinAddr: 0x2D320, symSize: 0xF0 }
  - { offset: 0x74F31, size: 0x8, addend: 0x0, symName: '__ZN53_$LT$T$u20$as$u20$pyo3..conversion..FromPyPointer$GT$24from_borrowed_ptr_or_opt17h5750d451999655beE', symObjAddr: 0x3C0, symBinAddr: 0x2D6E0, symSize: 0x1F }
  - { offset: 0x755C9, size: 0x8, addend: 0x0, symName: __ZN4pyo35types4dict6PyDict8set_item17h2ceafec4e99aa8f8E, symObjAddr: 0x0, symBinAddr: 0x2D320, symSize: 0xF0 }
  - { offset: 0x7563C, size: 0x8, addend: 0x0, symName: __ZN4pyo35types4dict6PyDict8set_item17h6a26368adb7fdc26E, symObjAddr: 0xF0, symBinAddr: 0x2D410, symSize: 0xF0 }
  - { offset: 0x756A2, size: 0x8, addend: 0x0, symName: __ZN4pyo35types4dict6PyDict8set_item17h95461adf5da42fa4E, symObjAddr: 0x1E0, symBinAddr: 0x2D500, symSize: 0xF0 }
  - { offset: 0x75715, size: 0x8, addend: 0x0, symName: __ZN4pyo35types4dict6PyDict8set_item17hdd3dc3be7b87bde9E, symObjAddr: 0x2D0, symBinAddr: 0x2D5F0, symSize: 0xF0 }
  - { offset: 0x757DE, size: 0x8, addend: 0x0, symName: __ZN4pyo35types6module8PyModule3add17h97456c442a5dcd4bE, symObjAddr: 0x0, symBinAddr: 0x2D700, symSize: 0x220 }
  - { offset: 0x76126, size: 0x8, addend: 0x0, symName: __ZN4pyo35types6module8PyModule3add17h97456c442a5dcd4bE, symObjAddr: 0x0, symBinAddr: 0x2D700, symSize: 0x220 }
  - { offset: 0x7693F, size: 0x8, addend: 0x0, symName: __ZN4pyo35types6module8PyModule9add_class17h10324588340ea5deE, symObjAddr: 0x220, symBinAddr: 0x2D920, symSize: 0x110 }
  - { offset: 0x769A8, size: 0x8, addend: 0x0, symName: __ZN4pyo35types6module8PyModule9add_class17h9dc32ef4292938f2E, symObjAddr: 0x330, symBinAddr: 0x2DA30, symSize: 0x110 }
  - { offset: 0x76A11, size: 0x8, addend: 0x0, symName: __ZN4pyo35types6module8PyModule9add_class17hbd2b3afac504ce39E, symObjAddr: 0x440, symBinAddr: 0x2DB40, symSize: 0x108 }
  - { offset: 0x76AD0, size: 0x8, addend: 0x0, symName: '__ZN104_$LT$core..iter..adapters..cloned..Cloned$LT$I$GT$$u20$as$u20$core..iter..traits..iterator..Iterator$GT$4fold17h3d708eb80af712f8E', symObjAddr: 0x0, symBinAddr: 0x2DC50, symSize: 0xD0 }
  - { offset: 0x76D0A, size: 0x8, addend: 0x0, symName: '__ZN104_$LT$core..iter..adapters..cloned..Cloned$LT$I$GT$$u20$as$u20$core..iter..traits..iterator..Iterator$GT$4fold17h3d708eb80af712f8E', symObjAddr: 0x0, symBinAddr: 0x2DC50, symSize: 0xD0 }
  - { offset: 0x76DC7, size: 0x8, addend: 0x0, symName: '__ZN104_$LT$core..iter..adapters..cloned..Cloned$LT$I$GT$$u20$as$u20$core..iter..traits..iterator..Iterator$GT$4fold17hfd16d9cb5a0d9bb8E', symObjAddr: 0xD0, symBinAddr: 0x2DD20, symSize: 0xD0 }
  - { offset: 0x76E84, size: 0x8, addend: 0x0, symName: '__ZN104_$LT$core..iter..adapters..cloned..Cloned$LT$I$GT$$u20$as$u20$core..iter..traits..iterator..Iterator$GT$4next17hb64036bbc29d69d4E', symObjAddr: 0x1A0, symBinAddr: 0x2DDF0, symSize: 0x90 }
  - { offset: 0x76EF9, size: 0x8, addend: 0x0, symName: '__ZN104_$LT$core..iter..adapters..cloned..Cloned$LT$I$GT$$u20$as$u20$core..iter..traits..iterator..Iterator$GT$9size_hint17h0c5a60d5f1e20f8cE', symObjAddr: 0x230, symBinAddr: 0x2DE80, symSize: 0x30 }
  - { offset: 0x76F37, size: 0x8, addend: 0x0, symName: '__ZN104_$LT$core..iter..adapters..cloned..Cloned$LT$I$GT$$u20$as$u20$core..iter..traits..iterator..Iterator$GT$9size_hint17h4e451225b2bd3bb2E', symObjAddr: 0x260, symBinAddr: 0x2DEB0, symSize: 0x30 }
  - { offset: 0x76F75, size: 0x8, addend: 0x0, symName: '__ZN104_$LT$core..iter..adapters..cloned..Cloned$LT$I$GT$$u20$as$u20$core..iter..traits..iterator..Iterator$GT$9size_hint17h7658a194053c1890E', symObjAddr: 0x290, symBinAddr: 0x2DEE0, symSize: 0x30 }
  - { offset: 0x770D5, size: 0x8, addend: 0x0, symName: __ZN4core4iter6traits8iterator8Iterator7collect17h2214abf8be73891fE, symObjAddr: 0x2C0, symBinAddr: 0x2DF10, symSize: 0x30 }
  - { offset: 0x77115, size: 0x8, addend: 0x0, symName: __ZN4core4iter6traits8iterator8Iterator7collect17h6767b69074b39e4bE, symObjAddr: 0x2F0, symBinAddr: 0x2DF40, symSize: 0x20 }
  - { offset: 0x77156, size: 0x8, addend: 0x0, symName: __ZN4core4iter6traits8iterator8Iterator7collect17he22d2c52f388b694E, symObjAddr: 0x310, symBinAddr: 0x2DF60, symSize: 0x30 }
  - { offset: 0x77196, size: 0x8, addend: 0x0, symName: __ZN4core4iter6traits8iterator8Iterator8for_each17h5d80eb79215c5de3E, symObjAddr: 0x340, symBinAddr: 0x2DF90, symSize: 0x40 }
  - { offset: 0x77200, size: 0x8, addend: 0x0, symName: __ZN4core4iter6traits8iterator8Iterator8for_each17h827361b5091b77f3E, symObjAddr: 0x380, symBinAddr: 0x2DFD0, symSize: 0x40 }
  - { offset: 0x77276, size: 0x8, addend: 0x0, symName: '__ZN63_$LT$I$u20$as$u20$core..iter..traits..collect..IntoIterator$GT$9into_iter17h54c91ac6c330bd07E', symObjAddr: 0x3C0, symBinAddr: 0x2E010, symSize: 0x20 }
  - { offset: 0x772AD, size: 0x8, addend: 0x0, symName: '__ZN63_$LT$I$u20$as$u20$core..iter..traits..collect..IntoIterator$GT$9into_iter17hd5fded1fd39f4071E', symObjAddr: 0x3E0, symBinAddr: 0x2E030, symSize: 0x20 }
  - { offset: 0x772E4, size: 0x8, addend: 0x0, symName: '__ZN63_$LT$I$u20$as$u20$core..iter..traits..collect..IntoIterator$GT$9into_iter17hfeacb2b59abfc26dE', symObjAddr: 0x400, symBinAddr: 0x2E050, symSize: 0x23 }
  - { offset: 0x77BE3, size: 0x8, addend: 0x0, symName: '__ZN105_$LT$std..collections..hash..map..Keys$LT$K$C$V$GT$$u20$as$u20$core..iter..traits..iterator..Iterator$GT$4next17h9863c0486ad58f62E', symObjAddr: 0x0, symBinAddr: 0x2E080, symSize: 0x60 }
  - { offset: 0x77C97, size: 0x8, addend: 0x0, symName: '__ZN105_$LT$std..collections..hash..map..Keys$LT$K$C$V$GT$$u20$as$u20$core..iter..traits..iterator..Iterator$GT$4next17h9863c0486ad58f62E', symObjAddr: 0x0, symBinAddr: 0x2E080, symSize: 0x60 }
  - { offset: 0x77D3C, size: 0x8, addend: 0x0, symName: '__ZN105_$LT$std..collections..hash..map..Keys$LT$K$C$V$GT$$u20$as$u20$core..iter..traits..iterator..Iterator$GT$9size_hint17h7f2a24ad633b2217E', symObjAddr: 0x60, symBinAddr: 0x2E0E0, symSize: 0x20 }
  - { offset: 0x78B81, size: 0x8, addend: 0x0, symName: __ZN4core4iter6traits8iterator8Iterator6cloned17h3ce78ace750fbb54E, symObjAddr: 0x420, symBinAddr: 0x2E4A0, symSize: 0x30 }
  - { offset: 0x78EDD, size: 0x8, addend: 0x0, symName: '__ZN4pyo311conversions3std3map114_$LT$impl$u20$pyo3..conversion..FromPyObject$u20$for$u20$std..collections..hash..map..HashMap$LT$K$C$V$C$S$GT$$GT$7extract17h641689c663a2e57eE', symObjAddr: 0x450, symBinAddr: 0x2E4D0, symSize: 0x510 }
  - { offset: 0x79018, size: 0x8, addend: 0x0, symName: '__ZN71_$LT$T$u20$as$u20$pyo3..impl_..extract_argument..PyFunctionArgument$GT$7extract17h472d3bb1cd158ef1E', symObjAddr: 0x960, symBinAddr: 0x2E9E0, symSize: 0x26 }
  - { offset: 0x797B5, size: 0x8, addend: 0x0, symName: '__ZN3std11collections4hash3map20HashMap$LT$K$C$V$GT$3new17h69aec6b471a46075E', symObjAddr: 0x80, symBinAddr: 0x2E100, symSize: 0xA0 }
  - { offset: 0x798CA, size: 0x8, addend: 0x0, symName: '__ZN3std11collections4hash3map20HashMap$LT$K$C$V$GT$3new17h7033cb226560e838E', symObjAddr: 0x120, symBinAddr: 0x2E1A0, symSize: 0xA0 }
  - { offset: 0x79BE8, size: 0x8, addend: 0x0, symName: '__ZN3std11collections4hash3map20HashMap$LT$K$C$V$GT$3new17hbf45bc82d6a600cfE', symObjAddr: 0x1C0, symBinAddr: 0x2E240, symSize: 0xA0 }
  - { offset: 0x79CAB, size: 0x8, addend: 0x0, symName: '__ZN3std11collections4hash3map24HashMap$LT$K$C$V$C$S$GT$12contains_key17ha4a07f5d0ab37323E', symObjAddr: 0x260, symBinAddr: 0x2E2E0, symSize: 0x20 }
  - { offset: 0x79D01, size: 0x8, addend: 0x0, symName: '__ZN3std11collections4hash3map24HashMap$LT$K$C$V$C$S$GT$24with_capacity_and_hasher17h43d1246a2e52ec42E', symObjAddr: 0x280, symBinAddr: 0x2E300, symSize: 0x50 }
  - { offset: 0x79D68, size: 0x8, addend: 0x0, symName: '__ZN3std11collections4hash3map24HashMap$LT$K$C$V$C$S$GT$3get17h6e450dd2023e5427E', symObjAddr: 0x2D0, symBinAddr: 0x2E350, symSize: 0x20 }
  - { offset: 0x79DD8, size: 0x8, addend: 0x0, symName: '__ZN3std11collections4hash3map24HashMap$LT$K$C$V$C$S$GT$3get17h6ed25fc88f9cb8aaE', symObjAddr: 0x2F0, symBinAddr: 0x2E370, symSize: 0x20 }
  - { offset: 0x79E2E, size: 0x8, addend: 0x0, symName: '__ZN3std11collections4hash3map24HashMap$LT$K$C$V$C$S$GT$3get17ha8e015887859c80eE', symObjAddr: 0x310, symBinAddr: 0x2E390, symSize: 0x20 }
  - { offset: 0x79EE2, size: 0x8, addend: 0x0, symName: '__ZN3std11collections4hash3map24HashMap$LT$K$C$V$C$S$GT$3len17h6b1e36d8243b5aabE', symObjAddr: 0x330, symBinAddr: 0x2E3B0, symSize: 0x10 }
  - { offset: 0x79F79, size: 0x8, addend: 0x0, symName: '__ZN3std11collections4hash3map24HashMap$LT$K$C$V$C$S$GT$4keys17h504189b41fb10e77E', symObjAddr: 0x340, symBinAddr: 0x2E3C0, symSize: 0x50 }
  - { offset: 0x79FE2, size: 0x8, addend: 0x0, symName: '__ZN3std11collections4hash3map24HashMap$LT$K$C$V$C$S$GT$6insert17h08debd22263f6799E', symObjAddr: 0x390, symBinAddr: 0x2E410, symSize: 0x20 }
  - { offset: 0x7A04C, size: 0x8, addend: 0x0, symName: '__ZN3std11collections4hash3map24HashMap$LT$K$C$V$C$S$GT$6insert17hc75de866bc809b35E', symObjAddr: 0x3B0, symBinAddr: 0x2E430, symSize: 0x20 }
  - { offset: 0x7A0B6, size: 0x8, addend: 0x0, symName: '__ZN3std11collections4hash3map24HashMap$LT$K$C$V$C$S$GT$6insert17hdb742fc630f99800E', symObjAddr: 0x3D0, symBinAddr: 0x2E450, symSize: 0x30 }
  - { offset: 0x7A113, size: 0x8, addend: 0x0, symName: '__ZN3std11collections4hash3map24HashMap$LT$K$C$V$C$S$GT$6remove17hb64b27ff3cbbb0d5E', symObjAddr: 0x400, symBinAddr: 0x2E480, symSize: 0x20 }
  - { offset: 0x7A24E, size: 0x8, addend: 0x0, symName: '__ZN4core4iter6traits8iterator8Iterator8for_each4call28_$u7b$$u7b$closure$u7d$$u7d$17h5c3d951aea307309E', symObjAddr: 0x0, symBinAddr: 0x2EA10, symSize: 0x20 }
  - { offset: 0x7A324, size: 0x8, addend: 0x0, symName: '__ZN4core4iter6traits8iterator8Iterator8for_each4call28_$u7b$$u7b$closure$u7d$$u7d$17h5c3d951aea307309E', symObjAddr: 0x0, symBinAddr: 0x2EA10, symSize: 0x20 }
  - { offset: 0x7A37C, size: 0x8, addend: 0x0, symName: '__ZN4core4iter6traits8iterator8Iterator8for_each4call28_$u7b$$u7b$closure$u7d$$u7d$17hbbe2edf121b9806cE', symObjAddr: 0x20, symBinAddr: 0x2EA30, symSize: 0x20 }
  - { offset: 0x7A3E5, size: 0x8, addend: 0x0, symName: '__ZN87_$LT$I$u20$as$u20$core..iter..traits..iterator..Iterator..advance_by..SpecAdvanceBy$GT$15spec_advance_by28_$u7b$$u7b$closure$u7d$$u7d$17h0894c29604b06124E', symObjAddr: 0x40, symBinAddr: 0x2EA50, symSize: 0x40 }
  - { offset: 0x7A432, size: 0x8, addend: 0x0, symName: '__ZN87_$LT$I$u20$as$u20$core..iter..traits..iterator..Iterator..advance_by..SpecAdvanceBy$GT$15spec_advance_by28_$u7b$$u7b$closure$u7d$$u7d$17h0faf99d3686203b5E', symObjAddr: 0x80, symBinAddr: 0x2EA90, symSize: 0x40 }
  - { offset: 0x7A47F, size: 0x8, addend: 0x0, symName: '__ZN87_$LT$I$u20$as$u20$core..iter..traits..iterator..Iterator..advance_by..SpecAdvanceBy$GT$15spec_advance_by28_$u7b$$u7b$closure$u7d$$u7d$17h345203be45e0e872E', symObjAddr: 0xC0, symBinAddr: 0x2EAD0, symSize: 0x40 }
  - { offset: 0x7A4CC, size: 0x8, addend: 0x0, symName: '__ZN87_$LT$I$u20$as$u20$core..iter..traits..iterator..Iterator..advance_by..SpecAdvanceBy$GT$15spec_advance_by28_$u7b$$u7b$closure$u7d$$u7d$17h54c9e1b423d0372bE', symObjAddr: 0x100, symBinAddr: 0x2EB10, symSize: 0x20 }
  - { offset: 0x7A519, size: 0x8, addend: 0x0, symName: '__ZN87_$LT$I$u20$as$u20$core..iter..traits..iterator..Iterator..advance_by..SpecAdvanceBy$GT$15spec_advance_by28_$u7b$$u7b$closure$u7d$$u7d$17h9ddd883a302cf9fcE', symObjAddr: 0x120, symBinAddr: 0x2EB30, symSize: 0x20 }
  - { offset: 0x7A566, size: 0x8, addend: 0x0, symName: '__ZN87_$LT$I$u20$as$u20$core..iter..traits..iterator..Iterator..advance_by..SpecAdvanceBy$GT$15spec_advance_by28_$u7b$$u7b$closure$u7d$$u7d$17hd6971f3bdbe6b3a4E', symObjAddr: 0x140, symBinAddr: 0x2EB50, symSize: 0x1D }
  - { offset: 0x7BA2A, size: 0x8, addend: 0x0, symName: '__ZN4pyo311conversions3std6string80_$LT$impl$u20$pyo3..conversion..ToPyObject$u20$for$u20$alloc..string..String$GT$9to_object17h6dc6d620e659c71dE', symObjAddr: 0x0, symBinAddr: 0x2EB70, symSize: 0x40 }
  - { offset: 0x7BAB7, size: 0x8, addend: 0x0, symName: '__ZN4pyo311conversions3std6string80_$LT$impl$u20$pyo3..conversion..ToPyObject$u20$for$u20$alloc..string..String$GT$9to_object17h6dc6d620e659c71dE', symObjAddr: 0x0, symBinAddr: 0x2EB70, symSize: 0x40 }
  - { offset: 0x7C154, size: 0x8, addend: 0x0, symName: '__ZN51_$LT$str$u20$as$u20$alloc..string..SpecToString$GT$14spec_to_string17hd2dc245cdbd7af85E', symObjAddr: 0x40, symBinAddr: 0x2EBB0, symSize: 0x50 }
  - { offset: 0x7C27D, size: 0x8, addend: 0x0, symName: '__ZN62_$LT$alloc..string..String$u20$as$u20$core..cmp..PartialEq$GT$2eq17h06d7bdee050bf5c6E', symObjAddr: 0xF0, symBinAddr: 0x2EC60, symSize: 0x20 }
  - { offset: 0x7C2C0, size: 0x8, addend: 0x0, symName: '__ZN65_$LT$alloc..string..String$u20$as$u20$core..ops..deref..Deref$GT$5deref17h41c14fdc356bec86E', symObjAddr: 0x110, symBinAddr: 0x2EC80, symSize: 0x20 }
  - { offset: 0x7C32E, size: 0x8, addend: 0x0, symName: '__ZN77_$LT$alloc..string..String$u20$as$u20$core..cmp..PartialEq$LT$$RF$str$GT$$GT$2eq17h788c24f797d36a6cE', symObjAddr: 0x130, symBinAddr: 0x2ECA0, symSize: 0x106 }
  - { offset: 0x7C8EB, size: 0x8, addend: 0x0, symName: __ZN5alloc6string6String6as_str17hf5ab8972d3e07e20E, symObjAddr: 0x90, symBinAddr: 0x2EC00, symSize: 0x60 }
  - { offset: 0x7CB4F, size: 0x8, addend: 0x0, symName: __ZN4core5slice3raw14from_raw_parts18precondition_check17hba0467c9792f5fa7E, symObjAddr: 0x0, symBinAddr: 0x2EDB0, symSize: 0x100 }
  - { offset: 0x7CD72, size: 0x8, addend: 0x0, symName: __ZN4core5slice3raw14from_raw_parts18precondition_check17hba0467c9792f5fa7E, symObjAddr: 0x0, symBinAddr: 0x2EDB0, symSize: 0x100 }
  - { offset: 0x7CEC2, size: 0x8, addend: 0x0, symName: __ZN4core5slice3raw18from_raw_parts_mut18precondition_check17h17a73ff63c3e8102E, symObjAddr: 0x100, symBinAddr: 0x2EEB0, symSize: 0xFA }
  - { offset: 0x7D08B, size: 0x8, addend: 0x0, symName: '__ZN73_$LT$$u5b$A$u5d$$u20$as$u20$core..slice..cmp..SlicePartialEq$LT$B$GT$$GT$5equal17hef2fa536aee005d0E', symObjAddr: 0x0, symBinAddr: 0x2EFB0, symSize: 0x6A }
  - { offset: 0x7D0D9, size: 0x8, addend: 0x0, symName: '__ZN73_$LT$$u5b$A$u5d$$u20$as$u20$core..slice..cmp..SlicePartialEq$LT$B$GT$$GT$5equal17hef2fa536aee005d0E', symObjAddr: 0x0, symBinAddr: 0x2EFB0, symSize: 0x6A }
  - { offset: 0x7D1BD, size: 0x8, addend: 0x0, symName: '__ZN4core3mem13manually_drop21ManuallyDrop$LT$T$GT$4drop17h92986526a6aa731fE', symObjAddr: 0x0, symBinAddr: 0x2F020, symSize: 0x20 }
  - { offset: 0x7DD0F, size: 0x8, addend: 0x0, symName: '__ZN4core3mem13manually_drop21ManuallyDrop$LT$T$GT$4drop17h92986526a6aa731fE', symObjAddr: 0x0, symBinAddr: 0x2F020, symSize: 0x20 }
  - { offset: 0x7DD47, size: 0x8, addend: 0x0, symName: '__ZN4core3mem13manually_drop21ManuallyDrop$LT$T$GT$4drop17haf456bdd0dc168c8E', symObjAddr: 0x20, symBinAddr: 0x2F040, symSize: 0x20 }
  - { offset: 0x7DD7F, size: 0x8, addend: 0x0, symName: '__ZN4core3mem13manually_drop21ManuallyDrop$LT$T$GT$4drop17hdf5445ad00f1bc8eE', symObjAddr: 0x40, symBinAddr: 0x2F060, symSize: 0x17 }
  - { offset: 0x7DDC8, size: 0x8, addend: 0x0, symName: __ZN4pyo36marker6Python17from_borrowed_ptr17h6b7a862f6f12c959E, symObjAddr: 0x0, symBinAddr: 0x2F080, symSize: 0x20 }
  - { offset: 0x7E1C0, size: 0x8, addend: 0x0, symName: __ZN4pyo36marker6Python17from_borrowed_ptr17h6b7a862f6f12c959E, symObjAddr: 0x0, symBinAddr: 0x2F080, symSize: 0x20 }
  - { offset: 0x7E214, size: 0x8, addend: 0x0, symName: __ZN4pyo36marker6Python24from_borrowed_ptr_or_opt17h470ea0f16e09bc37E, symObjAddr: 0x20, symBinAddr: 0x2F0A0, symSize: 0x20 }
  - { offset: 0x7E268, size: 0x8, addend: 0x0, symName: __ZN4pyo36marker6Python24from_borrowed_ptr_or_opt17h9021a13469a6d55fE, symObjAddr: 0x40, symBinAddr: 0x2F0C0, symSize: 0x17 }
  - { offset: 0x7E2CD, size: 0x8, addend: 0x0, symName: __ZN4core9panicking13assert_failed17h3c8445c8cf1b6525E, symObjAddr: 0x0, symBinAddr: 0xA5100, symSize: 0x4D }
  - { offset: 0x7E355, size: 0x8, addend: 0x0, symName: __ZN4core9panicking13assert_failed17h3c8445c8cf1b6525E, symObjAddr: 0x0, symBinAddr: 0xA5100, symSize: 0x4D }
  - { offset: 0x7E3BE, size: 0x8, addend: 0x0, symName: __ZN4core9panicking13assert_failed17h6b8f66ccd8c2a629E, symObjAddr: 0x4D, symBinAddr: 0xA514D, symSize: 0x4D }
  - { offset: 0x7E78D, size: 0x8, addend: 0x0, symName: __ZN4pyo35types4list13new_from_iter17h1e80b6e0effd47b7E, symObjAddr: 0x0, symBinAddr: 0x2F0E0, symSize: 0x300 }
  - { offset: 0x7E9AB, size: 0x8, addend: 0x0, symName: __ZN4pyo35types4list13new_from_iter17h1e80b6e0effd47b7E, symObjAddr: 0x0, symBinAddr: 0x2F0E0, symSize: 0x300 }
  - { offset: 0x7EAB1, size: 0x8, addend: 0x0, symName: '__ZN69_$LT$pyo3..types..list..PyList$u20$as$u20$core..ops..deref..Deref$GT$5deref17hfb981d447cba9d50E', symObjAddr: 0x300, symBinAddr: 0x2F3E0, symSize: 0x10 }
  - { offset: 0x7EAE3, size: 0x8, addend: 0x0, symName: '__ZN74_$LT$pyo3..types..list..PyList$u20$as$u20$pyo3..conversion..ToPyObject$GT$9to_object17h65e8d32c890cb71eE', symObjAddr: 0x310, symBinAddr: 0x2F3F0, symSize: 0x27 }
  - { offset: 0x7ED4F, size: 0x8, addend: 0x0, symName: '__ZN4pyo34sync20GILOnceCell$LT$T$GT$15get_or_try_init17h101a832b65124235E', symObjAddr: 0x0, symBinAddr: 0x2F420, symSize: 0xB0 }
  - { offset: 0x7F9FE, size: 0x8, addend: 0x0, symName: '__ZN4pyo34sync20GILOnceCell$LT$T$GT$15get_or_try_init17h101a832b65124235E', symObjAddr: 0x0, symBinAddr: 0x2F420, symSize: 0xB0 }
  - { offset: 0x7FA77, size: 0x8, addend: 0x0, symName: '__ZN4pyo34sync20GILOnceCell$LT$T$GT$15get_or_try_init17hac9de2abbf189fdcE', symObjAddr: 0xB0, symBinAddr: 0x2F4D0, symSize: 0xB0 }
  - { offset: 0x7FAF0, size: 0x8, addend: 0x0, symName: '__ZN4pyo34sync20GILOnceCell$LT$T$GT$15get_or_try_init17hc2e9764889df1b3bE', symObjAddr: 0x160, symBinAddr: 0x2F580, symSize: 0xB0 }
  - { offset: 0x7FB69, size: 0x8, addend: 0x0, symName: '__ZN4pyo34sync20GILOnceCell$LT$T$GT$3get17hf5d958936a6f0891E', symObjAddr: 0x210, symBinAddr: 0x2F630, symSize: 0x70 }
  - { offset: 0x7FBEA, size: 0x8, addend: 0x0, symName: '__ZN4pyo34sync20GILOnceCell$LT$T$GT$3set17hf2cec0b52a6c3956E', symObjAddr: 0x280, symBinAddr: 0x2F6A0, symSize: 0x1E0 }
  - { offset: 0x7FCE3, size: 0x8, addend: 0x0, symName: '__ZN4pyo34sync20GILOnceCell$LT$T$GT$4init17h1f0d53b73c9b882eE', symObjAddr: 0x460, symBinAddr: 0xA51A0, symSize: 0x240 }
  - { offset: 0x7FDBA, size: 0x8, addend: 0x0, symName: '__ZN4pyo34sync20GILOnceCell$LT$T$GT$4init17h3fbfbd7701d14717E', symObjAddr: 0x6A0, symBinAddr: 0xA53E0, symSize: 0x240 }
  - { offset: 0x7FE91, size: 0x8, addend: 0x0, symName: '__ZN4pyo34sync20GILOnceCell$LT$T$GT$4init17h9cafe9dff1d7bbadE', symObjAddr: 0x8E0, symBinAddr: 0xA5620, symSize: 0x240 }
  - { offset: 0x7FF93, size: 0x8, addend: 0x0, symName: '__ZN4pyo311conversions3std3vec136_$LT$impl$u20$pyo3..conversion..IntoPy$LT$pyo3..instance..Py$LT$pyo3..types..any..PyAny$GT$$GT$$u20$for$u20$alloc..vec..Vec$LT$T$GT$$GT$7into_py28_$u7b$$u7b$closure$u7d$$u7d$17he747d126da4f445aE', symObjAddr: 0x0, symBinAddr: 0x2F880, symSize: 0x26 }
  - { offset: 0x80025, size: 0x8, addend: 0x0, symName: '__ZN4pyo311conversions3std3vec136_$LT$impl$u20$pyo3..conversion..IntoPy$LT$pyo3..instance..Py$LT$pyo3..types..any..PyAny$GT$$GT$$u20$for$u20$alloc..vec..Vec$LT$T$GT$$GT$7into_py28_$u7b$$u7b$closure$u7d$$u7d$17he747d126da4f445aE', symObjAddr: 0x0, symBinAddr: 0x2F880, symSize: 0x26 }
  - { offset: 0x8033D, size: 0x8, addend: 0x0, symName: '__ZN102_$LT$core..iter..adapters..zip..Zip$LT$A$C$B$GT$$u20$as$u20$core..iter..traits..iterator..Iterator$GT$4next17h45e74805afa195dbE', symObjAddr: 0x0, symBinAddr: 0x2F8B0, symSize: 0x20 }
  - { offset: 0x80363, size: 0x8, addend: 0x0, symName: '__ZN102_$LT$core..iter..adapters..zip..Zip$LT$A$C$B$GT$$u20$as$u20$core..iter..traits..iterator..Iterator$GT$4next17h45e74805afa195dbE', symObjAddr: 0x0, symBinAddr: 0x2F8B0, symSize: 0x20 }
  - { offset: 0x803A7, size: 0x8, addend: 0x0, symName: '__ZN111_$LT$core..iter..adapters..zip..Zip$LT$A$C$B$GT$$u20$as$u20$core..iter..adapters..zip..ZipImpl$LT$A$C$B$GT$$GT$3new17h37f3dc44330fcb7eE', symObjAddr: 0x20, symBinAddr: 0x2F8D0, symSize: 0xC0 }
  - { offset: 0x8043B, size: 0x8, addend: 0x0, symName: '__ZN111_$LT$core..iter..adapters..zip..Zip$LT$A$C$B$GT$$u20$as$u20$core..iter..adapters..zip..ZipImpl$LT$A$C$B$GT$$GT$4next17h127239a188330d1bE', symObjAddr: 0xE0, symBinAddr: 0x2F990, symSize: 0xA0 }
  - { offset: 0x80587, size: 0x8, addend: 0x0, symName: __ZN4core4iter6traits8iterator8Iterator9enumerate17hbfe7469b09ae0495E, symObjAddr: 0x180, symBinAddr: 0x2FA30, symSize: 0x40 }
  - { offset: 0x805E0, size: 0x8, addend: 0x0, symName: '__ZN63_$LT$I$u20$as$u20$core..iter..traits..collect..IntoIterator$GT$9into_iter17hda76f1e3a13ef672E', symObjAddr: 0x1C0, symBinAddr: 0x2FA70, symSize: 0x23 }
  - { offset: 0x80A47, size: 0x8, addend: 0x0, symName: '__ZN10tachyon_rs6engine11TrackedDict11__getitem__28_$u7b$$u7b$closure$u7d$$u7d$17he28fcf210bbc4692E', symObjAddr: 0x0, symBinAddr: 0x2FAA0, symSize: 0x40 }
  - { offset: 0x80B24, size: 0x8, addend: 0x0, symName: '__ZN4core5slice29_$LT$impl$u20$$u5b$T$u5d$$GT$4iter17h988346dd22850ddaE', symObjAddr: 0x4F0, symBinAddr: 0x2FF90, symSize: 0x20 }
  - { offset: 0x80BA3, size: 0x8, addend: 0x0, symName: '__ZN50_$LT$T$u20$as$u20$core..convert..Into$LT$U$GT$$GT$4into17h320c1a0b61f5867aE', symObjAddr: 0x7A0, symBinAddr: 0x30240, symSize: 0x20 }
  - { offset: 0x80BE4, size: 0x8, addend: 0x0, symName: '__ZN50_$LT$T$u20$as$u20$core..convert..Into$LT$U$GT$$GT$4into17h764314b80d6dd2ccE', symObjAddr: 0x7C0, symBinAddr: 0x30260, symSize: 0x20 }
  - { offset: 0x80C25, size: 0x8, addend: 0x0, symName: '__ZN50_$LT$T$u20$as$u20$core..convert..Into$LT$U$GT$$GT$4into17h7e95ef4ccfb18608E', symObjAddr: 0x7E0, symBinAddr: 0x30280, symSize: 0x20 }
  - { offset: 0x8163C, size: 0x8, addend: 0x0, symName: '__ZN10tachyon_rs6engine11TrackedDict11__getitem__28_$u7b$$u7b$closure$u7d$$u7d$17he28fcf210bbc4692E', symObjAddr: 0x0, symBinAddr: 0x2FAA0, symSize: 0x40 }
  - { offset: 0x81672, size: 0x8, addend: 0x0, symName: '__ZN10tachyon_rs6engine11TrackedDict11__setitem__28_$u7b$$u7b$closure$u7d$$u7d$17h38a49a0610b14d60E', symObjAddr: 0x40, symBinAddr: 0x2FAE0, symSize: 0x20 }
  - { offset: 0x816C5, size: 0x8, addend: 0x0, symName: '__ZN10tachyon_rs6engine11TrackedDict3get28_$u7b$$u7b$closure$u7d$$u7d$17h543def72c87226b6E', symObjAddr: 0x60, symBinAddr: 0x2FB00, symSize: 0x30 }
  - { offset: 0x8170B, size: 0x8, addend: 0x0, symName: '__ZN10tachyon_rs6engine11TrackedDict3get28_$u7b$$u7b$closure$u7d$$u7d$28_$u7b$$u7b$closure$u7d$$u7d$17h3a82ee92fa417d03E', symObjAddr: 0x90, symBinAddr: 0x2FB30, symSize: 0x20 }
  - { offset: 0x8175F, size: 0x8, addend: 0x0, symName: '__ZN10tachyon_rs6engine11TrackedDict4keys28_$u7b$$u7b$closure$u7d$$u7d$17h40d525fef98b330cE', symObjAddr: 0xB0, symBinAddr: 0x2FB50, symSize: 0x40 }
  - { offset: 0x817C2, size: 0x8, addend: 0x0, symName: '__ZN10tachyon_rs6engine11TrackedDict8__iter__28_$u7b$$u7b$closure$u7d$$u7d$17hec1bf590c9c5485fE', symObjAddr: 0xF0, symBinAddr: 0x2FB90, symSize: 0x40 }
  - { offset: 0x8182B, size: 0x8, addend: 0x0, symName: '__ZN10tachyon_rs6engine11TrackedList11__getitem__28_$u7b$$u7b$closure$u7d$$u7d$17h7d1386654e3387c4E', symObjAddr: 0x130, symBinAddr: 0x2FBD0, symSize: 0x30 }
  - { offset: 0x81868, size: 0x8, addend: 0x0, symName: '__ZN10tachyon_rs6engine13TachyonEngine21get_root_to_node_path28_$u7b$$u7b$closure$u7d$$u7d$17h8407a776517415a2E', symObjAddr: 0x160, symBinAddr: 0x2FC00, symSize: 0x30 }
  - { offset: 0x818BB, size: 0x8, addend: 0x0, symName: '__ZN10tachyon_rs6engine1_1_11__INVENTORY6__wrap28_$u7b$$u7b$closure$u7d$$u7d$17hb935f8fc3a3708eaE', symObjAddr: 0x190, symBinAddr: 0x2FC30, symSize: 0xF0 }
  - { offset: 0x8197D, size: 0x8, addend: 0x0, symName: '__ZN10tachyon_rs6engine1_49_$LT$impl$u20$tachyon_rs..engine..TrackedDict$GT$16__pymethod_get__28_$u7b$$u7b$closure$u7d$$u7d$17h0e572178b74a44b3E', symObjAddr: 0x280, symBinAddr: 0x2FD20, symSize: 0x10 }
  - { offset: 0x819B4, size: 0x8, addend: 0x0, symName: '__ZN10tachyon_rs6engine1_49_$LT$impl$u20$tachyon_rs..engine..TrackedDict$GT$21__pymethod___iter____28_$u7b$$u7b$closure$u7d$$u7d$17ha434484e9349453bE', symObjAddr: 0x290, symBinAddr: 0x2FD30, symSize: 0x40 }
  - { offset: 0x81A00, size: 0x8, addend: 0x0, symName: '__ZN10tachyon_rs6engine1_49_$LT$impl$u20$tachyon_rs..engine..TrackedList$GT$16__pymethod_pop__28_$u7b$$u7b$closure$u7d$$u7d$17hde7868363edb2c64E', symObjAddr: 0x2D0, symBinAddr: 0x2FD70, symSize: 0x10 }
  - { offset: 0x81A3D, size: 0x8, addend: 0x0, symName: '__ZN10tachyon_rs6engine1_95_$LT$impl$u20$pyo3..impl_..pyclass..PyClassImpl$u20$for$u20$tachyon_rs..engine..TrackedDict$GT$3doc28_$u7b$$u7b$closure$u7d$$u7d$17h4ca0e6315cf24b6eE', symObjAddr: 0x2E0, symBinAddr: 0x2FD80, symSize: 0x60 }
  - { offset: 0x81A8A, size: 0x8, addend: 0x0, symName: '__ZN10tachyon_rs6engine1_95_$LT$impl$u20$pyo3..impl_..pyclass..PyClassImpl$u20$for$u20$tachyon_rs..engine..TrackedDict$GT$3doc28_$u7b$$u7b$closure$u7d$$u7d$28_$u7b$$u7b$closure$u7d$$u7d$17hae24e76bd06abb68E', symObjAddr: 0x340, symBinAddr: 0x2FDE0, symSize: 0x20 }
  - { offset: 0x81AC4, size: 0x8, addend: 0x0, symName: '__ZN10tachyon_rs6engine1_95_$LT$impl$u20$pyo3..impl_..pyclass..PyClassImpl$u20$for$u20$tachyon_rs..engine..TrackedList$GT$3doc28_$u7b$$u7b$closure$u7d$$u7d$28_$u7b$$u7b$closure$u7d$$u7d$17he96c864a8d13e9d0E', symObjAddr: 0x3C0, symBinAddr: 0x2FE60, symSize: 0x20 }
  - { offset: 0x81AFE, size: 0x8, addend: 0x0, symName: '__ZN10tachyon_rs6engine1_97_$LT$impl$u20$pyo3..impl_..pyclass..PyClassImpl$u20$for$u20$tachyon_rs..engine..TachyonEngine$GT$3doc28_$u7b$$u7b$closure$u7d$$u7d$28_$u7b$$u7b$closure$u7d$$u7d$17h41b33f976284594fE', symObjAddr: 0x440, symBinAddr: 0x2FEE0, symSize: 0x20 }
  - { offset: 0x81B6F, size: 0x8, addend: 0x0, symName: '__ZN10tachyon_rs6engine1_95_$LT$impl$u20$pyo3..impl_..pyclass..PyClassImpl$u20$for$u20$tachyon_rs..engine..TrackedList$GT$3doc28_$u7b$$u7b$closure$u7d$$u7d$17h97bc5071fbd5d4efE', symObjAddr: 0x360, symBinAddr: 0x2FE00, symSize: 0x60 }
  - { offset: 0x81BB7, size: 0x8, addend: 0x0, symName: '__ZN10tachyon_rs6engine1_97_$LT$impl$u20$pyo3..impl_..pyclass..PyClassImpl$u20$for$u20$tachyon_rs..engine..TachyonEngine$GT$3doc28_$u7b$$u7b$closure$u7d$$u7d$17hd845e8f743ce2d09E', symObjAddr: 0x3E0, symBinAddr: 0x2FE80, symSize: 0x60 }
  - { offset: 0x81EE9, size: 0x8, addend: 0x0, symName: '__ZN43_$LT$T$u20$as$u20$inventory..ErasedNode$GT$6submit17h2869fbe7f19540c6E', symObjAddr: 0x460, symBinAddr: 0x2FF00, symSize: 0x30 }
  - { offset: 0x81F28, size: 0x8, addend: 0x0, symName: '__ZN43_$LT$T$u20$as$u20$inventory..ErasedNode$GT$6submit17hac840e269b9f5977E', symObjAddr: 0x490, symBinAddr: 0x2FF30, symSize: 0x30 }
  - { offset: 0x81F67, size: 0x8, addend: 0x0, symName: '__ZN43_$LT$T$u20$as$u20$inventory..ErasedNode$GT$6submit17he090fe62b521c474E', symObjAddr: 0x4C0, symBinAddr: 0x2FF60, symSize: 0x30 }
  - { offset: 0x81FD8, size: 0x8, addend: 0x0, symName: __ZN4pyo311type_object10PyTypeInfo10is_type_of17h42c05a31a9531fd4E, symObjAddr: 0x510, symBinAddr: 0x2FFB0, symSize: 0x50 }
  - { offset: 0x8200D, size: 0x8, addend: 0x0, symName: __ZN4pyo311type_object10PyTypeInfo10is_type_of17h44531768fd3e42beE, symObjAddr: 0x560, symBinAddr: 0x30000, symSize: 0x50 }
  - { offset: 0x82042, size: 0x8, addend: 0x0, symName: __ZN4pyo311type_object10PyTypeInfo10is_type_of17h534154fd47754727E, symObjAddr: 0x5B0, symBinAddr: 0x30050, symSize: 0x50 }
  - { offset: 0x82083, size: 0x8, addend: 0x0, symName: '__ZN4pyo312pyclass_init123_$LT$impl$u20$pyo3..callback..IntoPyCallbackOutput$LT$pyo3..pyclass_init..PyClassInitializer$LT$T$GT$$GT$$u20$for$u20$U$GT$7convert17ha18b4a5cd5f25770E', symObjAddr: 0x600, symBinAddr: 0x300A0, symSize: 0x70 }
  - { offset: 0x820E1, size: 0x8, addend: 0x0, symName: '__ZN4pyo312pyclass_init123_$LT$impl$u20$pyo3..callback..IntoPyCallbackOutput$LT$pyo3..pyclass_init..PyClassInitializer$LT$T$GT$$GT$$u20$for$u20$U$GT$7convert17hb6bc7b7f1084f281E', symObjAddr: 0x670, symBinAddr: 0x30110, symSize: 0x60 }
  - { offset: 0x8213D, size: 0x8, addend: 0x0, symName: '__ZN4pyo312pyclass_init123_$LT$impl$u20$pyo3..callback..IntoPyCallbackOutput$LT$pyo3..pyclass_init..PyClassInitializer$LT$T$GT$$GT$$u20$for$u20$U$GT$7convert17hfb7b3c92fd0124e8E', symObjAddr: 0x6D0, symBinAddr: 0x30170, symSize: 0x70 }
  - { offset: 0x823A4, size: 0x8, addend: 0x0, symName: __ZN4pyo35impl_7pyclass11PyClassImpl11dict_offset17h04458c4f3f9689b6E, symObjAddr: 0x740, symBinAddr: 0x301E0, symSize: 0x10 }
  - { offset: 0x823CB, size: 0x8, addend: 0x0, symName: __ZN4pyo35impl_7pyclass11PyClassImpl11dict_offset17h5b8bd01ec9da35c3E, symObjAddr: 0x750, symBinAddr: 0x301F0, symSize: 0x10 }
  - { offset: 0x823F2, size: 0x8, addend: 0x0, symName: __ZN4pyo35impl_7pyclass11PyClassImpl11dict_offset17hb9a70cc760587fa2E, symObjAddr: 0x760, symBinAddr: 0x30200, symSize: 0x10 }
  - { offset: 0x82419, size: 0x8, addend: 0x0, symName: __ZN4pyo35impl_7pyclass11PyClassImpl15weaklist_offset17h2886d5612413d142E, symObjAddr: 0x770, symBinAddr: 0x30210, symSize: 0x10 }
  - { offset: 0x82440, size: 0x8, addend: 0x0, symName: __ZN4pyo35impl_7pyclass11PyClassImpl15weaklist_offset17haa1de52001f994c3E, symObjAddr: 0x780, symBinAddr: 0x30220, symSize: 0x10 }
  - { offset: 0x82467, size: 0x8, addend: 0x0, symName: __ZN4pyo35impl_7pyclass11PyClassImpl15weaklist_offset17hceab5bc0e18a56acE, symObjAddr: 0x790, symBinAddr: 0x30230, symSize: 0x10 }
  - { offset: 0x82DD4, size: 0x8, addend: 0x0, symName: '__ZN5alloc5slice29_$LT$impl$u20$$u5b$T$u5d$$GT$8into_vec17h597f921d5e854668E', symObjAddr: 0x800, symBinAddr: 0x302A0, symSize: 0x40 }
  - { offset: 0x83622, size: 0x8, addend: 0x0, symName: __ZN4core4hint16assert_unchecked18precondition_check17h39e817d889c4b681E, symObjAddr: 0x0, symBinAddr: 0x302E0, symSize: 0x50 }
  - { offset: 0x8363E, size: 0x8, addend: 0x0, symName: __ZN4core4hint16assert_unchecked18precondition_check17h39e817d889c4b681E, symObjAddr: 0x0, symBinAddr: 0x302E0, symSize: 0x50 }
  - { offset: 0x83689, size: 0x8, addend: 0x0, symName: __ZN4core4hint21unreachable_unchecked18precondition_check17h335bce8aa7e7e4c5E, symObjAddr: 0x50, symBinAddr: 0x30330, symSize: 0x31 }
  - { offset: 0x8371D, size: 0x8, addend: 0x0, symName: __ZN9hashbrown7control5group4sse25Group44convert_special_to_empty_and_full_to_deleted17h500170ca81614685E, symObjAddr: 0x0, symBinAddr: 0x30370, symSize: 0xC8 }
  - { offset: 0x837AE, size: 0x8, addend: 0x0, symName: __ZN9hashbrown7control5group4sse25Group44convert_special_to_empty_and_full_to_deleted17h500170ca81614685E, symObjAddr: 0x0, symBinAddr: 0x30370, symSize: 0xC8 }
  - { offset: 0x8382C, size: 0x8, addend: 0x0, symName: __ZN4core4iter6traits8iterator8Iterator3map17h2554d43491bd6989E, symObjAddr: 0x0, symBinAddr: 0x30440, symSize: 0x20 }
  - { offset: 0x83852, size: 0x8, addend: 0x0, symName: __ZN4core4iter6traits8iterator8Iterator3map17h2554d43491bd6989E, symObjAddr: 0x0, symBinAddr: 0x30440, symSize: 0x20 }
  - { offset: 0x838AA, size: 0x8, addend: 0x0, symName: __ZN4core4iter6traits8iterator8Iterator6cloned17hb16d1ca47422bf02E, symObjAddr: 0x20, symBinAddr: 0x30460, symSize: 0x20 }
  - { offset: 0x8391B, size: 0x8, addend: 0x0, symName: '__ZN98_$LT$core..iter..adapters..rev..Rev$LT$I$GT$$u20$as$u20$core..iter..traits..iterator..Iterator$GT$10advance_by17h04abcc01bf155eceE', symObjAddr: 0x40, symBinAddr: 0x30480, symSize: 0x20 }
  - { offset: 0x8395E, size: 0x8, addend: 0x0, symName: '__ZN98_$LT$core..iter..adapters..rev..Rev$LT$I$GT$$u20$as$u20$core..iter..traits..iterator..Iterator$GT$3nth17h707448970ce7c33fE', symObjAddr: 0x60, symBinAddr: 0x304A0, symSize: 0x20 }
  - { offset: 0x839A1, size: 0x8, addend: 0x0, symName: '__ZN98_$LT$core..iter..adapters..rev..Rev$LT$I$GT$$u20$as$u20$core..iter..traits..iterator..Iterator$GT$4fold17heaf35d07bdbf67c4E', symObjAddr: 0x80, symBinAddr: 0x304C0, symSize: 0x20 }
  - { offset: 0x83A01, size: 0x8, addend: 0x0, symName: '__ZN98_$LT$core..iter..adapters..rev..Rev$LT$I$GT$$u20$as$u20$core..iter..traits..iterator..Iterator$GT$4next17h116becc2242583bdE', symObjAddr: 0xA0, symBinAddr: 0x304E0, symSize: 0x20 }
  - { offset: 0x83A36, size: 0x8, addend: 0x0, symName: '__ZN98_$LT$core..iter..adapters..rev..Rev$LT$I$GT$$u20$as$u20$core..iter..traits..iterator..Iterator$GT$9size_hint17h5a066589ba0e9953E', symObjAddr: 0xC0, symBinAddr: 0x30500, symSize: 0x30 }
  - { offset: 0x83A6B, size: 0x8, addend: 0x0, symName: '__ZN98_$LT$core..iter..adapters..rev..Rev$LT$I$GT$$u20$as$u20$core..iter..traits..iterator..Iterator$GT$9size_hint17ha66d47c8cdebe537E', symObjAddr: 0xF0, symBinAddr: 0x30530, symSize: 0x22 }
  - { offset: 0x84342, size: 0x8, addend: 0x0, symName: '__ZN100_$LT$pyo3..pycell..impl_..MutableClass$u20$as$u20$pyo3..pycell..impl_..GetBorrowChecker$LT$T$GT$$GT$14borrow_checker17h248e87330f85ab39E', symObjAddr: 0x0, symBinAddr: 0x30560, symSize: 0x20 }
  - { offset: 0x84363, size: 0x8, addend: 0x0, symName: '__ZN100_$LT$pyo3..pycell..impl_..MutableClass$u20$as$u20$pyo3..pycell..impl_..GetBorrowChecker$LT$T$GT$$GT$14borrow_checker17h248e87330f85ab39E', symObjAddr: 0x0, symBinAddr: 0x30560, symSize: 0x20 }
  - { offset: 0x84398, size: 0x8, addend: 0x0, symName: '__ZN100_$LT$pyo3..pycell..impl_..MutableClass$u20$as$u20$pyo3..pycell..impl_..GetBorrowChecker$LT$T$GT$$GT$14borrow_checker17h428e9abba40deb52E', symObjAddr: 0x20, symBinAddr: 0x30580, symSize: 0x20 }
  - { offset: 0x843CD, size: 0x8, addend: 0x0, symName: '__ZN100_$LT$pyo3..pycell..impl_..MutableClass$u20$as$u20$pyo3..pycell..impl_..GetBorrowChecker$LT$T$GT$$GT$14borrow_checker17he2d78790b20d2621E', symObjAddr: 0x40, symBinAddr: 0x305A0, symSize: 0x17 }
  - { offset: 0x851BA, size: 0x8, addend: 0x0, symName: __ZN4pyo35impl_10trampoline10binaryfunc17hc3d84a1f23c11776E, symObjAddr: 0x0, symBinAddr: 0x305C0, symSize: 0x40 }
  - { offset: 0x8523D, size: 0x8, addend: 0x0, symName: __ZN4pyo35impl_10trampoline10binaryfunc17hc3d84a1f23c11776E, symObjAddr: 0x0, symBinAddr: 0x305C0, symSize: 0x40 }
  - { offset: 0x85285, size: 0x8, addend: 0x0, symName: __ZN4pyo35impl_10trampoline10objobjproc17he3b7b7ad4d9bcd9aE, symObjAddr: 0x40, symBinAddr: 0x30600, symSize: 0x40 }
  - { offset: 0x852CD, size: 0x8, addend: 0x0, symName: __ZN4pyo35impl_10trampoline11getiterfunc17h897019610810ad16E, symObjAddr: 0x80, symBinAddr: 0x30640, symSize: 0x30 }
  - { offset: 0x85307, size: 0x8, addend: 0x0, symName: __ZN4pyo35impl_10trampoline11module_init17ha13c8f87d1e837daE, symObjAddr: 0xB0, symBinAddr: 0x30670, symSize: 0x20 }
  - { offset: 0x85333, size: 0x8, addend: 0x0, symName: __ZN4pyo35impl_10trampoline12setattrofunc17h0bd9d63e6101089aE, symObjAddr: 0xD0, symBinAddr: 0x30690, symSize: 0x50 }
  - { offset: 0x85389, size: 0x8, addend: 0x0, symName: __ZN4pyo35impl_10trampoline23cfunction_with_keywords17hfdf629c3ae2b2957E, symObjAddr: 0x120, symBinAddr: 0x306E0, symSize: 0x50 }
  - { offset: 0x853DF, size: 0x8, addend: 0x0, symName: __ZN4pyo35impl_10trampoline6noargs17h12fbe6984178cd4cE, symObjAddr: 0x170, symBinAddr: 0x30730, symSize: 0x60 }
  - { offset: 0x85427, size: 0x8, addend: 0x0, symName: __ZN4pyo35impl_10trampoline7dealloc17h4363c33bd1aa8fc7E, symObjAddr: 0x1D0, symBinAddr: 0x30790, symSize: 0x30 }
  - { offset: 0x8545D, size: 0x8, addend: 0x0, symName: __ZN4pyo35impl_10trampoline7lenfunc17h1e09cb258b9e856aE, symObjAddr: 0x200, symBinAddr: 0x307C0, symSize: 0x30 }
  - { offset: 0x85497, size: 0x8, addend: 0x0, symName: __ZN4pyo35impl_10trampoline7newfunc17h55eb006ee37f1d0eE, symObjAddr: 0x230, symBinAddr: 0x307F0, symSize: 0x47 }
  - { offset: 0x85E89, size: 0x8, addend: 0x0, symName: '__ZN73_$LT$pyo3..types..module..PyModule$u20$as$u20$core..ops..deref..Deref$GT$5deref17h379c859e8a5437e8E', symObjAddr: 0x0, symBinAddr: 0x30840, symSize: 0xD }
  - { offset: 0x85EAA, size: 0x8, addend: 0x0, symName: '__ZN73_$LT$pyo3..types..module..PyModule$u20$as$u20$core..ops..deref..Deref$GT$5deref17h379c859e8a5437e8E', symObjAddr: 0x0, symBinAddr: 0x30840, symSize: 0xD }
  - { offset: 0x85FDD, size: 0x8, addend: 0x0, symName: __ZN4core3str8converts19from_utf8_unchecked17h1776509f4d6b372dE, symObjAddr: 0x0, symBinAddr: 0x30850, symSize: 0x14 }
  - { offset: 0x85FF9, size: 0x8, addend: 0x0, symName: __ZN4core3str8converts19from_utf8_unchecked17h1776509f4d6b372dE, symObjAddr: 0x0, symBinAddr: 0x30850, symSize: 0x14 }
  - { offset: 0x86099, size: 0x8, addend: 0x0, symName: __ZN4pyo38callback7convert17h237121d2cdd2fdc9E, symObjAddr: 0x0, symBinAddr: 0x30870, symSize: 0x40 }
  - { offset: 0x86117, size: 0x8, addend: 0x0, symName: __ZN4pyo38callback7convert17h237121d2cdd2fdc9E, symObjAddr: 0x0, symBinAddr: 0x30870, symSize: 0x40 }
  - { offset: 0x8616F, size: 0x8, addend: 0x0, symName: __ZN4pyo38callback7convert17h5a3d63167fc1efd3E, symObjAddr: 0x40, symBinAddr: 0x308B0, symSize: 0x40 }
  - { offset: 0x861C7, size: 0x8, addend: 0x0, symName: __ZN4pyo38callback7convert17h630aeeda6e747213E, symObjAddr: 0x80, symBinAddr: 0x308F0, symSize: 0x30 }
  - { offset: 0x8621E, size: 0x8, addend: 0x0, symName: __ZN4pyo38callback7convert17hde603f6c0a9499d0E, symObjAddr: 0xB0, symBinAddr: 0x30920, symSize: 0x22 }
  - { offset: 0x86B29, size: 0x8, addend: 0x0, symName: '__ZN72_$LT$bool$u20$as$u20$pyo3..callback..IntoPyCallbackOutput$LT$i32$GT$$GT$7convert17h3acbd12270e2c824E', symObjAddr: 0x0, symBinAddr: 0x30950, symSize: 0x30 }
  - { offset: 0x86BAC, size: 0x8, addend: 0x0, symName: '__ZN72_$LT$bool$u20$as$u20$pyo3..callback..IntoPyCallbackOutput$LT$i32$GT$$GT$7convert17h3acbd12270e2c824E', symObjAddr: 0x0, symBinAddr: 0x30950, symSize: 0x30 }
  - { offset: 0x86BE8, size: 0x8, addend: 0x0, symName: '__ZN75_$LT$usize$u20$as$u20$pyo3..callback..IntoPyCallbackOutput$LT$isize$GT$$GT$7convert17hc43e8444de83086aE', symObjAddr: 0x30, symBinAddr: 0x30980, symSize: 0x80 }
  - { offset: 0x86C33, size: 0x8, addend: 0x0, symName: '__ZN76_$LT$$LP$$RP$$u20$as$u20$pyo3..callback..IntoPyCallbackOutput$LT$i32$GT$$GT$7convert17hfbcf6ab9a5a0be12E', symObjAddr: 0xB0, symBinAddr: 0x30A00, symSize: 0x20 }
  - { offset: 0x86C7A, size: 0x8, addend: 0x0, symName: '__ZN81_$LT$$LP$$RP$$u20$as$u20$pyo3..callback..IntoPyCallbackOutput$LT$$LP$$RP$$GT$$GT$7convert17h2f12ea3a41142c3fE', symObjAddr: 0xD0, symBinAddr: 0x30A20, symSize: 0x10 }
  - { offset: 0x875DB, size: 0x8, addend: 0x0, symName: '__ZN44_$LT$$RF$T$u20$as$u20$core..fmt..Display$GT$3fmt17hf417b4a3f11a51f5E', symObjAddr: 0x40, symBinAddr: 0x30A90, symSize: 0x20 }
  - { offset: 0x87BA0, size: 0x8, addend: 0x0, symName: '__ZN50_$LT$T$u20$as$u20$core..convert..Into$LT$U$GT$$GT$4into17h645f5c943a0f301bE', symObjAddr: 0x7160, symBinAddr: 0x30EE0, symSize: 0x20 }
  - { offset: 0x87E43, size: 0x8, addend: 0x0, symName: '__ZN70_$LT$pyo3..exceptions..PyBaseException$u20$as$u20$core..fmt..Debug$GT$3fmt17hcbf3cf3a422575e7E', symObjAddr: 0xB4E0, symBinAddr: 0x30F00, symSize: 0x120 }
  - { offset: 0x87EB5, size: 0x8, addend: 0x0, symName: '__ZN72_$LT$pyo3..exceptions..PyBaseException$u20$as$u20$core..fmt..Display$GT$3fmt17h962da76070154ae3E', symObjAddr: 0xEEB0, symBinAddr: 0x31020, symSize: 0x320 }
  - { offset: 0x87F8F, size: 0x8, addend: 0x0, symName: '__ZN77_$LT$pyo3..exceptions..PyBaseException$u20$as$u20$core..ops..deref..Deref$GT$5deref17hc6400f67e6f278d7E', symObjAddr: 0x17220, symBinAddr: 0x31340, symSize: 0x10 }
  - { offset: 0x87FC6, size: 0x8, addend: 0x0, symName: '__ZN78_$LT$pyo3..exceptions..PyKeyError$u20$as$u20$pyo3..type_object..PyTypeInfo$GT$15type_object_raw28_$u7b$$u7b$closure$u7d$$u7d$17hf89b47e54317482eE', symObjAddr: 0x18FB0, symBinAddr: 0x31350, symSize: 0x40 }
  - { offset: 0x88019, size: 0x8, addend: 0x0, symName: '__ZN79_$LT$pyo3..exceptions..PyTypeError$u20$as$u20$pyo3..type_object..PyTypeInfo$GT$15type_object_raw17h9cf1cfa29a0d6e09E', symObjAddr: 0x1A000, symBinAddr: 0x31390, symSize: 0x20 }
  - { offset: 0x88055, size: 0x8, addend: 0x0, symName: '__ZN79_$LT$pyo3..exceptions..PyTypeError$u20$as$u20$pyo3..type_object..PyTypeInfo$GT$15type_object_raw28_$u7b$$u7b$closure$u7d$$u7d$17h74bc06fc5ad4f93eE', symObjAddr: 0x1A020, symBinAddr: 0x313B0, symSize: 0x40 }
  - { offset: 0x880AD, size: 0x8, addend: 0x0, symName: '__ZN80_$LT$pyo3..exceptions..PyIndexError$u20$as$u20$pyo3..type_object..PyTypeInfo$GT$15type_object_raw28_$u7b$$u7b$closure$u7d$$u7d$17h86f34dc3887816adE', symObjAddr: 0x1A090, symBinAddr: 0x313F0, symSize: 0x40 }
  - { offset: 0x88100, size: 0x8, addend: 0x0, symName: '__ZN80_$LT$pyo3..exceptions..PyValueError$u20$as$u20$pyo3..type_object..PyTypeInfo$GT$15type_object_raw17h4407310667ee8c33E', symObjAddr: 0x1A500, symBinAddr: 0x31430, symSize: 0x20 }
  - { offset: 0x8813C, size: 0x8, addend: 0x0, symName: '__ZN80_$LT$pyo3..exceptions..PyValueError$u20$as$u20$pyo3..type_object..PyTypeInfo$GT$15type_object_raw28_$u7b$$u7b$closure$u7d$$u7d$17h587b0880f85f54dbE', symObjAddr: 0x1A520, symBinAddr: 0x31450, symSize: 0x40 }
  - { offset: 0x8818F, size: 0x8, addend: 0x0, symName: '__ZN81_$LT$pyo3..exceptions..PyImportError$u20$as$u20$pyo3..type_object..PyTypeInfo$GT$15type_object_raw17hc77d0c2b17daa3d7E', symObjAddr: 0x1AD60, symBinAddr: 0x31490, symSize: 0x20 }
  - { offset: 0x881CB, size: 0x8, addend: 0x0, symName: '__ZN81_$LT$pyo3..exceptions..PyImportError$u20$as$u20$pyo3..type_object..PyTypeInfo$GT$15type_object_raw28_$u7b$$u7b$closure$u7d$$u7d$17hef66c27c157b1dd4E', symObjAddr: 0x1AD80, symBinAddr: 0x314B0, symSize: 0x40 }
  - { offset: 0x8821E, size: 0x8, addend: 0x0, symName: '__ZN82_$LT$pyo3..exceptions..PyRuntimeError$u20$as$u20$pyo3..type_object..PyTypeInfo$GT$15type_object_raw17hbfd4401ddf9c07bbE', symObjAddr: 0x1B260, symBinAddr: 0x314F0, symSize: 0x20 }
  - { offset: 0x8825A, size: 0x8, addend: 0x0, symName: '__ZN82_$LT$pyo3..exceptions..PyRuntimeError$u20$as$u20$pyo3..type_object..PyTypeInfo$GT$15type_object_raw28_$u7b$$u7b$closure$u7d$$u7d$17ha22dc573a406291cE', symObjAddr: 0x1B280, symBinAddr: 0x31510, symSize: 0x40 }
  - { offset: 0x882AD, size: 0x8, addend: 0x0, symName: '__ZN83_$LT$pyo3..exceptions..PyBaseException$u20$as$u20$pyo3..type_object..PyTypeInfo$GT$10is_type_of17h25a3a270cd830605E', symObjAddr: 0x1B430, symBinAddr: 0x31550, symSize: 0x30 }
  - { offset: 0x882D9, size: 0x8, addend: 0x0, symName: '__ZN83_$LT$pyo3..exceptions..PyBaseException$u20$as$u20$pyo3..type_object..PyTypeInfo$GT$15type_object_raw17hc5e911a808e2d136E', symObjAddr: 0x1B460, symBinAddr: 0x31580, symSize: 0x20 }
  - { offset: 0x88315, size: 0x8, addend: 0x0, symName: '__ZN83_$LT$pyo3..exceptions..PyBaseException$u20$as$u20$pyo3..type_object..PyTypeInfo$GT$15type_object_raw28_$u7b$$u7b$closure$u7d$$u7d$17h1ce22c9434c6e92eE', symObjAddr: 0x1B480, symBinAddr: 0x315A0, symSize: 0x40 }
  - { offset: 0x88368, size: 0x8, addend: 0x0, symName: '__ZN83_$LT$pyo3..exceptions..PyOverflowError$u20$as$u20$pyo3..type_object..PyTypeInfo$GT$15type_object_raw17hd7f19cbad9c9f734E', symObjAddr: 0x1B600, symBinAddr: 0x315E0, symSize: 0x20 }
  - { offset: 0x883A4, size: 0x8, addend: 0x0, symName: '__ZN83_$LT$pyo3..exceptions..PyOverflowError$u20$as$u20$pyo3..type_object..PyTypeInfo$GT$15type_object_raw28_$u7b$$u7b$closure$u7d$$u7d$17h111ff822ee980f71E', symObjAddr: 0x1B620, symBinAddr: 0x31600, symSize: 0x40 }
  - { offset: 0x883F7, size: 0x8, addend: 0x0, symName: '__ZN84_$LT$pyo3..exceptions..PyAttributeError$u20$as$u20$pyo3..type_object..PyTypeInfo$GT$15type_object_raw17hfec08efedfa14626E', symObjAddr: 0x1B840, symBinAddr: 0x31640, symSize: 0x20 }
  - { offset: 0x88433, size: 0x8, addend: 0x0, symName: '__ZN84_$LT$pyo3..exceptions..PyAttributeError$u20$as$u20$pyo3..type_object..PyTypeInfo$GT$15type_object_raw28_$u7b$$u7b$closure$u7d$$u7d$17ha1ea3914036251d2E', symObjAddr: 0x1B860, symBinAddr: 0x31660, symSize: 0x40 }
  - { offset: 0x88513, size: 0x8, addend: 0x0, symName: '__ZN49_$LT$T$u20$as$u20$pyo3..conversion..PyTryFrom$GT$18try_from_unchecked17h15852e0c385ec4d6E', symObjAddr: 0x150, symBinAddr: 0x30AB0, symSize: 0x30 }
  - { offset: 0x88553, size: 0x8, addend: 0x0, symName: '__ZN49_$LT$T$u20$as$u20$pyo3..conversion..PyTryFrom$GT$8try_from17had5a6ef60a7dc862E', symObjAddr: 0x2E10, symBinAddr: 0x30AE0, symSize: 0xB0 }
  - { offset: 0x8878C, size: 0x8, addend: 0x0, symName: __ZN4pyo38instance12PyNativeType18unchecked_downcast17h0a78f5eae8c95308E, symObjAddr: 0x5A60, symBinAddr: 0x30E60, symSize: 0x60 }
  - { offset: 0x887C1, size: 0x8, addend: 0x0, symName: __ZN4pyo38instance12PyNativeType2py17hb119cff210ace260E, symObjAddr: 0x7140, symBinAddr: 0x30EC0, symSize: 0x20 }
  - { offset: 0x88882, size: 0x8, addend: 0x0, symName: __ZN4pyo311type_object10PyTypeInfo11type_object17h075e55e309d20566E, symObjAddr: 0x56E0, symBinAddr: 0x30D80, symSize: 0x20 }
  - { offset: 0x888C2, size: 0x8, addend: 0x0, symName: __ZN4pyo311type_object10PyTypeInfo11type_object17h18373325c56183f1E, symObjAddr: 0x5720, symBinAddr: 0x30DA0, symSize: 0x20 }
  - { offset: 0x88902, size: 0x8, addend: 0x0, symName: __ZN4pyo311type_object10PyTypeInfo11type_object17h231be6615a866259E, symObjAddr: 0x5760, symBinAddr: 0x30DC0, symSize: 0x20 }
  - { offset: 0x88942, size: 0x8, addend: 0x0, symName: __ZN4pyo311type_object10PyTypeInfo11type_object17h24b5203b4b1d6a75E, symObjAddr: 0x5780, symBinAddr: 0x30DE0, symSize: 0x20 }
  - { offset: 0x88982, size: 0x8, addend: 0x0, symName: __ZN4pyo311type_object10PyTypeInfo11type_object17h2abc5729321b00adE, symObjAddr: 0x57A0, symBinAddr: 0x30E00, symSize: 0x20 }
  - { offset: 0x889C2, size: 0x8, addend: 0x0, symName: __ZN4pyo311type_object10PyTypeInfo11type_object17h794bea4734c30d6fE, symObjAddr: 0x57E0, symBinAddr: 0x30E20, symSize: 0x20 }
  - { offset: 0x88A02, size: 0x8, addend: 0x0, symName: __ZN4pyo311type_object10PyTypeInfo11type_object17h86ed8843a0da206fE, symObjAddr: 0x5800, symBinAddr: 0x30E40, symSize: 0x20 }
  - { offset: 0x88B57, size: 0x8, addend: 0x0, symName: __ZN4pyo310exceptions11PyTypeError7new_err17h27ced5cf28d1a4deE, symObjAddr: 0x3930, symBinAddr: 0x30B90, symSize: 0x30 }
  - { offset: 0x88D0D, size: 0x8, addend: 0x0, symName: __ZN4pyo310exceptions11PyTypeError7new_err17hd613379661c6d840E, symObjAddr: 0x3960, symBinAddr: 0x30BC0, symSize: 0x40 }
  - { offset: 0x88D39, size: 0x8, addend: 0x0, symName: __ZN4pyo310exceptions11PyTypeError7new_err17hf7ec0660030ed113E, symObjAddr: 0x39A0, symBinAddr: 0x30C00, symSize: 0x50 }
  - { offset: 0x88D65, size: 0x8, addend: 0x0, symName: __ZN4pyo310exceptions12PyValueError7new_err17h0792047567d86065E, symObjAddr: 0x39F0, symBinAddr: 0x30C50, symSize: 0x30 }
  - { offset: 0x88D90, size: 0x8, addend: 0x0, symName: __ZN4pyo310exceptions12PyValueError7new_err17h1b36e413343ea3b9E, symObjAddr: 0x3A50, symBinAddr: 0x30C80, symSize: 0x50 }
  - { offset: 0x88DBC, size: 0x8, addend: 0x0, symName: __ZN4pyo310exceptions13PyImportError7new_err17h7e5544030e5be045E, symObjAddr: 0x3BA0, symBinAddr: 0x30CD0, symSize: 0x30 }
  - { offset: 0x88DE7, size: 0x8, addend: 0x0, symName: __ZN4pyo310exceptions14PyRuntimeError7new_err17hb73b19f99af61a94E, symObjAddr: 0x3BD0, symBinAddr: 0x30D00, symSize: 0x40 }
  - { offset: 0x88E1A, size: 0x8, addend: 0x0, symName: __ZN4pyo310exceptions15PyOverflowError7new_err17h0dbf7a3374bf64abE, symObjAddr: 0x3C40, symBinAddr: 0x30D40, symSize: 0x40 }
  - { offset: 0x89013, size: 0x8, addend: 0x0, symName: '__ZN136_$LT$core..result..Result$LT$V$C$E$GT$$u20$as$u20$core..iter..traits..collect..FromIterator$LT$core..result..Result$LT$A$C$E$GT$$GT$$GT$9from_iter17h6718047cff9554fdE', symObjAddr: 0x0, symBinAddr: 0x316A0, symSize: 0x30 }
  - { offset: 0x8A12B, size: 0x8, addend: 0x0, symName: '__ZN136_$LT$core..result..Result$LT$V$C$E$GT$$u20$as$u20$core..iter..traits..collect..FromIterator$LT$core..result..Result$LT$A$C$E$GT$$GT$$GT$9from_iter17h6718047cff9554fdE', symObjAddr: 0x0, symBinAddr: 0x316A0, symSize: 0x30 }
  - { offset: 0x8A183, size: 0x8, addend: 0x0, symName: '__ZN136_$LT$core..result..Result$LT$V$C$E$GT$$u20$as$u20$core..iter..traits..collect..FromIterator$LT$core..result..Result$LT$A$C$E$GT$$GT$$GT$9from_iter28_$u7b$$u7b$closure$u7d$$u7d$17h2e2675f4027ac087E', symObjAddr: 0x30, symBinAddr: 0x316D0, symSize: 0x30 }
  - { offset: 0x8A42F, size: 0x8, addend: 0x0, symName: '__ZN153_$LT$core..result..Result$LT$T$C$F$GT$$u20$as$u20$core..ops..try_trait..FromResidual$LT$core..result..Result$LT$core..convert..Infallible$C$E$GT$$GT$$GT$13from_residual17h0ca9f2d699db00c9E', symObjAddr: 0x1C0, symBinAddr: 0x31700, symSize: 0x70 }
  - { offset: 0x8A4B4, size: 0x8, addend: 0x0, symName: '__ZN153_$LT$core..result..Result$LT$T$C$F$GT$$u20$as$u20$core..ops..try_trait..FromResidual$LT$core..result..Result$LT$core..convert..Infallible$C$E$GT$$GT$$GT$13from_residual17h2258f5b1e2155ccbE', symObjAddr: 0x2A0, symBinAddr: 0x31770, symSize: 0x70 }
  - { offset: 0x8A539, size: 0x8, addend: 0x0, symName: '__ZN153_$LT$core..result..Result$LT$T$C$F$GT$$u20$as$u20$core..ops..try_trait..FromResidual$LT$core..result..Result$LT$core..convert..Infallible$C$E$GT$$GT$$GT$13from_residual17h31e507b49359a7d3E', symObjAddr: 0x310, symBinAddr: 0x317E0, symSize: 0x10 }
  - { offset: 0x8A582, size: 0x8, addend: 0x0, symName: '__ZN153_$LT$core..result..Result$LT$T$C$F$GT$$u20$as$u20$core..ops..try_trait..FromResidual$LT$core..result..Result$LT$core..convert..Infallible$C$E$GT$$GT$$GT$13from_residual17h3275c6e4134e95b9E', symObjAddr: 0x320, symBinAddr: 0x317F0, symSize: 0x70 }
  - { offset: 0x8A607, size: 0x8, addend: 0x0, symName: '__ZN153_$LT$core..result..Result$LT$T$C$F$GT$$u20$as$u20$core..ops..try_trait..FromResidual$LT$core..result..Result$LT$core..convert..Infallible$C$E$GT$$GT$$GT$13from_residual17h3cf61ec7b958f684E', symObjAddr: 0x640, symBinAddr: 0x31860, symSize: 0x80 }
  - { offset: 0x8A66F, size: 0x8, addend: 0x0, symName: '__ZN153_$LT$core..result..Result$LT$T$C$F$GT$$u20$as$u20$core..ops..try_trait..FromResidual$LT$core..result..Result$LT$core..convert..Infallible$C$E$GT$$GT$$GT$13from_residual17h3d57bc4308a51383E', symObjAddr: 0x6C0, symBinAddr: 0x318E0, symSize: 0x70 }
  - { offset: 0x8A6F4, size: 0x8, addend: 0x0, symName: '__ZN153_$LT$core..result..Result$LT$T$C$F$GT$$u20$as$u20$core..ops..try_trait..FromResidual$LT$core..result..Result$LT$core..convert..Infallible$C$E$GT$$GT$$GT$13from_residual17h50b6f7999c5aa688E', symObjAddr: 0xAC0, symBinAddr: 0x31950, symSize: 0x70 }
  - { offset: 0x8A779, size: 0x8, addend: 0x0, symName: '__ZN153_$LT$core..result..Result$LT$T$C$F$GT$$u20$as$u20$core..ops..try_trait..FromResidual$LT$core..result..Result$LT$core..convert..Infallible$C$E$GT$$GT$$GT$13from_residual17h515a75b6da5a04adE', symObjAddr: 0xB30, symBinAddr: 0x319C0, symSize: 0x70 }
  - { offset: 0x8A7FE, size: 0x8, addend: 0x0, symName: '__ZN153_$LT$core..result..Result$LT$T$C$F$GT$$u20$as$u20$core..ops..try_trait..FromResidual$LT$core..result..Result$LT$core..convert..Infallible$C$E$GT$$GT$$GT$13from_residual17h5a5aed1eec5e19edE', symObjAddr: 0xBA0, symBinAddr: 0x31A30, symSize: 0x70 }
  - { offset: 0x8A883, size: 0x8, addend: 0x0, symName: '__ZN153_$LT$core..result..Result$LT$T$C$F$GT$$u20$as$u20$core..ops..try_trait..FromResidual$LT$core..result..Result$LT$core..convert..Infallible$C$E$GT$$GT$$GT$13from_residual17h61f1673b86568dd5E', symObjAddr: 0xC80, symBinAddr: 0x31AA0, symSize: 0x70 }
  - { offset: 0x8A908, size: 0x8, addend: 0x0, symName: '__ZN153_$LT$core..result..Result$LT$T$C$F$GT$$u20$as$u20$core..ops..try_trait..FromResidual$LT$core..result..Result$LT$core..convert..Infallible$C$E$GT$$GT$$GT$13from_residual17h6f0692fcb1fdf972E', symObjAddr: 0xE50, symBinAddr: 0x31B10, symSize: 0x70 }
  - { offset: 0x8A98D, size: 0x8, addend: 0x0, symName: '__ZN153_$LT$core..result..Result$LT$T$C$F$GT$$u20$as$u20$core..ops..try_trait..FromResidual$LT$core..result..Result$LT$core..convert..Infallible$C$E$GT$$GT$$GT$13from_residual17h7026f374fa6be4c3E', symObjAddr: 0xEC0, symBinAddr: 0x31B80, symSize: 0x70 }
  - { offset: 0x8AA12, size: 0x8, addend: 0x0, symName: '__ZN153_$LT$core..result..Result$LT$T$C$F$GT$$u20$as$u20$core..ops..try_trait..FromResidual$LT$core..result..Result$LT$core..convert..Infallible$C$E$GT$$GT$$GT$13from_residual17h8135821f183cf049E', symObjAddr: 0x1020, symBinAddr: 0x31BF0, symSize: 0x80 }
  - { offset: 0x8AA7A, size: 0x8, addend: 0x0, symName: '__ZN153_$LT$core..result..Result$LT$T$C$F$GT$$u20$as$u20$core..ops..try_trait..FromResidual$LT$core..result..Result$LT$core..convert..Infallible$C$E$GT$$GT$$GT$13from_residual17h911cfe4287eb5c07E', symObjAddr: 0x1110, symBinAddr: 0x31C70, symSize: 0x70 }
  - { offset: 0x8AAFF, size: 0x8, addend: 0x0, symName: '__ZN153_$LT$core..result..Result$LT$T$C$F$GT$$u20$as$u20$core..ops..try_trait..FromResidual$LT$core..result..Result$LT$core..convert..Infallible$C$E$GT$$GT$$GT$13from_residual17h94c3d9023ed32afbE', symObjAddr: 0x12E0, symBinAddr: 0x31CE0, symSize: 0x70 }
  - { offset: 0x8AB84, size: 0x8, addend: 0x0, symName: '__ZN153_$LT$core..result..Result$LT$T$C$F$GT$$u20$as$u20$core..ops..try_trait..FromResidual$LT$core..result..Result$LT$core..convert..Infallible$C$E$GT$$GT$$GT$13from_residual17hbaedc109ac015869E', symObjAddr: 0x1750, symBinAddr: 0x31D50, symSize: 0x30 }
  - { offset: 0x8ABEB, size: 0x8, addend: 0x0, symName: '__ZN153_$LT$core..result..Result$LT$T$C$F$GT$$u20$as$u20$core..ops..try_trait..FromResidual$LT$core..result..Result$LT$core..convert..Infallible$C$E$GT$$GT$$GT$13from_residual17hc1e0409645962fb5E', symObjAddr: 0x1800, symBinAddr: 0x31D80, symSize: 0x70 }
  - { offset: 0x8AC70, size: 0x8, addend: 0x0, symName: '__ZN153_$LT$core..result..Result$LT$T$C$F$GT$$u20$as$u20$core..ops..try_trait..FromResidual$LT$core..result..Result$LT$core..convert..Infallible$C$E$GT$$GT$$GT$13from_residual17hc3e9d422f41116bbE', symObjAddr: 0x1870, symBinAddr: 0x31DF0, symSize: 0x70 }
  - { offset: 0x8ACF5, size: 0x8, addend: 0x0, symName: '__ZN153_$LT$core..result..Result$LT$T$C$F$GT$$u20$as$u20$core..ops..try_trait..FromResidual$LT$core..result..Result$LT$core..convert..Infallible$C$E$GT$$GT$$GT$13from_residual17hd5b2d3d5c3d2b1cdE', symObjAddr: 0x1A30, symBinAddr: 0x31E60, symSize: 0x70 }
  - { offset: 0x8AD7A, size: 0x8, addend: 0x0, symName: '__ZN153_$LT$core..result..Result$LT$T$C$F$GT$$u20$as$u20$core..ops..try_trait..FromResidual$LT$core..result..Result$LT$core..convert..Infallible$C$E$GT$$GT$$GT$13from_residual17hdcb765b7988492f7E', symObjAddr: 0x1B20, symBinAddr: 0x31ED0, symSize: 0x70 }
  - { offset: 0x8ADFF, size: 0x8, addend: 0x0, symName: '__ZN153_$LT$core..result..Result$LT$T$C$F$GT$$u20$as$u20$core..ops..try_trait..FromResidual$LT$core..result..Result$LT$core..convert..Infallible$C$E$GT$$GT$$GT$13from_residual17hde40e4564a02c24fE', symObjAddr: 0x1C00, symBinAddr: 0x31F40, symSize: 0x70 }
  - { offset: 0x8AE84, size: 0x8, addend: 0x0, symName: '__ZN153_$LT$core..result..Result$LT$T$C$F$GT$$u20$as$u20$core..ops..try_trait..FromResidual$LT$core..result..Result$LT$core..convert..Infallible$C$E$GT$$GT$$GT$13from_residual17he3075c566e0038f9E', symObjAddr: 0x1CE0, symBinAddr: 0x31FB0, symSize: 0x70 }
  - { offset: 0x8AF09, size: 0x8, addend: 0x0, symName: '__ZN153_$LT$core..result..Result$LT$T$C$F$GT$$u20$as$u20$core..ops..try_trait..FromResidual$LT$core..result..Result$LT$core..convert..Infallible$C$E$GT$$GT$$GT$13from_residual17hf3f3fd0e0bd25588E', symObjAddr: 0x1F20, symBinAddr: 0x32020, symSize: 0x80 }
  - { offset: 0x8CA97, size: 0x8, addend: 0x0, symName: __ZN4core6result6Result3Err17h7d38895eaaea3b1eE, symObjAddr: 0xAEF0, symBinAddr: 0x33140, symSize: 0x30 }
  - { offset: 0x8CADA, size: 0x8, addend: 0x0, symName: '__ZN79_$LT$core..result..Result$LT$T$C$E$GT$$u20$as$u20$core..ops..try_trait..Try$GT$11from_output17h34fdd7b263425981E', symObjAddr: 0xAF20, symBinAddr: 0x33170, symSize: 0x30 }
  - { offset: 0x8CB1A, size: 0x8, addend: 0x0, symName: '__ZN79_$LT$core..result..Result$LT$T$C$E$GT$$u20$as$u20$core..ops..try_trait..Try$GT$6branch17h13291146a466de93E', symObjAddr: 0xB0E0, symBinAddr: 0x331A0, symSize: 0xC0 }
  - { offset: 0x8CB98, size: 0x8, addend: 0x0, symName: '__ZN79_$LT$core..result..Result$LT$T$C$E$GT$$u20$as$u20$core..ops..try_trait..Try$GT$6branch17h29d236b3d45cd0baE', symObjAddr: 0xB1A0, symBinAddr: 0x33260, symSize: 0x20 }
  - { offset: 0x8CBF6, size: 0x8, addend: 0x0, symName: '__ZN79_$LT$core..result..Result$LT$T$C$E$GT$$u20$as$u20$core..ops..try_trait..Try$GT$6branch17h325f85f0040ceef4E', symObjAddr: 0xB1C0, symBinAddr: 0x33280, symSize: 0xB0 }
  - { offset: 0x8CC74, size: 0x8, addend: 0x0, symName: '__ZN79_$LT$core..result..Result$LT$T$C$E$GT$$u20$as$u20$core..ops..try_trait..Try$GT$6branch17h32afb9a272acb42eE', symObjAddr: 0xB270, symBinAddr: 0x33330, symSize: 0x20 }
  - { offset: 0x8CCD2, size: 0x8, addend: 0x0, symName: '__ZN79_$LT$core..result..Result$LT$T$C$E$GT$$u20$as$u20$core..ops..try_trait..Try$GT$6branch17h33ba9c72a2d8292dE', symObjAddr: 0xB290, symBinAddr: 0x33350, symSize: 0xA0 }
  - { offset: 0x8CD50, size: 0x8, addend: 0x0, symName: '__ZN79_$LT$core..result..Result$LT$T$C$E$GT$$u20$as$u20$core..ops..try_trait..Try$GT$6branch17h33feee2f4876c5f2E', symObjAddr: 0xB330, symBinAddr: 0x333F0, symSize: 0xB0 }
  - { offset: 0x8CDCE, size: 0x8, addend: 0x0, symName: '__ZN79_$LT$core..result..Result$LT$T$C$E$GT$$u20$as$u20$core..ops..try_trait..Try$GT$6branch17h41344faab001dbb1E', symObjAddr: 0xB490, symBinAddr: 0x334A0, symSize: 0xB0 }
  - { offset: 0x8CE4C, size: 0x8, addend: 0x0, symName: '__ZN79_$LT$core..result..Result$LT$T$C$E$GT$$u20$as$u20$core..ops..try_trait..Try$GT$6branch17h555770d78577c6a7E', symObjAddr: 0xB6B0, symBinAddr: 0x33550, symSize: 0xB0 }
  - { offset: 0x8CECA, size: 0x8, addend: 0x0, symName: '__ZN79_$LT$core..result..Result$LT$T$C$E$GT$$u20$as$u20$core..ops..try_trait..Try$GT$6branch17h55743b44891a9cd0E', symObjAddr: 0xB760, symBinAddr: 0x33600, symSize: 0x70 }
  - { offset: 0x8CF47, size: 0x8, addend: 0x0, symName: '__ZN79_$LT$core..result..Result$LT$T$C$E$GT$$u20$as$u20$core..ops..try_trait..Try$GT$6branch17h5def6e6c59e67e1bE', symObjAddr: 0xB7D0, symBinAddr: 0x33670, symSize: 0xF0 }
  - { offset: 0x8CFC5, size: 0x8, addend: 0x0, symName: '__ZN79_$LT$core..result..Result$LT$T$C$E$GT$$u20$as$u20$core..ops..try_trait..Try$GT$6branch17h62537426b6f42dc2E', symObjAddr: 0xBA40, symBinAddr: 0x33760, symSize: 0xD0 }
  - { offset: 0x8D043, size: 0x8, addend: 0x0, symName: '__ZN79_$LT$core..result..Result$LT$T$C$E$GT$$u20$as$u20$core..ops..try_trait..Try$GT$6branch17h6fa9901b09805e45E', symObjAddr: 0xBBD0, symBinAddr: 0x33830, symSize: 0xD0 }
  - { offset: 0x8D0C1, size: 0x8, addend: 0x0, symName: '__ZN79_$LT$core..result..Result$LT$T$C$E$GT$$u20$as$u20$core..ops..try_trait..Try$GT$6branch17h7f379ffa0dd00b13E', symObjAddr: 0xBE60, symBinAddr: 0x33900, symSize: 0xD0 }
  - { offset: 0x8D13F, size: 0x8, addend: 0x0, symName: '__ZN79_$LT$core..result..Result$LT$T$C$E$GT$$u20$as$u20$core..ops..try_trait..Try$GT$6branch17h8407b8fa8e1fad9dE', symObjAddr: 0xBF30, symBinAddr: 0x339D0, symSize: 0xB0 }
  - { offset: 0x8D1BD, size: 0x8, addend: 0x0, symName: '__ZN79_$LT$core..result..Result$LT$T$C$E$GT$$u20$as$u20$core..ops..try_trait..Try$GT$6branch17h8d8fa1d7e372d972E', symObjAddr: 0xBFE0, symBinAddr: 0x33A80, symSize: 0xD0 }
  - { offset: 0x8D23B, size: 0x8, addend: 0x0, symName: '__ZN79_$LT$core..result..Result$LT$T$C$E$GT$$u20$as$u20$core..ops..try_trait..Try$GT$6branch17h939a5783446ae141E', symObjAddr: 0xC160, symBinAddr: 0x33B50, symSize: 0xB0 }
  - { offset: 0x8D2B9, size: 0x8, addend: 0x0, symName: '__ZN79_$LT$core..result..Result$LT$T$C$E$GT$$u20$as$u20$core..ops..try_trait..Try$GT$6branch17haac5c60f431ce520E', symObjAddr: 0xC640, symBinAddr: 0x33C00, symSize: 0xD0 }
  - { offset: 0x8D337, size: 0x8, addend: 0x0, symName: '__ZN79_$LT$core..result..Result$LT$T$C$E$GT$$u20$as$u20$core..ops..try_trait..Try$GT$6branch17hb74d0a9e802216d5E', symObjAddr: 0xC710, symBinAddr: 0x33CD0, symSize: 0xB0 }
  - { offset: 0x8D3B5, size: 0x8, addend: 0x0, symName: '__ZN79_$LT$core..result..Result$LT$T$C$E$GT$$u20$as$u20$core..ops..try_trait..Try$GT$6branch17hb7fde0562dab6672E', symObjAddr: 0xC7C0, symBinAddr: 0x33D80, symSize: 0xC0 }
  - { offset: 0x8D433, size: 0x8, addend: 0x0, symName: '__ZN79_$LT$core..result..Result$LT$T$C$E$GT$$u20$as$u20$core..ops..try_trait..Try$GT$6branch17hd3532dfef99a2cf0E', symObjAddr: 0xCB60, symBinAddr: 0x33E40, symSize: 0xE0 }
  - { offset: 0x8D4B1, size: 0x8, addend: 0x0, symName: '__ZN79_$LT$core..result..Result$LT$T$C$E$GT$$u20$as$u20$core..ops..try_trait..Try$GT$6branch17hd3c758586ec6a71cE', symObjAddr: 0xCC40, symBinAddr: 0x33F20, symSize: 0x30 }
  - { offset: 0x8D50F, size: 0x8, addend: 0x0, symName: '__ZN79_$LT$core..result..Result$LT$T$C$E$GT$$u20$as$u20$core..ops..try_trait..Try$GT$6branch17hdbe5dd72d54b4c17E', symObjAddr: 0xCD20, symBinAddr: 0x33F50, symSize: 0x40 }
  - { offset: 0x8D58B, size: 0x8, addend: 0x0, symName: '__ZN79_$LT$core..result..Result$LT$T$C$E$GT$$u20$as$u20$core..ops..try_trait..Try$GT$6branch17he125aced79f78feaE', symObjAddr: 0xCD60, symBinAddr: 0x33F90, symSize: 0xE0 }
  - { offset: 0x8D609, size: 0x8, addend: 0x0, symName: '__ZN79_$LT$core..result..Result$LT$T$C$E$GT$$u20$as$u20$core..ops..try_trait..Try$GT$6branch17hedb0fb1d5c0483ccE', symObjAddr: 0xCE40, symBinAddr: 0x34070, symSize: 0x70 }
  - { offset: 0x8D686, size: 0x8, addend: 0x0, symName: '__ZN79_$LT$core..result..Result$LT$T$C$E$GT$$u20$as$u20$core..ops..try_trait..Try$GT$6branch17hf355a570101c1c35E', symObjAddr: 0xCEB0, symBinAddr: 0x340E0, symSize: 0xB0 }
  - { offset: 0x8D704, size: 0x8, addend: 0x0, symName: '__ZN79_$LT$core..result..Result$LT$T$C$E$GT$$u20$as$u20$core..ops..try_trait..Try$GT$6branch17hf5f2c3fd83ec83d6E', symObjAddr: 0xCF60, symBinAddr: 0x34190, symSize: 0xC0 }
  - { offset: 0x8D782, size: 0x8, addend: 0x0, symName: '__ZN79_$LT$core..result..Result$LT$T$C$E$GT$$u20$as$u20$core..ops..try_trait..Try$GT$6branch17hfbdc55079cbe4027E', symObjAddr: 0xD1A0, symBinAddr: 0x34250, symSize: 0xB0 }
  - { offset: 0x8D800, size: 0x8, addend: 0x0, symName: '__ZN79_$LT$core..result..Result$LT$T$C$E$GT$$u20$as$u20$core..ops..try_trait..Try$GT$6branch17hfeb562f87d881525E', symObjAddr: 0xD2B0, symBinAddr: 0x34300, symSize: 0xAB }
  - { offset: 0x8FB1A, size: 0x8, addend: 0x0, symName: '__ZN4core6result19Result$LT$T$C$E$GT$2ok17h15a0d6d57767b0ddE', symObjAddr: 0x2790, symBinAddr: 0x320A0, symSize: 0x50 }
  - { offset: 0x8FB7A, size: 0x8, addend: 0x0, symName: '__ZN4core6result19Result$LT$T$C$E$GT$2ok17hc8791b9a0ba5d1a9E', symObjAddr: 0x27E0, symBinAddr: 0x320F0, symSize: 0x50 }
  - { offset: 0x8FBCE, size: 0x8, addend: 0x0, symName: '__ZN4core6result19Result$LT$T$C$E$GT$2or17h5d3f1f98866f5314E', symObjAddr: 0x2830, symBinAddr: 0x32140, symSize: 0x60 }
  - { offset: 0x8FC47, size: 0x8, addend: 0x0, symName: '__ZN4core6result19Result$LT$T$C$E$GT$3map17h60c75b647c2ea17bE', symObjAddr: 0x2930, symBinAddr: 0x321A0, symSize: 0xB0 }
  - { offset: 0x8FCF2, size: 0x8, addend: 0x0, symName: '__ZN4core6result19Result$LT$T$C$E$GT$3map17h757ca0d1ae866645E', symObjAddr: 0x29E0, symBinAddr: 0x32250, symSize: 0xC0 }
  - { offset: 0x8FD99, size: 0x8, addend: 0x0, symName: '__ZN4core6result19Result$LT$T$C$E$GT$3map17hc049a1043ea48956E', symObjAddr: 0x2BF0, symBinAddr: 0x32310, symSize: 0xB0 }
  - { offset: 0x8FE2C, size: 0x8, addend: 0x0, symName: '__ZN4core6result19Result$LT$T$C$E$GT$6expect17h2d99eb6290b6cc5dE', symObjAddr: 0x2F60, symBinAddr: 0x323C0, symSize: 0x80 }
  - { offset: 0x8FE8E, size: 0x8, addend: 0x0, symName: '__ZN4core6result19Result$LT$T$C$E$GT$6expect17h40c00e0317ec5401E', symObjAddr: 0x2FE0, symBinAddr: 0x32440, symSize: 0xB0 }
  - { offset: 0x8FEF2, size: 0x8, addend: 0x0, symName: '__ZN4core6result19Result$LT$T$C$E$GT$6expect17h9849ec9aebd54044E', symObjAddr: 0x31F0, symBinAddr: 0x324F0, symSize: 0x80 }
  - { offset: 0x8FF54, size: 0x8, addend: 0x0, symName: '__ZN4core6result19Result$LT$T$C$E$GT$6expect17ha761b2bf20c81d6eE', symObjAddr: 0x3270, symBinAddr: 0x32570, symSize: 0xD0 }
  - { offset: 0x8FFB8, size: 0x8, addend: 0x0, symName: '__ZN4core6result19Result$LT$T$C$E$GT$6expect17ha7d31f459a3091b5E', symObjAddr: 0x3340, symBinAddr: 0x32640, symSize: 0x90 }
  - { offset: 0x9001B, size: 0x8, addend: 0x0, symName: '__ZN4core6result19Result$LT$T$C$E$GT$6expect17hc24825236213da23E', symObjAddr: 0x3550, symBinAddr: 0x326D0, symSize: 0xB0 }
  - { offset: 0x9007F, size: 0x8, addend: 0x0, symName: '__ZN4core6result19Result$LT$T$C$E$GT$6expect17hda81fca43b508136E', symObjAddr: 0x3600, symBinAddr: 0x32780, symSize: 0x80 }
  - { offset: 0x900E1, size: 0x8, addend: 0x0, symName: '__ZN4core6result19Result$LT$T$C$E$GT$6expect17hecad803c4c1b9268E', symObjAddr: 0x3680, symBinAddr: 0x32800, symSize: 0xA0 }
  - { offset: 0x90164, size: 0x8, addend: 0x0, symName: '__ZN4core6result19Result$LT$T$C$E$GT$7map_err17h16b6150ced5eb25cE', symObjAddr: 0x3EC0, symBinAddr: 0x328A0, symSize: 0x70 }
  - { offset: 0x9020E, size: 0x8, addend: 0x0, symName: '__ZN4core6result19Result$LT$T$C$E$GT$7map_err17h191dc2b11a0a396cE', symObjAddr: 0x3FD0, symBinAddr: 0x32910, symSize: 0xC0 }
  - { offset: 0x902A9, size: 0x8, addend: 0x0, symName: '__ZN4core6result19Result$LT$T$C$E$GT$7map_err17h743a168f28e35955E', symObjAddr: 0x6960, symBinAddr: 0x329D0, symSize: 0xF0 }
  - { offset: 0x90344, size: 0x8, addend: 0x0, symName: '__ZN4core6result19Result$LT$T$C$E$GT$7map_err17h7db823a556035cb5E', symObjAddr: 0x6E50, symBinAddr: 0x32AC0, symSize: 0xF0 }
  - { offset: 0x903D8, size: 0x8, addend: 0x0, symName: '__ZN4core6result19Result$LT$T$C$E$GT$7map_err17h92be705f2b4c7b4aE', symObjAddr: 0x7760, symBinAddr: 0x32BB0, symSize: 0xB0 }
  - { offset: 0x9046B, size: 0x8, addend: 0x0, symName: '__ZN4core6result19Result$LT$T$C$E$GT$7map_err17hc10f47d2a63df226E', symObjAddr: 0x8F90, symBinAddr: 0x32C60, symSize: 0x80 }
  - { offset: 0x904FD, size: 0x8, addend: 0x0, symName: '__ZN4core6result19Result$LT$T$C$E$GT$7map_err17hd427e6ec5fbd31e7E', symObjAddr: 0x9630, symBinAddr: 0x32CE0, symSize: 0x100 }
  - { offset: 0x90591, size: 0x8, addend: 0x0, symName: '__ZN4core6result19Result$LT$T$C$E$GT$7map_err17hd5bacb032644212eE', symObjAddr: 0x9730, symBinAddr: 0x32DE0, symSize: 0x110 }
  - { offset: 0x90639, size: 0x8, addend: 0x0, symName: '__ZN4core6result19Result$LT$T$C$E$GT$7map_err17hf40665bf48beb82fE', symObjAddr: 0xA390, symBinAddr: 0x32EF0, symSize: 0x100 }
  - { offset: 0x906CD, size: 0x8, addend: 0x0, symName: '__ZN4core6result19Result$LT$T$C$E$GT$7map_err17hfedbe6db1737058bE', symObjAddr: 0xA7F0, symBinAddr: 0x32FF0, symSize: 0x80 }
  - { offset: 0x90777, size: 0x8, addend: 0x0, symName: '__ZN4core6result19Result$LT$T$C$E$GT$9unwrap_or17h748a36be606807edE', symObjAddr: 0xAE20, symBinAddr: 0x33070, symSize: 0x60 }
  - { offset: 0x907BB, size: 0x8, addend: 0x0, symName: '__ZN4core6result19Result$LT$T$C$E$GT$9unwrap_or17hb5995f6c0eb8313fE', symObjAddr: 0xAE80, symBinAddr: 0x330D0, symSize: 0x70 }
  - { offset: 0x90932, size: 0x8, addend: 0x0, symName: __ZN4pyo35types6module7__all__8INTERNED17h9c3f3199e6977948E, symObjAddr: 0x8FA8, symBinAddr: 0xD4F60, symSize: 0x0 }
  - { offset: 0x90940, size: 0x8, addend: 0x0, symName: __ZN4pyo35types6module7__all__17h0d71e3e40d5dfb05E, symObjAddr: 0x1AD0, symBinAddr: 0x35210, symSize: 0x20 }
  - { offset: 0x90B35, size: 0x8, addend: 0x0, symName: '__ZN73_$LT$pyo3..types..module..PyModule$u20$as$u20$core..ops..deref..Deref$GT$5deref17h0b4c077dc31624d5E', symObjAddr: 0x7270, symBinAddr: 0x36BA0, symSize: 0x10 }
  - { offset: 0x90BFF, size: 0x8, addend: 0x0, symName: '__ZN101_$LT$pyo3..types..string..PyString$u20$as$u20$core..convert..AsRef$LT$pyo3..types..any..PyAny$GT$$GT$6as_ref17h5d9502f98643f484E', symObjAddr: 0x10, symBinAddr: 0x343B0, symSize: 0x10 }
  - { offset: 0x90C31, size: 0x8, addend: 0x0, symName: '__ZN141_$LT$$RF$pyo3..types..string..PyString$u20$as$u20$pyo3..conversion..IntoPy$LT$pyo3..instance..Py$LT$pyo3..types..string..PyString$GT$$GT$$GT$7into_py17hbfcf9da49c659b0cE', symObjAddr: 0x3D0, symBinAddr: 0x344A0, symSize: 0x30 }
  - { offset: 0x90C7C, size: 0x8, addend: 0x0, symName: '__ZN73_$LT$pyo3..types..string..PyString$u20$as$u20$core..ops..deref..Deref$GT$5deref17haccb65acde270033E', symObjAddr: 0x7280, symBinAddr: 0x36BB0, symSize: 0x10 }
  - { offset: 0x90CAE, size: 0x8, addend: 0x0, symName: '__ZN79_$LT$pyo3..types..string..PyString$u20$as$u20$pyo3..type_object..PyTypeInfo$GT$10is_type_of17haa6d4103a02c5730E', symObjAddr: 0x73E0, symBinAddr: 0x36C30, symSize: 0x30 }
  - { offset: 0x90E6B, size: 0x8, addend: 0x0, symName: __ZN4pyo35types4list6PyList6append5inner17h4593862d59460ba4E, symObjAddr: 0x1670, symBinAddr: 0x35150, symSize: 0xC0 }
  - { offset: 0x90EAC, size: 0x8, addend: 0x0, symName: '__ZN69_$LT$pyo3..types..list..PyList$u20$as$u20$core..ops..deref..Deref$GT$5deref17h0ccb623d2650574bE', symObjAddr: 0x66E0, symBinAddr: 0x36880, symSize: 0x10 }
  - { offset: 0x90EDE, size: 0x8, addend: 0x0, symName: '__ZN74_$LT$pyo3..types..list..PyList$u20$as$u20$pyo3..conversion..ToPyObject$GT$9to_object17h6dde90587f2ed383E', symObjAddr: 0x7290, symBinAddr: 0x36BC0, symSize: 0x30 }
  - { offset: 0x90F29, size: 0x8, addend: 0x0, symName: '__ZN75_$LT$pyo3..types..list..PyList$u20$as$u20$pyo3..type_object..PyTypeInfo$GT$10is_type_of17h66bb426c19a9b35fE', symObjAddr: 0x72C0, symBinAddr: 0x36BF0, symSize: 0x30 }
  - { offset: 0x9102D, size: 0x8, addend: 0x0, symName: '__ZN96_$LT$$RF$pyo3..types..iterator..PyIterator$u20$as$u20$core..iter..traits..iterator..Iterator$GT$4next17he407a4175d94e715E', symObjAddr: 0x7A30, symBinAddr: 0x36D60, symSize: 0xB2 }
  - { offset: 0x912C5, size: 0x8, addend: 0x0, symName: __ZN4pyo38instance12PyNativeType18unchecked_downcast17h4695351f202f31abE, symObjAddr: 0x4EA0, symBinAddr: 0x35DD0, symSize: 0x60 }
  - { offset: 0x912FA, size: 0x8, addend: 0x0, symName: __ZN4pyo38instance12PyNativeType18unchecked_downcast17h52fb3a7a635b7866E, symObjAddr: 0x4F00, symBinAddr: 0x35E30, symSize: 0x60 }
  - { offset: 0x9132F, size: 0x8, addend: 0x0, symName: __ZN4pyo38instance12PyNativeType18unchecked_downcast17hf83c406d5c9092faE, symObjAddr: 0x4F60, symBinAddr: 0x35E90, symSize: 0x60 }
  - { offset: 0x91364, size: 0x8, addend: 0x0, symName: __ZN4pyo38instance12PyNativeType2py17h4c5772f94c343ceeE, symObjAddr: 0x4FC0, symBinAddr: 0x35EF0, symSize: 0x20 }
  - { offset: 0x91A31, size: 0x8, addend: 0x0, symName: '__ZN49_$LT$T$u20$as$u20$pyo3..conversion..PyTryFrom$GT$18try_from_unchecked17h09df6887f0f1492aE', symObjAddr: 0x770, symBinAddr: 0x34640, symSize: 0x30 }
  - { offset: 0x91A71, size: 0x8, addend: 0x0, symName: '__ZN49_$LT$T$u20$as$u20$pyo3..conversion..PyTryFrom$GT$18try_from_unchecked17h3b9d591dabd27a79E', symObjAddr: 0x7D0, symBinAddr: 0x34670, symSize: 0x30 }
  - { offset: 0x91AB1, size: 0x8, addend: 0x0, symName: '__ZN49_$LT$T$u20$as$u20$pyo3..conversion..PyTryFrom$GT$8try_from17h44e45d65716dc602E', symObjAddr: 0x800, symBinAddr: 0x346A0, symSize: 0xB0 }
  - { offset: 0x91B0F, size: 0x8, addend: 0x0, symName: '__ZN49_$LT$T$u20$as$u20$pyo3..conversion..PyTryFrom$GT$8try_from17hf576e9c3bc25ac5aE', symObjAddr: 0x960, symBinAddr: 0x34750, symSize: 0xB0 }
  - { offset: 0x91B73, size: 0x8, addend: 0x0, symName: __ZN4pyo310conversion13FromPyPointer14from_owned_ptr17h8db4ab7c4f6dd5afE, symObjAddr: 0x1290, symBinAddr: 0x34F90, symSize: 0x20 }
  - { offset: 0x91BC5, size: 0x8, addend: 0x0, symName: __ZN4pyo310conversion13FromPyPointer14from_owned_ptr17hae21aa243cd22fafE, symObjAddr: 0x12B0, symBinAddr: 0x34FB0, symSize: 0x20 }
  - { offset: 0x91C17, size: 0x8, addend: 0x0, symName: __ZN4pyo310conversion13FromPyPointer21from_owned_ptr_or_err17h48d90a24873dfc24E, symObjAddr: 0x1370, symBinAddr: 0x34FD0, symSize: 0x40 }
  - { offset: 0x91C69, size: 0x8, addend: 0x0, symName: __ZN4pyo310conversion13FromPyPointer21from_owned_ptr_or_err17h5e91f07c75dc71e8E, symObjAddr: 0x13B0, symBinAddr: 0x35010, symSize: 0x40 }
  - { offset: 0x91CBB, size: 0x8, addend: 0x0, symName: __ZN4pyo310conversion13FromPyPointer23from_owned_ptr_or_panic17hb84b4c4b4efb3455E, symObjAddr: 0x13F0, symBinAddr: 0x35050, symSize: 0x30 }
  - { offset: 0x91D0D, size: 0x8, addend: 0x0, symName: __ZN4pyo310conversion13FromPyPointer23from_owned_ptr_or_panic17hcc0384923b2351f4E, symObjAddr: 0x1450, symBinAddr: 0x35080, symSize: 0x30 }
  - { offset: 0x91D65, size: 0x8, addend: 0x0, symName: '__ZN53_$LT$T$u20$as$u20$pyo3..conversion..FromPyPointer$GT$21from_owned_ptr_or_opt17h0035bc8d65e468b5E', symObjAddr: 0x5070, symBinAddr: 0x35F80, symSize: 0xB0 }
  - { offset: 0x91DD5, size: 0x8, addend: 0x0, symName: '__ZN53_$LT$T$u20$as$u20$pyo3..conversion..FromPyPointer$GT$21from_owned_ptr_or_opt17hcaed833f0db47a10E', symObjAddr: 0x51D0, symBinAddr: 0x36030, symSize: 0xB0 }
  - { offset: 0x91E45, size: 0x8, addend: 0x0, symName: '__ZN53_$LT$T$u20$as$u20$pyo3..conversion..FromPyPointer$GT$21from_owned_ptr_or_opt17hd882b4986d2a8e30E', symObjAddr: 0x5280, symBinAddr: 0x360E0, symSize: 0xB0 }
  - { offset: 0x91EBB, size: 0x8, addend: 0x0, symName: '__ZN54_$LT$$RF$T$u20$as$u20$pyo3..conversion..ToPyObject$GT$9to_object17hdaf6e0ddd62f44bbE', symObjAddr: 0x5330, symBinAddr: 0x36190, symSize: 0x20 }
  - { offset: 0x931B7, size: 0x8, addend: 0x0, symName: '__ZN115_$LT$core..iter..adapters..filter_map..FilterMap$LT$I$C$F$GT$$u20$as$u20$core..iter..traits..iterator..Iterator$GT$4next17h15ac471f8192d730E', symObjAddr: 0x180, symBinAddr: 0x343C0, symSize: 0x20 }
  - { offset: 0x931FE, size: 0x8, addend: 0x0, symName: '__ZN115_$LT$core..iter..adapters..filter_map..FilterMap$LT$I$C$F$GT$$u20$as$u20$core..iter..traits..iterator..Iterator$GT$4next17h81234eb4cdf52661E', symObjAddr: 0x1A0, symBinAddr: 0x343E0, symSize: 0x20 }
  - { offset: 0x93245, size: 0x8, addend: 0x0, symName: '__ZN115_$LT$core..iter..adapters..filter_map..FilterMap$LT$I$C$F$GT$$u20$as$u20$core..iter..traits..iterator..Iterator$GT$9size_hint17h7d7f7e0de7f7c0abE', symObjAddr: 0x1C0, symBinAddr: 0x34400, symSize: 0x50 }
  - { offset: 0x932A9, size: 0x8, addend: 0x0, symName: '__ZN115_$LT$core..iter..adapters..filter_map..FilterMap$LT$I$C$F$GT$$u20$as$u20$core..iter..traits..iterator..Iterator$GT$9size_hint17hdc9dc37325bd5ff5E', symObjAddr: 0x210, symBinAddr: 0x34450, symSize: 0x50 }
  - { offset: 0x9337F, size: 0x8, addend: 0x0, symName: '__ZN146_$LT$core..ops..range..Range$LT$usize$GT$$u20$as$u20$core..iter..adapters..step_by..SpecRangeSetup$LT$core..ops..range..Range$LT$usize$GT$$GT$$GT$5setup17hfed94cc6a344e81cE', symObjAddr: 0x400, symBinAddr: 0x344D0, symSize: 0xF0 }
  - { offset: 0x935E3, size: 0x8, addend: 0x0, symName: __ZN4core4iter6traits8iterator8Iterator7collect17ha0b583780f08105fE, symObjAddr: 0x1250, symBinAddr: 0x34F50, symSize: 0x20 }
  - { offset: 0x93624, size: 0x8, addend: 0x0, symName: __ZN4core4iter6traits8iterator8Iterator7collect17hdf56f4420fbbb608E, symObjAddr: 0x1270, symBinAddr: 0x34F70, symSize: 0x20 }
  - { offset: 0x93671, size: 0x8, addend: 0x0, symName: '__ZN63_$LT$I$u20$as$u20$core..iter..traits..collect..IntoIterator$GT$9into_iter17h59fcedbc5e38c678E', symObjAddr: 0x5470, symBinAddr: 0x361B0, symSize: 0x30 }
  - { offset: 0x936A9, size: 0x8, addend: 0x0, symName: '__ZN63_$LT$I$u20$as$u20$core..iter..traits..collect..IntoIterator$GT$9into_iter17hbf2f3822550f14abE', symObjAddr: 0x54A0, symBinAddr: 0x361E0, symSize: 0x30 }
  - { offset: 0x93932, size: 0x8, addend: 0x0, symName: __ZN4core10intrinsics11rotate_left17hdbefaed3a14ed8a3E, symObjAddr: 0xA10, symBinAddr: 0x34800, symSize: 0x20 }
  - { offset: 0x93BB6, size: 0x8, addend: 0x0, symName: '__ZN53_$LT$T$u20$as$u20$core..slice..cmp..SliceContains$GT$14slice_contains28_$u7b$$u7b$closure$u7d$$u7d$17h2fbbe12ec69718f2E', symObjAddr: 0x5040, symBinAddr: 0x35F50, symSize: 0x30 }
  - { offset: 0x93DE1, size: 0x8, addend: 0x0, symName: '__ZN4core3str6traits99_$LT$impl$u20$core..slice..index..SliceIndex$LT$str$GT$$u20$for$u20$core..ops..range..RangeFull$GT$5index17h2efa990381e7596bE', symObjAddr: 0xEB0, symBinAddr: 0x34BB0, symSize: 0x20 }
  - { offset: 0x93F7D, size: 0x8, addend: 0x0, symName: '__ZN87_$LT$core..str..iter..CharIndices$u20$as$u20$core..iter..traits..iterator..Iterator$GT$4next17hfc01f7974120e311E', symObjAddr: 0x7860, symBinAddr: 0x36C60, symSize: 0xE0 }
  - { offset: 0x94111, size: 0x8, addend: 0x0, symName: '__ZN90_$LT$core..str..iter..Split$LT$P$GT$$u20$as$u20$core..iter..traits..iterator..Iterator$GT$4next17hee7c4ace227e14c7E', symObjAddr: 0x79E0, symBinAddr: 0x36D40, symSize: 0x20 }
  - { offset: 0x942AC, size: 0x8, addend: 0x0, symName: __ZN4core4hash3sip9u8to64_le17hc0caebdd607b3ca9E, symObjAddr: 0xF40, symBinAddr: 0x34C40, symSize: 0x290 }
  - { offset: 0x94469, size: 0x8, addend: 0x0, symName: '__ZN69_$LT$core..hash..sip..Sip13Rounds$u20$as$u20$core..hash..sip..Sip$GT$8c_rounds17h7dbaab2ae7656a65E', symObjAddr: 0x6070, symBinAddr: 0x36210, symSize: 0x1A0 }
  - { offset: 0x945E5, size: 0x8, addend: 0x0, symName: '__ZN69_$LT$core..hash..sip..Sip13Rounds$u20$as$u20$core..hash..sip..Sip$GT$8d_rounds17h53d4ccb92a0efce9E', symObjAddr: 0x6210, symBinAddr: 0x363B0, symSize: 0x4D0 }
  - { offset: 0x94A27, size: 0x8, addend: 0x0, symName: '__ZN71_$LT$core..hash..sip..Hasher$LT$S$GT$$u20$as$u20$core..hash..Hasher$GT$5write17h2a4166380e99b4d8E', symObjAddr: 0x6930, symBinAddr: 0x36890, symSize: 0x240 }
  - { offset: 0x94B9D, size: 0x8, addend: 0x0, symName: '__ZN71_$LT$core..hash..sip..Hasher$LT$S$GT$$u20$as$u20$core..hash..Hasher$GT$6finish17h648fd5afbbf2cb2dE', symObjAddr: 0x6B70, symBinAddr: 0x36AD0, symSize: 0x90 }
  - { offset: 0x94C10, size: 0x8, addend: 0x0, symName: '__ZN71_$LT$core..hash..sip..Hasher$LT$S$GT$$u20$as$u20$core..hash..Hasher$GT$9write_str17h29f622d003ff8e11E', symObjAddr: 0x6C00, symBinAddr: 0x36B60, symSize: 0x40 }
  - { offset: 0x94C91, size: 0x8, addend: 0x0, symName: '__ZN4core4hash5impls50_$LT$impl$u20$core..hash..Hash$u20$for$u20$str$GT$4hash17h032f3101f1285224E', symObjAddr: 0x11D0, symBinAddr: 0x34ED0, symSize: 0x30 }
  - { offset: 0x94CD9, size: 0x8, addend: 0x0, symName: '__ZN4core4hash5impls52_$LT$impl$u20$core..hash..Hash$u20$for$u20$$RF$T$GT$4hash17h49aaefb7af24a7a9E', symObjAddr: 0x1200, symBinAddr: 0x34F00, symSize: 0x20 }
  - { offset: 0x94D24, size: 0x8, addend: 0x0, symName: '__ZN4core4hash5impls52_$LT$impl$u20$core..hash..Hash$u20$for$u20$$RF$T$GT$4hash17h618cacd5c40d6272E', symObjAddr: 0x1220, symBinAddr: 0x34F20, symSize: 0x30 }
  - { offset: 0x95840, size: 0x8, addend: 0x0, symName: '__ZN50_$LT$T$u20$as$u20$core..convert..Into$LT$U$GT$$GT$4into17h523c65b4f4aec793E', symObjAddr: 0x5000, symBinAddr: 0x35F10, symSize: 0x20 }
  - { offset: 0x95880, size: 0x8, addend: 0x0, symName: '__ZN50_$LT$T$u20$as$u20$core..convert..Into$LT$U$GT$$GT$4into17ha674eb93edbab9d4E', symObjAddr: 0x5020, symBinAddr: 0x35F30, symSize: 0x20 }
  - { offset: 0x95C28, size: 0x8, addend: 0x0, symName: '__ZN78_$LT$$u21$$u20$as$u20$std..sys..thread_local..native..lazy..DestroyedState$GT$13register_dtor17hc5dc292b3a9c926eE', symObjAddr: 0x73A0, symBinAddr: 0x36C20, symSize: 0x10 }
  - { offset: 0x95D8C, size: 0x8, addend: 0x0, symName: '__ZN3std3sys12thread_local6native4lazy20Storage$LT$T$C$D$GT$11get_or_init17hcbea311393a302a4E', symObjAddr: 0x4F0, symBinAddr: 0x345C0, symSize: 0x80 }
  - { offset: 0x95FA9, size: 0x8, addend: 0x0, symName: '__ZN3std3sys12thread_local6native4lazy20Storage$LT$T$C$D$GT$16get_or_init_slow17hce62cfc1ab5b7fa4E', symObjAddr: 0x570, symBinAddr: 0xA5860, symSize: 0x200 }
  - { offset: 0x962B9, size: 0x8, addend: 0x0, symName: __ZN4core3ffi5c_str4CStr29from_bytes_with_nul_unchecked17he94bb2e423477587E, symObjAddr: 0xAD0, symBinAddr: 0x34820, symSize: 0x20 }
  - { offset: 0x962E9, size: 0x8, addend: 0x0, symName: __ZN4core3ffi5c_str4CStr6as_ptr17h0200fd4f1c01b842E, symObjAddr: 0xAF0, symBinAddr: 0x34840, symSize: 0x20 }
  - { offset: 0x96337, size: 0x8, addend: 0x0, symName: __ZN4core3ffi5c_str4CStr8from_ptr17h46a80965c4b265a2E, symObjAddr: 0xB10, symBinAddr: 0x34860, symSize: 0x60 }
  - { offset: 0x9644D, size: 0x8, addend: 0x0, symName: __ZN4core3ffi5c_str4CStr8to_bytes17h626de8611661fad6E, symObjAddr: 0xB70, symBinAddr: 0x348C0, symSize: 0x60 }
  - { offset: 0x96511, size: 0x8, addend: 0x0, symName: '__ZN4core3str4iter22SplitInternal$LT$P$GT$4next17hde37fc0a9922832cE', symObjAddr: 0xC20, symBinAddr: 0x34920, symSize: 0x180 }
  - { offset: 0x96655, size: 0x8, addend: 0x0, symName: '__ZN4core3str4iter22SplitInternal$LT$P$GT$7get_end17h869b6dfc74604f5bE', symObjAddr: 0xDA0, symBinAddr: 0x34AA0, symSize: 0x110 }
  - { offset: 0x96768, size: 0x8, addend: 0x0, symName: '__ZN4core4hash3sip15Hasher$LT$S$GT$5reset17h85871c5360943668E', symObjAddr: 0xED0, symBinAddr: 0x34BD0, symSize: 0x70 }
  - { offset: 0x96861, size: 0x8, addend: 0x0, symName: __ZN4pyo35types4list6PyList5empty17h47215583c9ef603eE, symObjAddr: 0x15D0, symBinAddr: 0x350B0, symSize: 0x20 }
  - { offset: 0x9688E, size: 0x8, addend: 0x0, symName: __ZN4pyo35types4list6PyList6append17h2f353543b2895dc1E, symObjAddr: 0x15F0, symBinAddr: 0x350D0, symSize: 0x80 }
  - { offset: 0x968FB, size: 0x8, addend: 0x0, symName: __ZN4pyo35types6module8PyModule5index17hada4803daa0e561bE, symObjAddr: 0x2A20, symBinAddr: 0x35230, symSize: 0x350 }
  - { offset: 0x96B73, size: 0x8, addend: 0x0, symName: __ZN4pyo35types6string8PyString15to_string_lossy17hcbc2a577546b45b3E, symObjAddr: 0x3970, symBinAddr: 0x35580, symSize: 0x140 }
  - { offset: 0x96BCF, size: 0x8, addend: 0x0, symName: __ZN4pyo35types6string8PyString3new17h254afbc2928aee02E, symObjAddr: 0x3AB0, symBinAddr: 0x356C0, symSize: 0x50 }
  - { offset: 0x96C44, size: 0x8, addend: 0x0, symName: __ZN4pyo35types6string8PyString6intern17h199033f20c6f11b4E, symObjAddr: 0x3B00, symBinAddr: 0x35710, symSize: 0x60 }
  - { offset: 0x96CD7, size: 0x8, addend: 0x0, symName: __ZN4pyo35types6string8PyString6to_str17hb2cd11eb2d756924E, symObjAddr: 0x3B60, symBinAddr: 0x35770, symSize: 0x140 }
  - { offset: 0x96D5E, size: 0x8, addend: 0x0, symName: __ZN4pyo35types8iterator10PyIterator11from_object17h79edd7fa0730b923E, symObjAddr: 0x3CA0, symBinAddr: 0x358B0, symSize: 0x50 }
  - { offset: 0x96DC3, size: 0x8, addend: 0x0, symName: __ZN4pyo36marker6Python12version_info17h125c46af1fea5006E, symObjAddr: 0x3CF0, symBinAddr: 0x35900, symSize: 0x110 }
  - { offset: 0x96E69, size: 0x8, addend: 0x0, symName: __ZN4pyo36marker6Python14from_owned_ptr17h07784ab151a9806bE, symObjAddr: 0x3E30, symBinAddr: 0x35A10, symSize: 0x20 }
  - { offset: 0x96ECA, size: 0x8, addend: 0x0, symName: __ZN4pyo36marker6Python14from_owned_ptr17h2d9a6ace65700064E, symObjAddr: 0x3E90, symBinAddr: 0x35A30, symSize: 0x20 }
  - { offset: 0x96F11, size: 0x8, addend: 0x0, symName: __ZN4pyo36marker6Python14from_owned_ptr17h5a6797723318a575E, symObjAddr: 0x3EB0, symBinAddr: 0x35A50, symSize: 0x20 }
  - { offset: 0x96F72, size: 0x8, addend: 0x0, symName: __ZN4pyo36marker6Python14from_owned_ptr17h6f303c0fff4251b7E, symObjAddr: 0x3F10, symBinAddr: 0x35A70, symSize: 0x20 }
  - { offset: 0x96FB9, size: 0x8, addend: 0x0, symName: __ZN4pyo36marker6Python14from_owned_ptr17h85dd4c07a94f92b2E, symObjAddr: 0x3F50, symBinAddr: 0x35A90, symSize: 0x20 }
  - { offset: 0x9701A, size: 0x8, addend: 0x0, symName: __ZN4pyo36marker6Python14from_owned_ptr17hdf595b14e0c70b00E, symObjAddr: 0x3FB0, symBinAddr: 0x35AB0, symSize: 0x20 }
  - { offset: 0x9706E, size: 0x8, addend: 0x0, symName: __ZN4pyo36marker6Python17from_borrowed_ptr17h1a76bd43cda443d5E, symObjAddr: 0x3FD0, symBinAddr: 0x35AD0, symSize: 0x20 }
  - { offset: 0x970B5, size: 0x8, addend: 0x0, symName: __ZN4pyo36marker6Python17from_borrowed_ptr17hf89250d4d680cde7E, symObjAddr: 0x3FF0, symBinAddr: 0x35AF0, symSize: 0x20 }
  - { offset: 0x97109, size: 0x8, addend: 0x0, symName: __ZN4pyo36marker6Python17from_borrowed_ptr17hfaebfb4bc49c6ea6E, symObjAddr: 0x4010, symBinAddr: 0x35B10, symSize: 0x20 }
  - { offset: 0x97150, size: 0x8, addend: 0x0, symName: __ZN4pyo36marker6Python19assume_gil_acquired17h9b13d40643c833d8E, symObjAddr: 0x4030, symBinAddr: 0x35B30, symSize: 0x10 }
  - { offset: 0x97163, size: 0x8, addend: 0x0, symName: __ZN4pyo36marker6Python21from_owned_ptr_or_err17h1626a29d56c34022E, symObjAddr: 0x4070, symBinAddr: 0x35B40, symSize: 0x30 }
  - { offset: 0x971AA, size: 0x8, addend: 0x0, symName: __ZN4pyo36marker6Python21from_owned_ptr_or_err17h298ddee87d9f3fa7E, symObjAddr: 0x40A0, symBinAddr: 0x35B70, symSize: 0x30 }
  - { offset: 0x971FE, size: 0x8, addend: 0x0, symName: __ZN4pyo36marker6Python21from_owned_ptr_or_err17h8f8088e55bd98bcbE, symObjAddr: 0x4130, symBinAddr: 0x35BA0, symSize: 0x30 }
  - { offset: 0x97245, size: 0x8, addend: 0x0, symName: __ZN4pyo36marker6Python21from_owned_ptr_or_err17hb4fbadc0e1cbeda6E, symObjAddr: 0x41C0, symBinAddr: 0x35BD0, symSize: 0x30 }
  - { offset: 0x972A6, size: 0x8, addend: 0x0, symName: __ZN4pyo36marker6Python21from_owned_ptr_or_opt17h27a829718202ff10E, symObjAddr: 0x42B0, symBinAddr: 0x35C00, symSize: 0x20 }
  - { offset: 0x972FA, size: 0x8, addend: 0x0, symName: __ZN4pyo36marker6Python24from_borrowed_ptr_or_err17h9718545a57939a3dE, symObjAddr: 0x42F0, symBinAddr: 0x35C20, symSize: 0x30 }
  - { offset: 0x97341, size: 0x8, addend: 0x0, symName: __ZN4pyo36marker6Python4None17h26120891c9f2d1ffE, symObjAddr: 0x43D0, symBinAddr: 0x35C50, symSize: 0x30 }
  - { offset: 0x97370, size: 0x8, addend: 0x0, symName: __ZN4pyo36marker6Python7version17hfc42e17e2a0864eeE, symObjAddr: 0x44A0, symBinAddr: 0x35C80, symSize: 0x50 }
  - { offset: 0x9739F, size: 0x8, addend: 0x0, symName: __ZN4pyo36marker6Python8get_type17h175ccc35b7c6814aE, symObjAddr: 0x44F0, symBinAddr: 0x35CD0, symSize: 0x20 }
  - { offset: 0x973D7, size: 0x8, addend: 0x0, symName: __ZN4pyo36marker6Python8get_type17h8ff9e4b590ebc9e2E, symObjAddr: 0x4510, symBinAddr: 0x35CF0, symSize: 0x20 }
  - { offset: 0x9747F, size: 0x8, addend: 0x0, symName: __ZN4pyo36marker6Python8with_gil17hf8b574feba6de424E, symObjAddr: 0x4D80, symBinAddr: 0x35D10, symSize: 0xC0 }
  - { offset: 0x97744, size: 0x8, addend: 0x0, symName: '__ZN45_$LT$T$u20$as$u20$alloc..string..ToString$GT$9to_string17h834f139f08481febE', symObjAddr: 0xE0, symBinAddr: 0x36E90, symSize: 0x30 }
  - { offset: 0x9779F, size: 0x8, addend: 0x0, symName: '__ZN76_$LT$alloc..string..String$u20$as$u20$core..convert..From$LT$$RF$str$GT$$GT$4from17h2a5703ea90409cefE', symObjAddr: 0x6D90, symBinAddr: 0x388A0, symSize: 0x50 }
  - { offset: 0x9788C, size: 0x8, addend: 0x0, symName: '__ZN55_$LT$$RF$str$u20$as$u20$alloc..string..SpecToString$GT$14spec_to_string17h4452e036cb800eaaE', symObjAddr: 0x44D0, symBinAddr: 0x37C30, symSize: 0x60 }
  - { offset: 0x979B6, size: 0x8, addend: 0x0, symName: '__ZN58_$LT$alloc..string..String$u20$as$u20$core..fmt..Write$GT$10write_char17hf265d5a62aadbce6E', symObjAddr: 0x4590, symBinAddr: 0x37CF0, symSize: 0x20 }
  - { offset: 0x979F3, size: 0x8, addend: 0x0, symName: '__ZN58_$LT$alloc..string..String$u20$as$u20$core..fmt..Write$GT$9write_str17h9a47e66f29613648E', symObjAddr: 0x45B0, symBinAddr: 0x37D10, symSize: 0x30 }
  - { offset: 0x97A54, size: 0x8, addend: 0x0, symName: '__ZN65_$LT$alloc..string..String$u20$as$u20$core..ops..deref..Deref$GT$5deref17hd2ac540a3eb8d74aE', symObjAddr: 0x4CB0, symBinAddr: 0x383D0, symSize: 0x20 }
  - { offset: 0x97A88, size: 0x8, addend: 0x0, symName: '__ZN60_$LT$alloc..string..String$u20$as$u20$core..fmt..Display$GT$3fmt17heb9c7bbe2f35efe7E', symObjAddr: 0x4C00, symBinAddr: 0x38360, symSize: 0x70 }
  - { offset: 0x97BED, size: 0x8, addend: 0x0, symName: '__ZN74_$LT$alloc..string..String$u20$as$u20$core..ops..index..Index$LT$I$GT$$GT$5index17h65d965e1b895e423E', symObjAddr: 0x6790, symBinAddr: 0x38790, symSize: 0x70 }
  - { offset: 0x9843A, size: 0x8, addend: 0x0, symName: '__ZN77_$LT$alloc..raw_vec..RawVec$LT$T$C$A$GT$$u20$as$u20$core..ops..drop..Drop$GT$4drop17h276ed93a0fb3d4c7E', symObjAddr: 0x72D0, symBinAddr: 0x388F0, symSize: 0x30 }
  - { offset: 0x98476, size: 0x8, addend: 0x0, symName: '__ZN77_$LT$alloc..raw_vec..RawVec$LT$T$C$A$GT$$u20$as$u20$core..ops..drop..Drop$GT$4drop17h345014119640328dE', symObjAddr: 0x7300, symBinAddr: 0x38920, symSize: 0x30 }
  - { offset: 0x984B2, size: 0x8, addend: 0x0, symName: '__ZN77_$LT$alloc..raw_vec..RawVec$LT$T$C$A$GT$$u20$as$u20$core..ops..drop..Drop$GT$4drop17h4044b681f0bd1f8aE', symObjAddr: 0x7330, symBinAddr: 0x38950, symSize: 0x20 }
  - { offset: 0x984EE, size: 0x8, addend: 0x0, symName: '__ZN77_$LT$alloc..raw_vec..RawVec$LT$T$C$A$GT$$u20$as$u20$core..ops..drop..Drop$GT$4drop17h4650676fb3103050E', symObjAddr: 0x7350, symBinAddr: 0x38970, symSize: 0x30 }
  - { offset: 0x9852A, size: 0x8, addend: 0x0, symName: '__ZN77_$LT$alloc..raw_vec..RawVec$LT$T$C$A$GT$$u20$as$u20$core..ops..drop..Drop$GT$4drop17h556b2f79269bec9dE', symObjAddr: 0x7380, symBinAddr: 0x389A0, symSize: 0x20 }
  - { offset: 0x98566, size: 0x8, addend: 0x0, symName: '__ZN77_$LT$alloc..raw_vec..RawVec$LT$T$C$A$GT$$u20$as$u20$core..ops..drop..Drop$GT$4drop17h64520b7baae63e56E', symObjAddr: 0x73A0, symBinAddr: 0x389C0, symSize: 0x30 }
  - { offset: 0x985A2, size: 0x8, addend: 0x0, symName: '__ZN77_$LT$alloc..raw_vec..RawVec$LT$T$C$A$GT$$u20$as$u20$core..ops..drop..Drop$GT$4drop17h9ad874aa30959c93E', symObjAddr: 0x73D0, symBinAddr: 0x389F0, symSize: 0x30 }
  - { offset: 0x985DE, size: 0x8, addend: 0x0, symName: '__ZN77_$LT$alloc..raw_vec..RawVec$LT$T$C$A$GT$$u20$as$u20$core..ops..drop..Drop$GT$4drop17hb975363d222c5e21E', symObjAddr: 0x7400, symBinAddr: 0x38A20, symSize: 0x30 }
  - { offset: 0x9861A, size: 0x8, addend: 0x0, symName: '__ZN77_$LT$alloc..raw_vec..RawVec$LT$T$C$A$GT$$u20$as$u20$core..ops..drop..Drop$GT$4drop17hd2f74a486adbbeb1E', symObjAddr: 0x7430, symBinAddr: 0x38A50, symSize: 0x30 }
  - { offset: 0x987D4, size: 0x8, addend: 0x0, symName: '__ZN66_$LT$T$u20$as$u20$alloc..ffi..c_str..CString..new..SpecNewImpl$GT$13spec_new_impl17hb14235a3da00df2bE', symObjAddr: 0x4CD0, symBinAddr: 0x383F0, symSize: 0x1F0 }
  - { offset: 0x98976, size: 0x8, addend: 0x0, symName: '__ZN5alloc3str83_$LT$impl$u20$core..borrow..Borrow$LT$str$GT$$u20$for$u20$alloc..string..String$GT$6borrow17h30501835494bbe38E', symObjAddr: 0x45E0, symBinAddr: 0x37D40, symSize: 0x20 }
  - { offset: 0x98C6C, size: 0x8, addend: 0x0, symName: '__ZN71_$LT$alloc..sync..Arc$LT$T$C$A$GT$$u20$as$u20$core..ops..drop..Drop$GT$4drop17h665eb6fcb9f0e5c1E', symObjAddr: 0x5980, symBinAddr: 0x38700, symSize: 0x70 }
  - { offset: 0x99DA4, size: 0x8, addend: 0x0, symName: '__ZN36_$LT$T$u20$as$u20$core..any..Any$GT$7type_id17hecc13fe41ba26820E', symObjAddr: 0x80, symBinAddr: 0x36E60, symSize: 0x30 }
  - { offset: 0x99E72, size: 0x8, addend: 0x0, symName: __ZN4core3fmt5Write9write_fmt17h32e9388d757e0abbE, symObjAddr: 0xE00, symBinAddr: 0x36EC0, symSize: 0x30 }
  - { offset: 0x99EBF, size: 0x8, addend: 0x0, symName: '__ZN75_$LT$$RF$mut$u20$W$u20$as$u20$core..fmt..Write..write_fmt..SpecWriteFmt$GT$14spec_write_fmt17h902b14be7dcbab1aE', symObjAddr: 0x6920, symBinAddr: 0x38800, symSize: 0x90 }
  - { offset: 0x9A03D, size: 0x8, addend: 0x0, symName: '__ZN4core5slice4iter87_$LT$impl$u20$core..iter..traits..collect..IntoIterator$u20$for$u20$$RF$$u5b$T$u5d$$GT$9into_iter17h408eb5fda511d45eE', symObjAddr: 0xED0, symBinAddr: 0x36EF0, symSize: 0x50 }
  - { offset: 0x9A25B, size: 0x8, addend: 0x0, symName: __ZN4core5slice6memchr6memchr17h7c001c26c851231aE, symObjAddr: 0xF20, symBinAddr: 0x36F40, symSize: 0xE0 }
  - { offset: 0x9AB2C, size: 0x8, addend: 0x0, symName: '__ZN50_$LT$T$u20$as$u20$core..convert..Into$LT$U$GT$$GT$4into17h300641b4a1d4a79dE', symObjAddr: 0x43A0, symBinAddr: 0x37BB0, symSize: 0x20 }
  - { offset: 0x9AB6C, size: 0x8, addend: 0x0, symName: '__ZN50_$LT$T$u20$as$u20$core..convert..Into$LT$U$GT$$GT$4into17h6f9723c8199ac23cE', symObjAddr: 0x43C0, symBinAddr: 0x37BD0, symSize: 0x20 }
  - { offset: 0x9ABAC, size: 0x8, addend: 0x0, symName: '__ZN50_$LT$T$u20$as$u20$core..convert..Into$LT$U$GT$$GT$4into17h820f5d104d9fa140E', symObjAddr: 0x43E0, symBinAddr: 0x37BF0, symSize: 0x20 }
  - { offset: 0x9AE82, size: 0x8, addend: 0x0, symName: __ZN4pyo38instance12PyNativeType18unchecked_downcast17h86957f176cb75fcdE, symObjAddr: 0x4200, symBinAddr: 0x37B30, symSize: 0x60 }
  - { offset: 0x9AEB7, size: 0x8, addend: 0x0, symName: __ZN4pyo38instance12PyNativeType2py17h088d7ca2ec8a1199E, symObjAddr: 0x4380, symBinAddr: 0x37B90, symSize: 0x20 }
  - { offset: 0x9AF7E, size: 0x8, addend: 0x0, symName: __ZN4pyo35types10typeobject6PyType4name8INTERNED17h8ff43de11c498c2fE, symObjAddr: 0xAAC0, symBinAddr: 0xD4F78, symSize: 0x0 }
  - { offset: 0x9AF92, size: 0x8, addend: 0x0, symName: '__ZN103_$LT$pyo3..types..typeobject..PyType$u20$as$u20$core..convert..AsRef$LT$pyo3..types..any..PyAny$GT$$GT$6as_ref17haa561e80dfcc2471E', symObjAddr: 0x40, symBinAddr: 0x36E20, symSize: 0x10 }
  - { offset: 0x9AFC4, size: 0x8, addend: 0x0, symName: '__ZN68_$LT$pyo3..types..typeobject..PyType$u20$as$u20$core..fmt..Debug$GT$3fmt17h9db15176af2d868dE', symObjAddr: 0x4FE0, symBinAddr: 0x385E0, symSize: 0x120 }
  - { offset: 0x9B036, size: 0x8, addend: 0x0, symName: '__ZN75_$LT$pyo3..types..typeobject..PyType$u20$as$u20$core..ops..deref..Deref$GT$5deref17hbd6f46ffef818e76E', symObjAddr: 0x6D80, symBinAddr: 0x38890, symSize: 0x10 }
  - { offset: 0x9B068, size: 0x8, addend: 0x0, symName: '__ZN81_$LT$pyo3..types..typeobject..PyType$u20$as$u20$pyo3..conversion..AsPyPointer$GT$6as_ptr17hd160d2b518bdabb5E', symObjAddr: 0x8010, symBinAddr: 0x38A80, symSize: 0x20 }
  - { offset: 0x9B0F1, size: 0x8, addend: 0x0, symName: '__ZN4pyo35types5tuple125_$LT$impl$u20$pyo3..conversion..IntoPy$LT$pyo3..instance..Py$LT$pyo3..types..any..PyAny$GT$$GT$$u20$for$u20$$LP$T0$C$$RP$$GT$7into_py17h41d2d64518049bdaE', symObjAddr: 0x3D60, symBinAddr: 0x37AD0, symSize: 0x60 }
  - { offset: 0x9B151, size: 0x8, addend: 0x0, symName: '__ZN107_$LT$$RF$T$u20$as$u20$pyo3..conversion..IntoPy$LT$pyo3..instance..Py$LT$pyo3..types..any..PyAny$GT$$GT$$GT$7into_py17hdbeb3e55928e403dE', symObjAddr: 0x50, symBinAddr: 0x36E30, symSize: 0x30 }
  - { offset: 0x9B1A9, size: 0x8, addend: 0x0, symName: __ZN4pyo310conversion13FromPyPointer17from_borrowed_ptr17h086a04f932c59dd1E, symObjAddr: 0x1020, symBinAddr: 0x37020, symSize: 0x20 }
  - { offset: 0x9B1FB, size: 0x8, addend: 0x0, symName: __ZN4pyo310conversion13FromPyPointer26from_borrowed_ptr_or_panic17ha80fdc793de0d131E, symObjAddr: 0x1070, symBinAddr: 0x37040, symSize: 0x30 }
  - { offset: 0x9B253, size: 0x8, addend: 0x0, symName: '__ZN53_$LT$T$u20$as$u20$pyo3..conversion..FromPyPointer$GT$24from_borrowed_ptr_or_opt17h82f79168137e91ccE', symObjAddr: 0x44B0, symBinAddr: 0x37C10, symSize: 0x20 }
  - { offset: 0x9B60D, size: 0x8, addend: 0x0, symName: __ZN4pyo35impl_9pymethods7get_doc17h9174ab4afa284fcdE, symObjAddr: 0x3A30, symBinAddr: 0x378F0, symSize: 0x40 }
  - { offset: 0x9B63B, size: 0x8, addend: 0x0, symName: __ZN4pyo35impl_9pymethods8get_name17h5b168d9953a5ea51E, symObjAddr: 0x3A70, symBinAddr: 0x37930, symSize: 0x40 }
  - { offset: 0x9B6CA, size: 0x8, addend: 0x0, symName: '__ZN71_$LT$pyo3..impl_..panic..PanicTrap$u20$as$u20$core..ops..drop..Drop$GT$4drop17hb438640c0e0c6b1aE', symObjAddr: 0x5ED0, symBinAddr: 0x38770, symSize: 0x20 }
  - { offset: 0x9B7DD, size: 0x8, addend: 0x0, symName: '__ZN58_$LT$T$u20$as$u20$pyo3..err..err_state..PyErrArguments$GT$9arguments17h25e5e86f4b87dca2E', symObjAddr: 0x4530, symBinAddr: 0x37C90, symSize: 0x30 }
  - { offset: 0x9B82C, size: 0x8, addend: 0x0, symName: '__ZN58_$LT$T$u20$as$u20$pyo3..err..err_state..PyErrArguments$GT$9arguments17h2ee72e72fb29e440E', symObjAddr: 0x4560, symBinAddr: 0x37CC0, symSize: 0x30 }
  - { offset: 0x9B916, size: 0x8, addend: 0x0, symName: '__ZN4pyo311conversions3std6string119_$LT$impl$u20$pyo3..conversion..IntoPy$LT$pyo3..instance..Py$LT$pyo3..types..any..PyAny$GT$$GT$$u20$for$u20$$RF$str$GT$7into_py17h2a3c577c6fb3a6f3E', symObjAddr: 0x29F0, symBinAddr: 0x37070, symSize: 0x30 }
  - { offset: 0x9B961, size: 0x8, addend: 0x0, symName: '__ZN4pyo311conversions3std6string125_$LT$impl$u20$pyo3..conversion..IntoPy$LT$pyo3..instance..Py$LT$pyo3..types..string..PyString$GT$$GT$$u20$for$u20$$RF$str$GT$7into_py17h94779708e25bb39fE', symObjAddr: 0x2A20, symBinAddr: 0x370A0, symSize: 0x30 }
  - { offset: 0x9B9AC, size: 0x8, addend: 0x0, symName: '__ZN4pyo311conversions3std6string133_$LT$impl$u20$pyo3..conversion..IntoPy$LT$pyo3..instance..Py$LT$pyo3..types..any..PyAny$GT$$GT$$u20$for$u20$alloc..string..String$GT$7into_py17hbc845871e9571453E', symObjAddr: 0x2A50, symBinAddr: 0x370D0, symSize: 0x80 }
  - { offset: 0x9B9F8, size: 0x8, addend: 0x0, symName: '__ZN4pyo311conversions3std6string62_$LT$impl$u20$pyo3..conversion..ToPyObject$u20$for$u20$str$GT$9to_object17h11144d771c7becb1E', symObjAddr: 0x2AD0, symBinAddr: 0x37150, symSize: 0x30 }
  - { offset: 0x9BA43, size: 0x8, addend: 0x0, symName: '__ZN4pyo311conversions3std6string68_$LT$impl$u20$pyo3..conversion..FromPyObject$u20$for$u20$$RF$str$GT$7extract17h5cc2449bfd07d336E', symObjAddr: 0x2DD0, symBinAddr: 0x37180, symSize: 0xE0 }
  - { offset: 0x9BA93, size: 0x8, addend: 0x0, symName: '__ZN4pyo311conversions3std6string80_$LT$impl$u20$pyo3..conversion..ToPyObject$u20$for$u20$alloc..string..String$GT$9to_object17h4e51606b7aadfe7aE', symObjAddr: 0x2EB0, symBinAddr: 0x37260, symSize: 0x40 }
  - { offset: 0x9BADE, size: 0x8, addend: 0x0, symName: '__ZN4pyo311conversions3std6string82_$LT$impl$u20$pyo3..conversion..FromPyObject$u20$for$u20$alloc..string..String$GT$7extract17h5038ebc24dff11a7E', symObjAddr: 0x2EF0, symBinAddr: 0x372A0, symSize: 0x100 }
  - { offset: 0x9BD3E, size: 0x8, addend: 0x0, symName: __ZN8pyo3_ffi10listobject12PyList_Check17hba284957c316709cE, symObjAddr: 0x8F00, symBinAddr: 0x38AA0, symSize: 0x30 }
  - { offset: 0x9C0A0, size: 0x8, addend: 0x0, symName: __ZN4pyo35impl_5panic9PanicTrap3new17hc1dba414315c6868E, symObjAddr: 0x33B0, symBinAddr: 0x373A0, symSize: 0x20 }
  - { offset: 0x9C0C2, size: 0x8, addend: 0x0, symName: __ZN4pyo35impl_5panic9PanicTrap6disarm17hb11a128a09b1988cE, symObjAddr: 0x33D0, symBinAddr: 0x373C0, symSize: 0x20 }
  - { offset: 0x9C175, size: 0x8, addend: 0x0, symName: __ZN4pyo35impl_9pymethods11PyMethodDef13as_method_def17hcfdc2608422bffa2E, symObjAddr: 0x3420, symBinAddr: 0x373E0, symSize: 0x4D0 }
  - { offset: 0x9C2D7, size: 0x8, addend: 0x0, symName: __ZN4pyo35impl_9pymethods19PyClassAttributeDef18attribute_c_string17h346da408a317e868E, symObjAddr: 0x39D0, symBinAddr: 0x378B0, symSize: 0x40 }
  - { offset: 0x9C306, size: 0x8, addend: 0x0, symName: __ZN4pyo35types10typeobject6PyType11as_type_ptr17h5f01029469b41f0bE, symObjAddr: 0x3AB0, symBinAddr: 0x37970, symSize: 0x20 }
  - { offset: 0x9C335, size: 0x8, addend: 0x0, symName: __ZN4pyo35types10typeobject6PyType13from_type_ptr17h073c82f49b3a396bE, symObjAddr: 0x3C20, symBinAddr: 0x37990, symSize: 0x20 }
  - { offset: 0x9C370, size: 0x8, addend: 0x0, symName: __ZN4pyo35types10typeobject6PyType4name17hc360537d4b9ba790E, symObjAddr: 0x3C40, symBinAddr: 0x379B0, symSize: 0x120 }
  - { offset: 0x9C59B, size: 0x8, addend: 0x0, symName: __ZN5alloc6string6String4push17h9613c8747c15bcd9E, symObjAddr: 0x4600, symBinAddr: 0x37D60, symSize: 0xF0 }
  - { offset: 0x9C883, size: 0x8, addend: 0x0, symName: __ZN5alloc6string6String6as_str17hd57ee8f4b2a4d461E, symObjAddr: 0x46F0, symBinAddr: 0x37E50, symSize: 0x60 }
  - { offset: 0x9CA51, size: 0x8, addend: 0x0, symName: __ZN5alloc6string6String8push_str17h434de93e366c8b5cE, symObjAddr: 0x4750, symBinAddr: 0x37EB0, symSize: 0x50 }
  - { offset: 0x9CC09, size: 0x8, addend: 0x0, symName: '__ZN5alloc7raw_vec19RawVec$LT$T$C$A$GT$8grow_one17h1482a5cc49cb474dE', symObjAddr: 0x47A0, symBinAddr: 0x37F00, symSize: 0x80 }
  - { offset: 0x9CCBB, size: 0x8, addend: 0x0, symName: '__ZN5alloc7raw_vec19RawVec$LT$T$C$A$GT$8grow_one17h33a4fbb0236bf18fE', symObjAddr: 0x4820, symBinAddr: 0x37F80, symSize: 0x80 }
  - { offset: 0x9CD6D, size: 0x8, addend: 0x0, symName: '__ZN5alloc7raw_vec19RawVec$LT$T$C$A$GT$8grow_one17h764176221fb31472E', symObjAddr: 0x48A0, symBinAddr: 0x38000, symSize: 0x80 }
  - { offset: 0x9CE2C, size: 0x8, addend: 0x0, symName: '__ZN5alloc7raw_vec19RawVec$LT$T$C$A$GT$8grow_one17h877b453de732fc86E', symObjAddr: 0x4920, symBinAddr: 0x38080, symSize: 0x80 }
  - { offset: 0x9CF1D, size: 0x8, addend: 0x0, symName: '__ZN5alloc7raw_vec19RawVec$LT$T$C$A$GT$8grow_one17h926bbbcb09a3a2e6E', symObjAddr: 0x49A0, symBinAddr: 0x38100, symSize: 0x80 }
  - { offset: 0x9D08B, size: 0x8, addend: 0x0, symName: '__ZN5alloc7raw_vec19RawVec$LT$T$C$A$GT$8grow_one17hc4876d58c2128633E', symObjAddr: 0x4A20, symBinAddr: 0x38180, symSize: 0x80 }
  - { offset: 0x9D13D, size: 0x8, addend: 0x0, symName: '__ZN5alloc7raw_vec19RawVec$LT$T$C$A$GT$8grow_one17hcaae9a59de17094cE', symObjAddr: 0x4AA0, symBinAddr: 0x38200, symSize: 0x80 }
  - { offset: 0x9D362, size: 0x8, addend: 0x0, symName: '__ZN5alloc7raw_vec19RawVec$LT$T$C$A$GT$8into_box17h8d23f5b86a86910bE', symObjAddr: 0x4B20, symBinAddr: 0x38280, symSize: 0x70 }
  - { offset: 0x9D6A2, size: 0x8, addend: 0x0, symName: '__ZN5alloc7raw_vec19RawVec$LT$T$C$A$GT$8into_box17heb9665d071d37d4cE', symObjAddr: 0x4B90, symBinAddr: 0x382F0, symSize: 0x70 }
  - { offset: 0x9DC17, size: 0x8, addend: 0x0, symName: '__ZN100_$LT$core..array..iter..iter_inner..PolymorphicIter$LT$DATA$GT$$u20$as$u20$core..ops..drop..Drop$GT$4drop17h31cc478fb4732b78E', symObjAddr: 0x0, symBinAddr: 0x38AD0, symSize: 0x30 }
  - { offset: 0x9DC53, size: 0x8, addend: 0x0, symName: '__ZN11parking_lot4once4Once15call_once_force28_$u7b$$u7b$closure$u7d$$u7d$17h7282871e3eb5bd7cE', symObjAddr: 0x3B0, symBinAddr: 0x38D30, symSize: 0x40 }
  - { offset: 0x9DC95, size: 0x8, addend: 0x0, symName: '__ZN11parking_lot4once4Once15call_once_force28_$u7b$$u7b$closure$u7d$$u7d$17h7e6f5f67a32af6a5E', symObjAddr: 0x3F0, symBinAddr: 0x38D70, symSize: 0x40 }
  - { offset: 0x9E77C, size: 0x8, addend: 0x0, symName: '__ZN4core3ptr7mut_ptr31_$LT$impl$u20$$BP$mut$u20$T$GT$7is_null17h035344822d5821caE', symObjAddr: 0xC20, symBinAddr: 0x39270, symSize: 0x20 }
  - { offset: 0x9ED8F, size: 0x8, addend: 0x0, symName: __ZN4core3cmp10PartialOrd2ge17h1800dfa1a95a297aE, symObjAddr: 0xBD0, symBinAddr: 0x39220, symSize: 0x50 }
  - { offset: 0x9EFCC, size: 0x8, addend: 0x0, symName: '__ZN100_$LT$core..array..iter..iter_inner..PolymorphicIter$LT$DATA$GT$$u20$as$u20$core..ops..drop..Drop$GT$4drop17h31cc478fb4732b78E', symObjAddr: 0x0, symBinAddr: 0x38AD0, symSize: 0x30 }
  - { offset: 0x9F019, size: 0x8, addend: 0x0, symName: '__ZN100_$LT$core..array..iter..iter_inner..PolymorphicIter$LT$DATA$GT$$u20$as$u20$core..ops..drop..Drop$GT$4drop17h6fded49f706123ddE', symObjAddr: 0x30, symBinAddr: 0x38B00, symSize: 0x30 }
  - { offset: 0x9F19F, size: 0x8, addend: 0x0, symName: '__ZN4core5array4iter94_$LT$impl$u20$core..iter..traits..collect..IntoIterator$u20$for$u20$$u5b$T$u3b$$u20$N$u5d$$GT$9into_iter17h0983bb24d58fb0a2E', symObjAddr: 0xE10, symBinAddr: 0x39460, symSize: 0x70 }
  - { offset: 0x9F1FD, size: 0x8, addend: 0x0, symName: '__ZN4core5array4iter94_$LT$impl$u20$core..iter..traits..collect..IntoIterator$u20$for$u20$$u5b$T$u3b$$u20$N$u5d$$GT$9into_iter17hbd9ecd8bc84c2b5eE', symObjAddr: 0xE80, symBinAddr: 0x394D0, symSize: 0x80 }
  - { offset: 0x9FEE2, size: 0x8, addend: 0x0, symName: '__ZN49_$LT$F$u20$as$u20$core..str..pattern..Pattern$GT$13into_searcher17h4f94d5f399542962E', symObjAddr: 0x8B0, symBinAddr: 0x391E0, symSize: 0x40 }
  - { offset: 0x9FF2E, size: 0x8, addend: 0x0, symName: '__ZN53_$LT$F$u20$as$u20$core..str..pattern..MultiCharEq$GT$7matches17h413a9a3020cedb26E', symObjAddr: 0x8820, symBinAddr: 0x3CD00, symSize: 0x20 }
  - { offset: 0xA00CE, size: 0x8, addend: 0x0, symName: __ZN4core4hint21unreachable_unchecked18precondition_check17h3171ff9c33f6022cE, symObjAddr: 0xC40, symBinAddr: 0x39290, symSize: 0x40 }
  - { offset: 0xA0173, size: 0x8, addend: 0x0, symName: '__ZN63_$LT$I$u20$as$u20$core..iter..traits..collect..IntoIterator$GT$9into_iter17h41e282ee4633984aE', symObjAddr: 0x8D40, symBinAddr: 0x3D0F0, symSize: 0x30 }
  - { offset: 0xA0230, size: 0x8, addend: 0x0, symName: '__ZN4core5slice29_$LT$impl$u20$$u5b$T$u5d$$GT$4iter17ha0b28bc3d3081220E', symObjAddr: 0xFF0, symBinAddr: 0x39550, symSize: 0x20 }
  - { offset: 0xA0267, size: 0x8, addend: 0x0, symName: '__ZN4core5slice29_$LT$impl$u20$$u5b$T$u5d$$GT$8is_empty17ha6ad4b79ac297054E', symObjAddr: 0x1010, symBinAddr: 0x39570, symSize: 0x20 }
  - { offset: 0xA0322, size: 0x8, addend: 0x0, symName: '__ZN4core5slice4iter87_$LT$impl$u20$core..iter..traits..collect..IntoIterator$u20$for$u20$$RF$$u5b$T$u5d$$GT$9into_iter17hdd3ca1556623d4d0E', symObjAddr: 0x1030, symBinAddr: 0x39590, symSize: 0x50 }
  - { offset: 0xA051A, size: 0x8, addend: 0x0, symName: '__ZN50_$LT$T$u20$as$u20$core..convert..Into$LT$U$GT$$GT$4into17h65545a1b9eb4d709E', symObjAddr: 0x87E0, symBinAddr: 0x3CCE0, symSize: 0x20 }
  - { offset: 0xA0584, size: 0x8, addend: 0x0, symName: '__ZN4pyo33gil27prepare_freethreaded_python28_$u7b$$u7b$closure$u7d$$u7d$17h9e413fdae2b85721E', symObjAddr: 0x42E0, symBinAddr: 0x3AA60, symSize: 0x30 }
  - { offset: 0xA05C4, size: 0x8, addend: 0x0, symName: '__ZN4pyo33gil8GILGuard7acquire28_$u7b$$u7b$closure$u7d$$u7d$17hedf2716eeb6edfc8E', symObjAddr: 0x45E0, symBinAddr: 0x3AC80, symSize: 0x80 }
  - { offset: 0xA0651, size: 0x8, addend: 0x0, symName: '__ZN4pyo33gil13OWNED_OBJECTS29_$u7b$$u7b$constant$u7d$$u7d$28_$u7b$$u7b$closure$u7d$$u7d$23__RUST_STD_INTERNAL_VAL17hdf85fd653d77fc0eE', symObjAddr: 0xBC20, symBinAddr: 0xD5950, symSize: 0x0 }
  - { offset: 0xA0660, size: 0x8, addend: 0x0, symName: '__ZN4pyo33gil13OWNED_OBJECTS29_$u7b$$u7b$constant$u7d$$u7d$28_$u7b$$u7b$closure$u7d$$u7d$17h9aace68593b43ce8E', symObjAddr: 0x3750, symBinAddr: 0x39ED0, symSize: 0x30 }
  - { offset: 0xA06A9, size: 0x8, addend: 0x0, symName: __ZN4pyo33gil4POOL17h82de4ce5995966a9E, symObjAddr: 0xBC68, symBinAddr: 0xD4F90, symSize: 0x0 }
  - { offset: 0xA071D, size: 0x8, addend: 0x0, symName: __ZN4pyo33gil5START17hadf2e29ee191a361E, symObjAddr: 0x3EF20, symBinAddr: 0xD5C50, symSize: 0x0 }
  - { offset: 0xA0746, size: 0x8, addend: 0x0, symName: '__ZN4pyo33gil9GIL_COUNT29_$u7b$$u7b$constant$u7d$$u7d$28_$u7b$$u7b$closure$u7d$$u7d$23__RUST_STD_INTERNAL_VAL17h5f3df22712992625E', symObjAddr: 0xBC50, symBinAddr: 0xD5968, symSize: 0x0 }
  - { offset: 0xA0755, size: 0x8, addend: 0x0, symName: '__ZN4pyo33gil9GIL_COUNT29_$u7b$$u7b$constant$u7d$$u7d$28_$u7b$$u7b$closure$u7d$$u7d$17h2125c9abb29cc672E', symObjAddr: 0x4660, symBinAddr: 0x3AD00, symSize: 0x20 }
  - { offset: 0xA0822, size: 0x8, addend: 0x0, symName: __ZN4pyo33gil14register_owned17hf86758a3ed86e4ebE, symObjAddr: 0x3E70, symBinAddr: 0x3A5F0, symSize: 0x60 }
  - { offset: 0xA0881, size: 0x8, addend: 0x0, symName: '__ZN4pyo33gil14register_owned28_$u7b$$u7b$closure$u7d$$u7d$17h41728a3edf444fe5E', symObjAddr: 0x3ED0, symBinAddr: 0x3A650, symSize: 0x90 }
  - { offset: 0xA08C2, size: 0x8, addend: 0x0, symName: '__ZN4pyo33gil15gil_is_acquired28_$u7b$$u7b$closure$u7d$$u7d$17h340b726ee1c11df0E', symObjAddr: 0x3F60, symBinAddr: 0x3A6E0, symSize: 0x20 }
  - { offset: 0xA0900, size: 0x8, addend: 0x0, symName: __ZN4pyo33gil15register_decref17h319eb66fb1c13f9aE, symObjAddr: 0x3F80, symBinAddr: 0x3A700, symSize: 0x160 }
  - { offset: 0xA095D, size: 0x8, addend: 0x0, symName: __ZN4pyo33gil15register_incref17h5be2508ae2b34e5fE, symObjAddr: 0x40E0, symBinAddr: 0x3A860, symSize: 0x100 }
  - { offset: 0xA09BF, size: 0x8, addend: 0x0, symName: '__ZN4pyo33gil19decrement_gil_count28_$u7b$$u7b$closure$u7d$$u7d$17h4d3fd598755da817E', symObjAddr: 0x41E0, symBinAddr: 0x3A960, symSize: 0x80 }
  - { offset: 0xA0A17, size: 0x8, addend: 0x0, symName: '__ZN4pyo33gil19increment_gil_count28_$u7b$$u7b$closure$u7d$$u7d$17hb2c0c59322a0147dE', symObjAddr: 0x4260, symBinAddr: 0x3A9E0, symSize: 0x60 }
  - { offset: 0xA0A6A, size: 0x8, addend: 0x0, symName: __ZN4pyo33gil27prepare_freethreaded_python17hefd87cfa9f143ac6E, symObjAddr: 0x42C0, symBinAddr: 0x3AA40, symSize: 0x20 }
  - { offset: 0xA0A9A, size: 0x8, addend: 0x0, symName: '__ZN4pyo33gil7GILPool3new28_$u7b$$u7b$closure$u7d$$u7d$17h09609b4585ca4f5aE', symObjAddr: 0x4350, symBinAddr: 0x3AAD0, symSize: 0x80 }
  - { offset: 0xA0B3B, size: 0x8, addend: 0x0, symName: '__ZN60_$LT$pyo3..gil..GILPool$u20$as$u20$core..ops..drop..Drop$GT$4drop17h2eda53a23c4ca2c2E', symObjAddr: 0x8930, symBinAddr: 0x3CD40, symSize: 0x290 }
  - { offset: 0xA0C17, size: 0x8, addend: 0x0, symName: '__ZN60_$LT$pyo3..gil..GILPool$u20$as$u20$core..ops..drop..Drop$GT$4drop28_$u7b$$u7b$closure$u7d$$u7d$17h5d370ceff4b08596E', symObjAddr: 0x8BC0, symBinAddr: 0x3CFD0, symSize: 0xF0 }
  - { offset: 0xA0C73, size: 0x8, addend: 0x0, symName: '__ZN61_$LT$pyo3..gil..GILGuard$u20$as$u20$core..ops..drop..Drop$GT$4drop17h6b4562bbd2b05765E', symObjAddr: 0x8D10, symBinAddr: 0x3D0C0, symSize: 0x30 }
  - { offset: 0xA0D85, size: 0x8, addend: 0x0, symName: '__ZN58_$LT$T$u20$as$u20$pyo3..err..err_state..PyErrArguments$GT$9arguments17hf50bf99310928ff8E', symObjAddr: 0x8910, symBinAddr: 0x3CD20, symSize: 0x20 }
  - { offset: 0xA1366, size: 0x8, addend: 0x0, symName: '__ZN102_$LT$pyo3..instance..Py$LT$pyo3..types..any..PyAny$GT$$u20$as$u20$core..convert..From$LT$$RF$T$GT$$GT$4from17h21c0aa22f058ff10E', symObjAddr: 0xB0, symBinAddr: 0x38B30, symSize: 0x40 }
  - { offset: 0xA139D, size: 0x8, addend: 0x0, symName: '__ZN102_$LT$pyo3..instance..Py$LT$pyo3..types..any..PyAny$GT$$u20$as$u20$core..convert..From$LT$$RF$T$GT$$GT$4from17h425b3e1aa2b5cbf5E', symObjAddr: 0xF0, symBinAddr: 0x38B70, symSize: 0x40 }
  - { offset: 0xA13D4, size: 0x8, addend: 0x0, symName: '__ZN102_$LT$pyo3..instance..Py$LT$pyo3..types..any..PyAny$GT$$u20$as$u20$core..convert..From$LT$$RF$T$GT$$GT$4from17hd6f50766e5e17f6bE', symObjAddr: 0x1B0, symBinAddr: 0x38BB0, symSize: 0x40 }
  - { offset: 0xA1411, size: 0x8, addend: 0x0, symName: '__ZN124_$LT$pyo3..instance..Py$LT$pyo3..types..any..PyAny$GT$$u20$as$u20$core..convert..From$LT$$RF$pyo3..types..any..PyAny$GT$$GT$4from17hbe79a8fe6bd412fbE', symObjAddr: 0x430, symBinAddr: 0x38DB0, symSize: 0x30 }
  - { offset: 0xA1445, size: 0x8, addend: 0x0, symName: '__ZN124_$LT$pyo3..instance..Py$LT$pyo3..types..any..PyAny$GT$$u20$as$u20$core..convert..From$LT$pyo3..instance..Py$LT$T$GT$$GT$$GT$4from17he9bca5f9127ed593E', symObjAddr: 0x480, symBinAddr: 0x38DE0, symSize: 0x20 }
  - { offset: 0xA1482, size: 0x8, addend: 0x0, symName: '__ZN129_$LT$pyo3..instance..Py$LT$T$GT$$u20$as$u20$pyo3..conversion..IntoPy$LT$pyo3..instance..Py$LT$pyo3..types..any..PyAny$GT$$GT$$GT$7into_py17h270dc3a8d5fe6d5bE', symObjAddr: 0x4A0, symBinAddr: 0x38E00, symSize: 0x20 }
  - { offset: 0xA1765, size: 0x8, addend: 0x0, symName: '__ZN4pyo38instance11Py$LT$T$GT$21from_owned_ptr_or_opt28_$u7b$$u7b$closure$u7d$$u7d$17h752d8c854cdaebefE', symObjAddr: 0x7550, symBinAddr: 0x3C060, symSize: 0x10 }
  - { offset: 0xA17A7, size: 0x8, addend: 0x0, symName: '__ZN4pyo38instance11Py$LT$T$GT$21from_owned_ptr_or_opt28_$u7b$$u7b$closure$u7d$$u7d$17hc56d64a4c576c1c6E', symObjAddr: 0x7560, symBinAddr: 0x3C070, symSize: 0x10 }
  - { offset: 0xA17E9, size: 0x8, addend: 0x0, symName: '__ZN4pyo38instance11Py$LT$T$GT$21from_owned_ptr_or_opt28_$u7b$$u7b$closure$u7d$$u7d$17hc71da4e22c9903d7E', symObjAddr: 0x7570, symBinAddr: 0x3C080, symSize: 0x10 }
  - { offset: 0xA182B, size: 0x8, addend: 0x0, symName: '__ZN4pyo38instance11Py$LT$T$GT$21from_owned_ptr_or_opt28_$u7b$$u7b$closure$u7d$$u7d$17hd554ad1da18e0b16E', symObjAddr: 0x7580, symBinAddr: 0x3C090, symSize: 0x10 }
  - { offset: 0xA188F, size: 0x8, addend: 0x0, symName: '__ZN4pyo38instance11Py$LT$T$GT$24from_borrowed_ptr_or_opt28_$u7b$$u7b$closure$u7d$$u7d$17h036a44e8fd9f107dE', symObjAddr: 0x76B0, symBinAddr: 0x3C1C0, symSize: 0xE0 }
  - { offset: 0xA18F5, size: 0x8, addend: 0x0, symName: '__ZN4pyo38instance11Py$LT$T$GT$24from_borrowed_ptr_or_opt28_$u7b$$u7b$closure$u7d$$u7d$17h36a7e22b4998473dE', symObjAddr: 0x7790, symBinAddr: 0x3C2A0, symSize: 0xE0 }
  - { offset: 0xA195B, size: 0x8, addend: 0x0, symName: '__ZN4pyo38instance11Py$LT$T$GT$24from_borrowed_ptr_or_opt28_$u7b$$u7b$closure$u7d$$u7d$17h37ef92ba65063002E', symObjAddr: 0x7870, symBinAddr: 0x3C380, symSize: 0xE0 }
  - { offset: 0xA19C1, size: 0x8, addend: 0x0, symName: '__ZN4pyo38instance11Py$LT$T$GT$24from_borrowed_ptr_or_opt28_$u7b$$u7b$closure$u7d$$u7d$17h531a03b0d1d883f2E', symObjAddr: 0x7950, symBinAddr: 0x3C460, symSize: 0xE0 }
  - { offset: 0xA1A27, size: 0x8, addend: 0x0, symName: '__ZN4pyo38instance11Py$LT$T$GT$24from_borrowed_ptr_or_opt28_$u7b$$u7b$closure$u7d$$u7d$17h8e7915246068b551E', symObjAddr: 0x7A30, symBinAddr: 0x3C540, symSize: 0xE0 }
  - { offset: 0xA1A8D, size: 0x8, addend: 0x0, symName: '__ZN4pyo38instance11Py$LT$T$GT$24from_borrowed_ptr_or_opt28_$u7b$$u7b$closure$u7d$$u7d$17hfdf573716a027e43E', symObjAddr: 0x7B10, symBinAddr: 0x3C620, symSize: 0xE0 }
  - { offset: 0xA1AFA, size: 0x8, addend: 0x0, symName: '__ZN66_$LT$pyo3..instance..Py$LT$T$GT$$u20$as$u20$core..clone..Clone$GT$5clone17h0632eb3b890f37a9E', symObjAddr: 0x8DF0, symBinAddr: 0x3D120, symSize: 0x30 }
  - { offset: 0xA1B31, size: 0x8, addend: 0x0, symName: '__ZN66_$LT$pyo3..instance..Py$LT$T$GT$$u20$as$u20$core..clone..Clone$GT$5clone17h1cb3cca90d3c75cfE', symObjAddr: 0x8E20, symBinAddr: 0x3D150, symSize: 0x30 }
  - { offset: 0xA1B68, size: 0x8, addend: 0x0, symName: '__ZN66_$LT$pyo3..instance..Py$LT$T$GT$$u20$as$u20$core..clone..Clone$GT$5clone17hf7544d9c65b32e47E', symObjAddr: 0x8E50, symBinAddr: 0x3D180, symSize: 0x30 }
  - { offset: 0xA1BA5, size: 0x8, addend: 0x0, symName: '__ZN69_$LT$pyo3..instance..Py$LT$T$GT$$u20$as$u20$core..ops..drop..Drop$GT$4drop17h0200ec1266f84892E', symObjAddr: 0x8FD0, symBinAddr: 0x3D1B0, symSize: 0x20 }
  - { offset: 0xA1BD8, size: 0x8, addend: 0x0, symName: '__ZN69_$LT$pyo3..instance..Py$LT$T$GT$$u20$as$u20$core..ops..drop..Drop$GT$4drop17h1ef6a817690af2c2E', symObjAddr: 0x9010, symBinAddr: 0x3D1D0, symSize: 0x20 }
  - { offset: 0xA1C0B, size: 0x8, addend: 0x0, symName: '__ZN69_$LT$pyo3..instance..Py$LT$T$GT$$u20$as$u20$core..ops..drop..Drop$GT$4drop17h558d9dc87f3d4d7eE', symObjAddr: 0x9070, symBinAddr: 0x3D1F0, symSize: 0x20 }
  - { offset: 0xA1C3E, size: 0x8, addend: 0x0, symName: '__ZN69_$LT$pyo3..instance..Py$LT$T$GT$$u20$as$u20$core..ops..drop..Drop$GT$4drop17h7e6104d95ae07a7eE', symObjAddr: 0x9090, symBinAddr: 0x3D210, symSize: 0x20 }
  - { offset: 0xA1C71, size: 0x8, addend: 0x0, symName: '__ZN69_$LT$pyo3..instance..Py$LT$T$GT$$u20$as$u20$core..ops..drop..Drop$GT$4drop17hf1e400c9fdad9fd3E', symObjAddr: 0x9110, symBinAddr: 0x3D230, symSize: 0x20 }
  - { offset: 0xA1CA4, size: 0x8, addend: 0x0, symName: '__ZN69_$LT$pyo3..instance..Py$LT$T$GT$$u20$as$u20$core..ops..drop..Drop$GT$4drop17hf40618fdfdfc0d59E', symObjAddr: 0x9130, symBinAddr: 0x3D250, symSize: 0x20 }
  - { offset: 0xA1CD7, size: 0x8, addend: 0x0, symName: '__ZN69_$LT$pyo3..instance..Py$LT$T$GT$$u20$as$u20$core..ops..drop..Drop$GT$4drop17hf51b35d6ee995b23E', symObjAddr: 0x9150, symBinAddr: 0x3D270, symSize: 0x20 }
  - { offset: 0xA1D10, size: 0x8, addend: 0x0, symName: '__ZN76_$LT$pyo3..instance..Py$LT$T$GT$$u20$as$u20$pyo3..conversion..ToPyObject$GT$9to_object17heb2979e2548065e5E', symObjAddr: 0x98E0, symBinAddr: 0x3D290, symSize: 0x20 }
  - { offset: 0xA1DA3, size: 0x8, addend: 0x0, symName: '__ZN4pyo35types10typeobject150_$LT$impl$u20$core..convert..From$LT$$RF$pyo3..types..typeobject..PyType$GT$$u20$for$u20$pyo3..instance..Py$LT$pyo3..types..typeobject..PyType$GT$$GT$4from17h6fe968d73d66dfffE', symObjAddr: 0x5D80, symBinAddr: 0x3B400, symSize: 0x40 }
  - { offset: 0xA1DF6, size: 0x8, addend: 0x0, symName: '__ZN4pyo35types5tuple142_$LT$impl$u20$core..convert..From$LT$$RF$pyo3..types..tuple..PyTuple$GT$$u20$for$u20$pyo3..instance..Py$LT$pyo3..types..tuple..PyTuple$GT$$GT$4from17hb6e29c29ef4938f6E', symObjAddr: 0x5E80, symBinAddr: 0x3B440, symSize: 0x40 }
  - { offset: 0xA1E43, size: 0x8, addend: 0x0, symName: '__ZN4pyo35types6string146_$LT$impl$u20$core..convert..From$LT$$RF$pyo3..types..string..PyString$GT$$u20$for$u20$pyo3..instance..Py$LT$pyo3..types..string..PyString$GT$$GT$4from17h08940ebe7b143928E', symObjAddr: 0x5EC0, symBinAddr: 0x3B480, symSize: 0x40 }
  - { offset: 0xA1EDC, size: 0x8, addend: 0x0, symName: '__ZN4pyo310exceptions154_$LT$impl$u20$core..convert..From$LT$$RF$pyo3..exceptions..PyBaseException$GT$$u20$for$u20$pyo3..instance..Py$LT$pyo3..exceptions..PyBaseException$GT$$GT$4from17h8d5a90cd8fdc54b2E', symObjAddr: 0x10C0, symBinAddr: 0x395E0, symSize: 0x40 }
  - { offset: 0xA1F67, size: 0x8, addend: 0x0, symName: __ZN4pyo37version17PythonVersionInfo8from_str22split_and_parse_number17h9510e35c4c66ce10E, symObjAddr: 0x6C00, symBinAddr: 0x3B8D0, symSize: 0x1F0 }
  - { offset: 0xA2052, size: 0x8, addend: 0x0, symName: '__ZN4pyo37version17PythonVersionInfo8from_str22split_and_parse_number28_$u7b$$u7b$closure$u7d$$u7d$17h7b2e50c2cb5d174fE', symObjAddr: 0x6DF0, symBinAddr: 0x3BAC0, symSize: 0x30 }
  - { offset: 0xA2090, size: 0x8, addend: 0x0, symName: '__ZN4pyo37version17PythonVersionInfo8from_str28_$u7b$$u7b$closure$u7d$$u7d$17h0bdb532a716c50d0E', symObjAddr: 0x6E20, symBinAddr: 0x3BAF0, symSize: 0x20 }
  - { offset: 0xA20D0, size: 0x8, addend: 0x0, symName: '__ZN97_$LT$pyo3..version..PythonVersionInfo$u20$as$u20$core..cmp..PartialOrd$LT$$LP$u8$C$u8$RP$$GT$$GT$11partial_cmp17he7dce86f09f64843E', symObjAddr: 0x9F50, symBinAddr: 0x3D520, symSize: 0x30 }
  - { offset: 0xA223B, size: 0x8, addend: 0x0, symName: __ZN4pyo35impl_7pyclass17build_pyclass_doc17h70a37578cd38eb13E, symObjAddr: 0x55A0, symBinAddr: 0x3AD50, symSize: 0x2F0 }
  - { offset: 0xA2335, size: 0x8, addend: 0x0, symName: '__ZN4pyo35impl_7pyclass17build_pyclass_doc28_$u7b$$u7b$closure$u7d$$u7d$17h81b3b1b28362fbfbE', symObjAddr: 0x5890, symBinAddr: 0x3B040, symSize: 0x60 }
  - { offset: 0xA2370, size: 0x8, addend: 0x0, symName: __ZN4pyo35impl_7pyclass30get_sequence_item_from_mapping17hf4a0e9bb0b8eb78aE, symObjAddr: 0x58F0, symBinAddr: 0x3B0A0, symSize: 0x1A0 }
  - { offset: 0xA240C, size: 0x8, addend: 0x0, symName: __ZN4pyo35impl_7pyclass33assign_sequence_item_from_mapping17hbb39bff9cf5e0f26E, symObjAddr: 0x5A90, symBinAddr: 0x3B240, symSize: 0x1C0 }
  - { offset: 0xA24AF, size: 0x8, addend: 0x0, symName: '__ZN97_$LT$pyo3..impl_..pyclass..PyClassItemsIter$u20$as$u20$core..iter..traits..iterator..Iterator$GT$4next17h9cd9262ce6ec4cc7E', symObjAddr: 0x9ED0, symBinAddr: 0x3D4B0, symSize: 0x70 }
  - { offset: 0xA2862, size: 0x8, addend: 0x0, symName: '__ZN4pyo311conversions3std3num115_$LT$impl$u20$pyo3..conversion..IntoPy$LT$pyo3..instance..Py$LT$pyo3..types..any..PyAny$GT$$GT$$u20$for$u20$u64$GT$7into_py17hcea2f98dfec5839eE', symObjAddr: 0x1300, symBinAddr: 0x39620, symSize: 0x20 }
  - { offset: 0xA28AD, size: 0x8, addend: 0x0, symName: '__ZN4pyo311conversions3std3num117_$LT$impl$u20$pyo3..conversion..IntoPy$LT$pyo3..instance..Py$LT$pyo3..types..any..PyAny$GT$$GT$$u20$for$u20$usize$GT$7into_py17hc38e341392c0a1ebE', symObjAddr: 0x1340, symBinAddr: 0x39640, symSize: 0x20 }
  - { offset: 0xA28F3, size: 0x8, addend: 0x0, symName: __ZN4pyo311conversions3std3num20err_if_invalid_value17hdf3c01420e8c2e4fE, symObjAddr: 0x1360, symBinAddr: 0x39660, symSize: 0xE0 }
  - { offset: 0xA2974, size: 0x8, addend: 0x0, symName: __ZN4pyo311conversions3std3num20err_if_invalid_value17hdfcd498b6feff8f2E, symObjAddr: 0x1440, symBinAddr: 0x39740, symSize: 0xE0 }
  - { offset: 0xA29FA, size: 0x8, addend: 0x0, symName: '__ZN4pyo311conversions3std3num64_$LT$impl$u20$pyo3..conversion..FromPyObject$u20$for$u20$u64$GT$7extract17h66ab02a03f216d27E', symObjAddr: 0x2E40, symBinAddr: 0x39820, symSize: 0x230 }
  - { offset: 0xA2A99, size: 0x8, addend: 0x0, symName: '__ZN4pyo311conversions3std3num66_$LT$impl$u20$pyo3..conversion..FromPyObject$u20$for$u20$isize$GT$7extract17h1d4bb0f118809e8fE', symObjAddr: 0x30C0, symBinAddr: 0x39A50, symSize: 0x320 }
  - { offset: 0xA2B6D, size: 0x8, addend: 0x0, symName: '__ZN4pyo311conversions3std3num66_$LT$impl$u20$pyo3..conversion..FromPyObject$u20$for$u20$isize$GT$7extract28_$u7b$$u7b$closure$u7d$$u7d$17hbd3085d218c04428E', symObjAddr: 0x33E0, symBinAddr: 0x39D70, symSize: 0x40 }
  - { offset: 0xA2BBC, size: 0x8, addend: 0x0, symName: '__ZN4pyo311conversions3std3num66_$LT$impl$u20$pyo3..conversion..FromPyObject$u20$for$u20$usize$GT$7extract17h1e06de7f719eb261E', symObjAddr: 0x3420, symBinAddr: 0x39DB0, symSize: 0xE0 }
  - { offset: 0xA2C28, size: 0x8, addend: 0x0, symName: '__ZN4pyo311conversions3std3num66_$LT$impl$u20$pyo3..conversion..FromPyObject$u20$for$u20$usize$GT$7extract28_$u7b$$u7b$closure$u7d$$u7d$17h951a9e382f6d360fE', symObjAddr: 0x3500, symBinAddr: 0x39E90, symSize: 0x40 }
  - { offset: 0xA2FF4, size: 0x8, addend: 0x0, symName: __ZN8pyo3_ffi6object10_Py_NewRef17h3ea3a712d4a61b4fE, symObjAddr: 0x9B50, symBinAddr: 0x3D2E0, symSize: 0xD0 }
  - { offset: 0xA3040, size: 0x8, addend: 0x0, symName: __ZN8pyo3_ffi6object12PyType_Check17h622f0d98a48d2d48E, symObjAddr: 0x9C20, symBinAddr: 0x3D3B0, symSize: 0x30 }
  - { offset: 0xA306E, size: 0x8, addend: 0x0, symName: __ZN8pyo3_ffi6object17PyType_HasFeature17h8a6d74d6e180793cE, symObjAddr: 0x9C50, symBinAddr: 0x3D3E0, symSize: 0x40 }
  - { offset: 0xA30AB, size: 0x8, addend: 0x0, symName: __ZN8pyo3_ffi6object19PyType_FastSubclass17hc4195402b48b1b65E, symObjAddr: 0x9D00, symBinAddr: 0x3D420, symSize: 0x20 }
  - { offset: 0xA30E8, size: 0x8, addend: 0x0, symName: __ZN8pyo3_ffi6object7Py_None17h750dc165712894e1E, symObjAddr: 0x9D20, symBinAddr: 0x3D440, symSize: 0x10 }
  - { offset: 0xA3106, size: 0x8, addend: 0x0, symName: __ZN8pyo3_ffi6object7Py_TYPE17h8e04415b50eaa8abE, symObjAddr: 0x9D30, symBinAddr: 0x3D450, symSize: 0x60 }
  - { offset: 0xA3156, size: 0x8, addend: 0x0, symName: __ZN8pyo3_ffi13unicodeobject15PyUnicode_Check17h4c4837d3766120f1E, symObjAddr: 0x9A20, symBinAddr: 0x3D2B0, symSize: 0x30 }
  - { offset: 0xA34D5, size: 0x8, addend: 0x0, symName: __ZN3std5panic12catch_unwind17h17238d4bc6c45241E, symObjAddr: 0x4C0, symBinAddr: 0x38E20, symSize: 0xB0 }
  - { offset: 0xA3568, size: 0x8, addend: 0x0, symName: __ZN3std5panic12catch_unwind17h2b9d6319bbf2b70cE, symObjAddr: 0x570, symBinAddr: 0x38ED0, symSize: 0xB0 }
  - { offset: 0xA35FB, size: 0x8, addend: 0x0, symName: __ZN3std5panic12catch_unwind17h2f0463298065a88eE, symObjAddr: 0x620, symBinAddr: 0x38F80, symSize: 0xE0 }
  - { offset: 0xA36AE, size: 0x8, addend: 0x0, symName: __ZN3std5panic12catch_unwind17h76dd68e0fce8502aE, symObjAddr: 0x700, symBinAddr: 0x39060, symSize: 0xA0 }
  - { offset: 0xA3741, size: 0x8, addend: 0x0, symName: __ZN3std5panic12catch_unwind17hd63ab40d21b09f73E, symObjAddr: 0x7A0, symBinAddr: 0x39100, symSize: 0xE0 }
  - { offset: 0xA38C3, size: 0x8, addend: 0x0, symName: __ZN11parking_lot4once4Once15call_once_force17hb79910a759008e5dE, symObjAddr: 0x270, symBinAddr: 0x38BF0, symSize: 0xA0 }
  - { offset: 0xA3919, size: 0x8, addend: 0x0, symName: __ZN11parking_lot4once4Once15call_once_force17hede512a65c7f559dE, symObjAddr: 0x310, symBinAddr: 0x38C90, symSize: 0xA0 }
  - { offset: 0xA3D09, size: 0x8, addend: 0x0, symName: '__ZN4core5array4iter10iter_inner78PolymorphicIter$LT$$u5b$core..mem..maybe_uninit..MaybeUninit$LT$T$GT$$u5d$$GT$4next17h29ed7ddba8046744E', symObjAddr: 0xC80, symBinAddr: 0x392D0, symSize: 0x190 }
  - { offset: 0xA40DE, size: 0x8, addend: 0x0, symName: __ZN4pyo33gil13ReferencePool13update_counts17h84d62221d02c21efE, symObjAddr: 0x3780, symBinAddr: 0x39F00, symSize: 0x5F0 }
  - { offset: 0xA4230, size: 0x8, addend: 0x0, symName: __ZN4pyo33gil13ReferencePool15register_decref17h41cc57b2ff0c748cE, symObjAddr: 0x3D70, symBinAddr: 0x3A4F0, symSize: 0x80 }
  - { offset: 0xA4262, size: 0x8, addend: 0x0, symName: __ZN4pyo33gil13ReferencePool15register_incref17hd4056f172ed9f952E, symObjAddr: 0x3DF0, symBinAddr: 0x3A570, symSize: 0x80 }
  - { offset: 0xA4294, size: 0x8, addend: 0x0, symName: __ZN4pyo33gil7GILPool3new17hbba3a09a39f119cdE, symObjAddr: 0x4310, symBinAddr: 0x3AA90, symSize: 0x40 }
  - { offset: 0xA42CA, size: 0x8, addend: 0x0, symName: __ZN4pyo33gil7GILPool6python17hca54842507fade8fE, symObjAddr: 0x43D0, symBinAddr: 0x3AB50, symSize: 0x20 }
  - { offset: 0xA42ED, size: 0x8, addend: 0x0, symName: __ZN4pyo33gil7LockGIL4bail17h7389c47f1ee53f82E, symObjAddr: 0x4470, symBinAddr: 0xA5A60, symSize: 0x60 }
  - { offset: 0xA4310, size: 0x8, addend: 0x0, symName: __ZN4pyo33gil8GILGuard17acquire_unchecked17h057697e30d9dfdbfE, symObjAddr: 0x44D0, symBinAddr: 0x3AB70, symSize: 0x90 }
  - { offset: 0xA4372, size: 0x8, addend: 0x0, symName: __ZN4pyo33gil8GILGuard7acquire17h3237a115ff84bd20E, symObjAddr: 0x4560, symBinAddr: 0x3AC00, symSize: 0x80 }
  - { offset: 0xA446D, size: 0x8, addend: 0x0, symName: __ZN4pyo35impl_7pyclass16PyClassItemsIter3new17ha10278dcff5d3815E, symObjAddr: 0x52E0, symBinAddr: 0x3AD20, symSize: 0x30 }
  - { offset: 0xA44BB, size: 0x8, addend: 0x0, symName: __ZN4pyo37version17PythonVersionInfo8from_str17h3eb65b8fd5657840E, symObjAddr: 0x67F0, symBinAddr: 0x3B4C0, symSize: 0x410 }
  - { offset: 0xA4639, size: 0x8, addend: 0x0, symName: '__ZN4pyo38instance11Py$LT$T$GT$13from_non_null17ha2bd0ac70bc683aeE', symObjAddr: 0x6E40, symBinAddr: 0x3BB10, symSize: 0x10 }
  - { offset: 0xA4665, size: 0x8, addend: 0x0, symName: '__ZN4pyo38instance11Py$LT$T$GT$13into_non_null17h3417513d08e59f3aE', symObjAddr: 0x6E80, symBinAddr: 0x3BB20, symSize: 0x30 }
  - { offset: 0xA46AF, size: 0x8, addend: 0x0, symName: '__ZN4pyo38instance11Py$LT$T$GT$13into_non_null17hf8b5609d4af6c1ffE', symObjAddr: 0x6EB0, symBinAddr: 0x3BB50, symSize: 0x30 }
  - { offset: 0xA46F9, size: 0x8, addend: 0x0, symName: '__ZN4pyo38instance11Py$LT$T$GT$14from_owned_ptr17h5c9726572491d041E', symObjAddr: 0x6EE0, symBinAddr: 0x3BB80, symSize: 0x50 }
  - { offset: 0xA4740, size: 0x8, addend: 0x0, symName: '__ZN4pyo38instance11Py$LT$T$GT$14from_owned_ptr17hc3dcb3190487cbbeE', symObjAddr: 0x6F80, symBinAddr: 0x3BBD0, symSize: 0x50 }
  - { offset: 0xA4787, size: 0x8, addend: 0x0, symName: '__ZN4pyo38instance11Py$LT$T$GT$17from_borrowed_ptr17h2a4fe58a4652e3d4E', symObjAddr: 0x6FD0, symBinAddr: 0x3BC20, symSize: 0x50 }
  - { offset: 0xA47CE, size: 0x8, addend: 0x0, symName: '__ZN4pyo38instance11Py$LT$T$GT$17from_borrowed_ptr17h370d837d37acd3edE', symObjAddr: 0x7020, symBinAddr: 0x3BC70, symSize: 0x50 }
  - { offset: 0xA4815, size: 0x8, addend: 0x0, symName: '__ZN4pyo38instance11Py$LT$T$GT$17from_borrowed_ptr17h428e23e013065611E', symObjAddr: 0x7070, symBinAddr: 0x3BCC0, symSize: 0x50 }
  - { offset: 0xA485C, size: 0x8, addend: 0x0, symName: '__ZN4pyo38instance11Py$LT$T$GT$17from_borrowed_ptr17h971e60cff47e1067E', symObjAddr: 0x70C0, symBinAddr: 0x3BD10, symSize: 0x50 }
  - { offset: 0xA48A3, size: 0x8, addend: 0x0, symName: '__ZN4pyo38instance11Py$LT$T$GT$17from_borrowed_ptr17he2defafa2cba6d99E', symObjAddr: 0x7110, symBinAddr: 0x3BD60, symSize: 0x50 }
  - { offset: 0xA48EA, size: 0x8, addend: 0x0, symName: '__ZN4pyo38instance11Py$LT$T$GT$17from_borrowed_ptr17hf006043cd961b6f5E', symObjAddr: 0x7160, symBinAddr: 0x3BDB0, symSize: 0x50 }
  - { offset: 0xA4931, size: 0x8, addend: 0x0, symName: '__ZN4pyo38instance11Py$LT$T$GT$21from_owned_ptr_or_err17h873178f8249fcaf2E', symObjAddr: 0x7250, symBinAddr: 0x3BE00, symSize: 0xA0 }
  - { offset: 0xA4996, size: 0x8, addend: 0x0, symName: '__ZN4pyo38instance11Py$LT$T$GT$21from_owned_ptr_or_err17hcb614889da7b3919E', symObjAddr: 0x7390, symBinAddr: 0x3BEA0, symSize: 0xA0 }
  - { offset: 0xA49FB, size: 0x8, addend: 0x0, symName: '__ZN4pyo38instance11Py$LT$T$GT$21from_owned_ptr_or_err17hdd5bcd8ea2c4a554E', symObjAddr: 0x7430, symBinAddr: 0x3BF40, symSize: 0xA0 }
  - { offset: 0xA4A60, size: 0x8, addend: 0x0, symName: '__ZN4pyo38instance11Py$LT$T$GT$21from_owned_ptr_or_opt17h0d994242739c621aE', symObjAddr: 0x74D0, symBinAddr: 0x3BFE0, symSize: 0x20 }
  - { offset: 0xA4AA7, size: 0x8, addend: 0x0, symName: '__ZN4pyo38instance11Py$LT$T$GT$21from_owned_ptr_or_opt17h31ef2a80a7c205b4E', symObjAddr: 0x74F0, symBinAddr: 0x3C000, symSize: 0x20 }
  - { offset: 0xA4AEE, size: 0x8, addend: 0x0, symName: '__ZN4pyo38instance11Py$LT$T$GT$21from_owned_ptr_or_opt17h3ed97866ade08a1fE', symObjAddr: 0x7510, symBinAddr: 0x3C020, symSize: 0x20 }
  - { offset: 0xA4B35, size: 0x8, addend: 0x0, symName: '__ZN4pyo38instance11Py$LT$T$GT$21from_owned_ptr_or_opt17hc39e06e0c2641551E', symObjAddr: 0x7530, symBinAddr: 0x3C040, symSize: 0x20 }
  - { offset: 0xA4B7C, size: 0x8, addend: 0x0, symName: '__ZN4pyo38instance11Py$LT$T$GT$24from_borrowed_ptr_or_opt17h137c2e91b7e2a73eE', symObjAddr: 0x7590, symBinAddr: 0x3C0A0, symSize: 0x30 }
  - { offset: 0xA4BC3, size: 0x8, addend: 0x0, symName: '__ZN4pyo38instance11Py$LT$T$GT$24from_borrowed_ptr_or_opt17h1aab713b3a02510fE', symObjAddr: 0x75C0, symBinAddr: 0x3C0D0, symSize: 0x30 }
  - { offset: 0xA4C0A, size: 0x8, addend: 0x0, symName: '__ZN4pyo38instance11Py$LT$T$GT$24from_borrowed_ptr_or_opt17ha58fe64ea9bfa76dE', symObjAddr: 0x75F0, symBinAddr: 0x3C100, symSize: 0x30 }
  - { offset: 0xA4C51, size: 0x8, addend: 0x0, symName: '__ZN4pyo38instance11Py$LT$T$GT$24from_borrowed_ptr_or_opt17hcdc0e8ec7c8b96a5E', symObjAddr: 0x7620, symBinAddr: 0x3C130, symSize: 0x30 }
  - { offset: 0xA4C98, size: 0x8, addend: 0x0, symName: '__ZN4pyo38instance11Py$LT$T$GT$24from_borrowed_ptr_or_opt17hdd9b1549e80174c4E', symObjAddr: 0x7650, symBinAddr: 0x3C160, symSize: 0x30 }
  - { offset: 0xA4CDF, size: 0x8, addend: 0x0, symName: '__ZN4pyo38instance11Py$LT$T$GT$24from_borrowed_ptr_or_opt17he1b77c2648abd9c6E', symObjAddr: 0x7680, symBinAddr: 0x3C190, symSize: 0x30 }
  - { offset: 0xA4D33, size: 0x8, addend: 0x0, symName: '__ZN4pyo38instance11Py$LT$T$GT$6as_ptr17h432423b3f68b7a27E', symObjAddr: 0x7C10, symBinAddr: 0x3C700, symSize: 0x20 }
  - { offset: 0xA4D6C, size: 0x8, addend: 0x0, symName: '__ZN4pyo38instance11Py$LT$T$GT$6as_ptr17h6c4c4ffde7846cbcE', symObjAddr: 0x7C30, symBinAddr: 0x3C720, symSize: 0x20 }
  - { offset: 0xA4DA5, size: 0x8, addend: 0x0, symName: '__ZN4pyo38instance11Py$LT$T$GT$6as_ptr17h7e773fe97911e6b5E', symObjAddr: 0x7C50, symBinAddr: 0x3C740, symSize: 0x20 }
  - { offset: 0xA4DDE, size: 0x8, addend: 0x0, symName: '__ZN4pyo38instance11Py$LT$T$GT$6as_ptr17h855747e230cbfe52E', symObjAddr: 0x7C90, symBinAddr: 0x3C760, symSize: 0x20 }
  - { offset: 0xA4E17, size: 0x8, addend: 0x0, symName: '__ZN4pyo38instance11Py$LT$T$GT$6as_ptr17h964b76b42562363cE', symObjAddr: 0x7CB0, symBinAddr: 0x3C780, symSize: 0x20 }
  - { offset: 0xA4E50, size: 0x8, addend: 0x0, symName: '__ZN4pyo38instance11Py$LT$T$GT$6as_ptr17hd1a5280773f270fcE', symObjAddr: 0x7D30, symBinAddr: 0x3C7A0, symSize: 0x20 }
  - { offset: 0xA4E89, size: 0x8, addend: 0x0, symName: '__ZN4pyo38instance11Py$LT$T$GT$6as_ptr17hfa912652f1dafcbeE', symObjAddr: 0x7D70, symBinAddr: 0x3C7C0, symSize: 0x20 }
  - { offset: 0xA4EC2, size: 0x8, addend: 0x0, symName: '__ZN4pyo38instance11Py$LT$T$GT$6as_ref17h2bae3a9d48d61277E', symObjAddr: 0x7D90, symBinAddr: 0x3C7E0, symSize: 0x70 }
  - { offset: 0xA4F2C, size: 0x8, addend: 0x0, symName: '__ZN4pyo38instance11Py$LT$T$GT$6as_ref17h67506d0b9970f0bdE', symObjAddr: 0x7E70, symBinAddr: 0x3C850, symSize: 0x70 }
  - { offset: 0xA4F96, size: 0x8, addend: 0x0, symName: '__ZN4pyo38instance11Py$LT$T$GT$6as_ref17h71cdd647da594576E', symObjAddr: 0x7EE0, symBinAddr: 0x3C8C0, symSize: 0x70 }
  - { offset: 0xA5000, size: 0x8, addend: 0x0, symName: '__ZN4pyo38instance11Py$LT$T$GT$6as_ref17h87b6683da9be460aE', symObjAddr: 0x7F50, symBinAddr: 0x3C930, symSize: 0x70 }
  - { offset: 0xA506A, size: 0x8, addend: 0x0, symName: '__ZN4pyo38instance11Py$LT$T$GT$6as_ref17h91cb84f85acee57fE', symObjAddr: 0x7FC0, symBinAddr: 0x3C9A0, symSize: 0x70 }
  - { offset: 0xA50D4, size: 0x8, addend: 0x0, symName: '__ZN4pyo38instance11Py$LT$T$GT$6as_ref17ha147d5c76ccea61bE', symObjAddr: 0x8030, symBinAddr: 0x3CA10, symSize: 0x70 }
  - { offset: 0xA5138, size: 0x8, addend: 0x0, symName: '__ZN4pyo38instance11Py$LT$T$GT$8into_ptr17h4e08672d34885d2fE', symObjAddr: 0x8340, symBinAddr: 0x3CA80, symSize: 0x80 }
  - { offset: 0xA51A0, size: 0x8, addend: 0x0, symName: '__ZN4pyo38instance11Py$LT$T$GT$8into_ptr17h8ef0e3d4492885bfE', symObjAddr: 0x8440, symBinAddr: 0x3CB00, symSize: 0x80 }
  - { offset: 0xA5208, size: 0x8, addend: 0x0, symName: '__ZN4pyo38instance11Py$LT$T$GT$8into_ptr17hae45351011a8b71bE', symObjAddr: 0x84C0, symBinAddr: 0x3CB80, symSize: 0x80 }
  - { offset: 0xA5270, size: 0x8, addend: 0x0, symName: '__ZN4pyo38instance11Py$LT$T$GT$8into_ptr17hd3028fff271d1917E', symObjAddr: 0x8640, symBinAddr: 0x3CC00, symSize: 0x80 }
  - { offset: 0xA52D8, size: 0x8, addend: 0x0, symName: '__ZN4pyo38instance11Py$LT$T$GT$8into_ref17hff70419a2ef93ebdE', symObjAddr: 0x86C0, symBinAddr: 0x3CC80, symSize: 0x20 }
  - { offset: 0xA531F, size: 0x8, addend: 0x0, symName: '__ZN4pyo38instance11Py$LT$T$GT$9clone_ref17h65a33e53edbc6094E', symObjAddr: 0x86E0, symBinAddr: 0x3CCA0, symSize: 0x20 }
  - { offset: 0xA5366, size: 0x8, addend: 0x0, symName: '__ZN4pyo38instance11Py$LT$T$GT$9clone_ref17ha1c71d083694156cE', symObjAddr: 0x8700, symBinAddr: 0x3CCC0, symSize: 0x20 }
  - { offset: 0xA5714, size: 0x8, addend: 0x0, symName: '__ZN104_$LT$core..ops..index_range..IndexRange$u20$as$u20$core..slice..index..SliceIndex$LT$$u5b$T$u5d$$GT$$GT$17get_unchecked_mut18precondition_check17h1a722dcae374435cE', symObjAddr: 0x0, symBinAddr: 0x3D590, symSize: 0x50 }
  - { offset: 0xA5900, size: 0x8, addend: 0x0, symName: '__ZN59_$LT$alloc..alloc..Global$u20$as$u20$core..clone..Clone$GT$5clone17h6cedf3c78d84f039E', symObjAddr: 0x75C0, symBinAddr: 0x403E0, symSize: 0x10 }
  - { offset: 0xA5956, size: 0x8, addend: 0x0, symName: '__ZN63_$LT$alloc..alloc..Global$u20$as$u20$core..alloc..Allocator$GT$10deallocate17h5d0a85d31664992dE', symObjAddr: 0x78C0, symBinAddr: 0x40680, symSize: 0x50 }
  - { offset: 0xA59E2, size: 0x8, addend: 0x0, symName: '__ZN63_$LT$alloc..alloc..Global$u20$as$u20$core..alloc..Allocator$GT$8allocate17h13217f9bded7f092E', symObjAddr: 0x7910, symBinAddr: 0x406D0, symSize: 0x30 }
  - { offset: 0xA5A1D, size: 0x8, addend: 0x0, symName: __ZN5alloc5alloc15exchange_malloc17h059a0d7912df075dE, symObjAddr: 0x75D0, symBinAddr: 0x403F0, symSize: 0xA0 }
  - { offset: 0xA5FBA, size: 0x8, addend: 0x0, symName: '__ZN87_$LT$T$u20$as$u20$alloc..slice..$LT$impl$u20$$u5b$T$u5d$$GT$..to_vec_in..ConvertVec$GT$6to_vec17hb28cace691d77a08E', symObjAddr: 0x80E0, symBinAddr: 0x40800, symSize: 0xF0 }
  - { offset: 0xA7450, size: 0x8, addend: 0x0, symName: '__ZN82_$LT$core..array..iter..IntoIter$LT$T$C$_$GT$$u20$as$u20$core..ops..drop..Drop$GT$4drop17h22e46d987d88bf8dE', symObjAddr: 0x8070, symBinAddr: 0x407C0, symSize: 0x20 }
  - { offset: 0xA74A1, size: 0x8, addend: 0x0, symName: '__ZN82_$LT$core..array..iter..IntoIter$LT$T$C$_$GT$$u20$as$u20$core..ops..drop..Drop$GT$4drop17hfc25c6d655ebf0e5E', symObjAddr: 0x8090, symBinAddr: 0x407E0, symSize: 0x20 }
  - { offset: 0xA74F8, size: 0x8, addend: 0x0, symName: '__ZN99_$LT$core..array..iter..IntoIter$LT$T$C$_$GT$$u20$as$u20$core..iter..traits..iterator..Iterator$GT$4next17h22f7865f710cc407E', symObjAddr: 0x86B0, symBinAddr: 0x40CF0, symSize: 0x20 }
  - { offset: 0xA752D, size: 0x8, addend: 0x0, symName: '__ZN99_$LT$core..array..iter..IntoIter$LT$T$C$_$GT$$u20$as$u20$core..iter..traits..iterator..Iterator$GT$4next17h5de48686c9d58f44E', symObjAddr: 0x86D0, symBinAddr: 0x40D10, symSize: 0x1C }
  - { offset: 0xA75FF, size: 0x8, addend: 0x0, symName: '__ZN104_$LT$core..ops..index_range..IndexRange$u20$as$u20$core..slice..index..SliceIndex$LT$$u5b$T$u5d$$GT$$GT$17get_unchecked_mut18precondition_check17h1a722dcae374435cE', symObjAddr: 0x0, symBinAddr: 0x3D590, symSize: 0x50 }
  - { offset: 0xA765E, size: 0x8, addend: 0x0, symName: '__ZN75_$LT$usize$u20$as$u20$core..slice..index..SliceIndex$LT$$u5b$T$u5d$$GT$$GT$13get_unchecked18precondition_check17hff158e0c32ddeb45E', symObjAddr: 0x7FC0, symBinAddr: 0x40720, symSize: 0x50 }
  - { offset: 0xA76B7, size: 0x8, addend: 0x0, symName: '__ZN75_$LT$usize$u20$as$u20$core..slice..index..SliceIndex$LT$$u5b$T$u5d$$GT$$GT$17get_unchecked_mut18precondition_check17h0b970b2ab8bead71E', symObjAddr: 0x8010, symBinAddr: 0x40770, symSize: 0x50 }
  - { offset: 0xA7FCC, size: 0x8, addend: 0x0, symName: __ZN4core3cmp9PartialEq2ne17h3d63f45d93c4a026E, symObjAddr: 0xB00, symBinAddr: 0x3DA30, symSize: 0x20 }
  - { offset: 0xA8180, size: 0x8, addend: 0x0, symName: __ZN4core4iter6traits8iterator8Iterator3map17hd67f67347356ded1E, symObjAddr: 0xB20, symBinAddr: 0x3DA50, symSize: 0x40 }
  - { offset: 0xA81EE, size: 0x8, addend: 0x0, symName: __ZN4core4iter6traits8iterator8Iterator8try_fold17h458bf87ccaab8371E, symObjAddr: 0xB60, symBinAddr: 0x3DA90, symSize: 0x1A0 }
  - { offset: 0xA82AA, size: 0x8, addend: 0x0, symName: __ZN4core4iter6traits8iterator8Iterator9enumerate17h14c15fde2036385eE, symObjAddr: 0xD00, symBinAddr: 0x3DC30, symSize: 0x30 }
  - { offset: 0xA82F6, size: 0x8, addend: 0x0, symName: __ZN4core4iter6traits8iterator8Iterator9enumerate17h4b48a15d6312805fE, symObjAddr: 0xD30, symBinAddr: 0x3DC60, symSize: 0x30 }
  - { offset: 0xA85D8, size: 0x8, addend: 0x0, symName: '__ZN50_$LT$T$u20$as$u20$core..convert..Into$LT$U$GT$$GT$4into17h9409de409dc39357E', symObjAddr: 0x70B0, symBinAddr: 0x402C0, symSize: 0x20 }
  - { offset: 0xA8926, size: 0x8, addend: 0x0, symName: '__ZN4pyo33err5PyErr3new28_$u7b$$u7b$closure$u7d$$u7d$17h23d9958fb384e682E', symObjAddr: 0x3970, symBinAddr: 0x3EBD0, symSize: 0xD0 }
  - { offset: 0xA897F, size: 0x8, addend: 0x0, symName: '__ZN4pyo33err5PyErr3new28_$u7b$$u7b$closure$u7d$$u7d$17h2dd377f0e4439140E', symObjAddr: 0x3AF0, symBinAddr: 0x3ECA0, symSize: 0xB0 }
  - { offset: 0xA89D7, size: 0x8, addend: 0x0, symName: '__ZN4pyo33err5PyErr3new28_$u7b$$u7b$closure$u7d$$u7d$17h341a8e34a38ee473E', symObjAddr: 0x3BA0, symBinAddr: 0x3ED50, symSize: 0xD0 }
  - { offset: 0xA8A30, size: 0x8, addend: 0x0, symName: '__ZN4pyo33err5PyErr3new28_$u7b$$u7b$closure$u7d$$u7d$17h546cae5237b213deE', symObjAddr: 0x3F30, symBinAddr: 0x3EE20, symSize: 0xB0 }
  - { offset: 0xA8A88, size: 0x8, addend: 0x0, symName: '__ZN4pyo33err5PyErr3new28_$u7b$$u7b$closure$u7d$$u7d$17h5e251f5b6ff7ac19E', symObjAddr: 0x3FE0, symBinAddr: 0x3EED0, symSize: 0xB0 }
  - { offset: 0xA8AE0, size: 0x8, addend: 0x0, symName: '__ZN4pyo33err5PyErr3new28_$u7b$$u7b$closure$u7d$$u7d$17h622abdc7fd690964E', symObjAddr: 0x4090, symBinAddr: 0x3EF80, symSize: 0xD0 }
  - { offset: 0xA8B39, size: 0x8, addend: 0x0, symName: '__ZN4pyo33err5PyErr3new28_$u7b$$u7b$closure$u7d$$u7d$17h65dd31b000d9b4f9E', symObjAddr: 0x4160, symBinAddr: 0x3F050, symSize: 0xD0 }
  - { offset: 0xA8B92, size: 0x8, addend: 0x0, symName: '__ZN4pyo33err5PyErr3new28_$u7b$$u7b$closure$u7d$$u7d$17h858a9057e5ef9a73E', symObjAddr: 0x4370, symBinAddr: 0x3F120, symSize: 0xD0 }
  - { offset: 0xA8BEB, size: 0x8, addend: 0x0, symName: '__ZN4pyo33err5PyErr3new28_$u7b$$u7b$closure$u7d$$u7d$17h91770790fa6682a3E', symObjAddr: 0x44F0, symBinAddr: 0x3F1F0, symSize: 0xD0 }
  - { offset: 0xA8C44, size: 0x8, addend: 0x0, symName: '__ZN4pyo33err5PyErr3new28_$u7b$$u7b$closure$u7d$$u7d$17haf7009416cc4da72E', symObjAddr: 0x47C0, symBinAddr: 0x3F2C0, symSize: 0xB0 }
  - { offset: 0xA8CA2, size: 0x8, addend: 0x0, symName: '__ZN4pyo33err5PyErr16write_unraisable28_$u7b$$u7b$closure$u7d$$u7d$17hf6291b92a97d62a1E', symObjAddr: 0x2130, symBinAddr: 0x3E320, symSize: 0x20 }
  - { offset: 0xA8CE8, size: 0x8, addend: 0x0, symName: '__ZN4pyo33err5PyErr5_take28_$u7b$$u7b$closure$u7d$$u7d$17hc00cfd0cb821d4b3E', symObjAddr: 0x57F0, symBinAddr: 0x3F8A0, symSize: 0x30 }
  - { offset: 0xA8D12, size: 0x8, addend: 0x0, symName: '__ZN4pyo33err5PyErr5_take28_$u7b$$u7b$closure$u7d$$u7d$17he4ef82cbd0a16b35E', symObjAddr: 0x5820, symBinAddr: 0x3F8D0, symSize: 0x40 }
  - { offset: 0xA8D4B, size: 0x8, addend: 0x0, symName: '__ZN4pyo33err5PyErr5_take28_$u7b$$u7b$closure$u7d$$u7d$17hebbfbefb3293bc05E', symObjAddr: 0x5860, symBinAddr: 0x3F910, symSize: 0x40 }
  - { offset: 0xA8DBB, size: 0x8, addend: 0x0, symName: '__ZN4pyo33err5PyErr8new_type28_$u7b$$u7b$closure$u7d$$u7d$17hdc6965e830dc0ba4E', symObjAddr: 0x5EB0, symBinAddr: 0x3FEC0, symSize: 0x50 }
  - { offset: 0xA8E01, size: 0x8, addend: 0x0, symName: '__ZN4pyo33err5PyErr9set_cause28_$u7b$$u7b$closure$u7d$$u7d$17hfcf8a557eda99f01E', symObjAddr: 0x6100, symBinAddr: 0x40110, symSize: 0x40 }
  - { offset: 0xA993A, size: 0x8, addend: 0x0, symName: __ZN4pyo33err17error_on_minusone17h0c0d0a12172d7243E, symObjAddr: 0xF20, symBinAddr: 0x3DD10, symSize: 0xB0 }
  - { offset: 0xA998D, size: 0x8, addend: 0x0, symName: __ZN4pyo33err17error_on_minusone17hb9a3f0047a0bfc99E, symObjAddr: 0xFD0, symBinAddr: 0x3DDC0, symSize: 0xB0 }
  - { offset: 0xA99DF, size: 0x8, addend: 0x0, symName: __ZN4pyo33err17panic_after_error17h2229fb62909f7a0fE, symObjAddr: 0x1080, symBinAddr: 0x3DE70, symSize: 0x30 }
  - { offset: 0xA9A1F, size: 0x8, addend: 0x0, symName: '__ZN4pyo33err5impls101_$LT$impl$u20$core..convert..From$LT$alloc..ffi..c_str..NulError$GT$$u20$for$u20$pyo3..err..PyErr$GT$4from17hf3ec24d36f43b8fdE', symObjAddr: 0x6160, symBinAddr: 0x40170, symSize: 0x50 }
  - { offset: 0xA9A53, size: 0x8, addend: 0x0, symName: '__ZN53_$LT$pyo3..err..PyErr$u20$as$u20$core..fmt..Debug$GT$3fmt17h18b5776571e7bf71E', symObjAddr: 0x7190, symBinAddr: 0x402E0, symSize: 0x30 }
  - { offset: 0xA9A95, size: 0x8, addend: 0x0, symName: '__ZN53_$LT$pyo3..err..PyErr$u20$as$u20$core..fmt..Debug$GT$3fmt28_$u7b$$u7b$closure$u7d$$u7d$17h136f0e0c08590928E', symObjAddr: 0x71C0, symBinAddr: 0x40310, symSize: 0xD0 }
  - { offset: 0xA9AFA, size: 0x8, addend: 0x0, symName: '__ZN90_$LT$pyo3..err..PyErr$u20$as$u20$core..convert..From$LT$pyo3..err..PyDowncastError$GT$$GT$4from17h687c35ffd96fde46E', symObjAddr: 0x8270, symBinAddr: 0x408F0, symSize: 0x110 }
  - { offset: 0xA9B4E, size: 0x8, addend: 0x0, symName: '__ZN92_$LT$pyo3..err..PyDowncastErrorArguments$u20$as$u20$pyo3..err..err_state..PyErrArguments$GT$9arguments17hc0bca3bf376bd21fE', symObjAddr: 0x8380, symBinAddr: 0x40A00, symSize: 0x1D0 }
  - { offset: 0xA9F83, size: 0x8, addend: 0x0, symName: '__ZN4pyo36pycell101_$LT$impl$u20$core..convert..From$LT$pyo3..pycell..PyBorrowError$GT$$u20$for$u20$pyo3..err..PyErr$GT$4from17hcf51f674d04a94c0E', symObjAddr: 0x6F50, symBinAddr: 0x401C0, symSize: 0x40 }
  - { offset: 0xA9FC3, size: 0x8, addend: 0x0, symName: '__ZN4pyo36pycell104_$LT$impl$u20$core..convert..From$LT$pyo3..pycell..PyBorrowMutError$GT$$u20$for$u20$pyo3..err..PyErr$GT$4from17hafb644ab4e87a39dE', symObjAddr: 0x6F90, symBinAddr: 0x40200, symSize: 0x40 }
  - { offset: 0xAA047, size: 0x8, addend: 0x0, symName: '__ZN72_$LT$pyo3..pycell..impl_..BorrowFlag$u20$as$u20$core..cmp..PartialEq$GT$2eq17h4a1c272ca1459cf5E', symObjAddr: 0x7C80, symBinAddr: 0x40700, symSize: 0x20 }
  - { offset: 0xAA087, size: 0x8, addend: 0x0, symName: '__ZN96_$LT$pyo3..pycell..impl_..BorrowChecker$u20$as$u20$pyo3..pycell..impl_..PyClassBorrowChecker$GT$10try_borrow17hdfcf701f5099168aE', symObjAddr: 0x8550, symBinAddr: 0x40BD0, symSize: 0x60 }
  - { offset: 0xAA0D0, size: 0x8, addend: 0x0, symName: '__ZN96_$LT$pyo3..pycell..impl_..BorrowChecker$u20$as$u20$pyo3..pycell..impl_..PyClassBorrowChecker$GT$14release_borrow17hefd1d8af6cdf6de5E', symObjAddr: 0x85B0, symBinAddr: 0x40C30, symSize: 0x40 }
  - { offset: 0xAA115, size: 0x8, addend: 0x0, symName: '__ZN96_$LT$pyo3..pycell..impl_..BorrowChecker$u20$as$u20$pyo3..pycell..impl_..PyClassBorrowChecker$GT$14try_borrow_mut17h0cdbcd1e631aff4aE', symObjAddr: 0x85F0, symBinAddr: 0x40C70, symSize: 0x60 }
  - { offset: 0xAA15E, size: 0x8, addend: 0x0, symName: '__ZN96_$LT$pyo3..pycell..impl_..BorrowChecker$u20$as$u20$pyo3..pycell..impl_..PyClassBorrowChecker$GT$18release_borrow_mut17h5189d6c498e91781E', symObjAddr: 0x8650, symBinAddr: 0x40CD0, symSize: 0x20 }
  - { offset: 0xAA53A, size: 0x8, addend: 0x0, symName: '__ZN105_$LT$std..collections..hash..map..Iter$LT$K$C$V$GT$$u20$as$u20$core..iter..traits..iterator..Iterator$GT$4next17h5ddf322a191ff4e9E', symObjAddr: 0x50, symBinAddr: 0x3D5E0, symSize: 0x20 }
  - { offset: 0xAA57A, size: 0x8, addend: 0x0, symName: '__ZN105_$LT$std..collections..hash..map..Iter$LT$K$C$V$GT$$u20$as$u20$core..iter..traits..iterator..Iterator$GT$9size_hint17h40305e365d13a0e4E', symObjAddr: 0x70, symBinAddr: 0x3D600, symSize: 0x20 }
  - { offset: 0xAB0FD, size: 0x8, addend: 0x0, symName: '__ZN3std11collections4hash3map18Entry$LT$K$C$V$GT$10or_default17h6b11ae7f902d24c1E', symObjAddr: 0x1C0, symBinAddr: 0x3D620, symSize: 0x230 }
  - { offset: 0xAB35B, size: 0x8, addend: 0x0, symName: '__ZN3std11collections4hash3map20HashMap$LT$K$C$V$GT$3new17h8b4ad10c034c5982E', symObjAddr: 0x3F0, symBinAddr: 0x3D850, symSize: 0xA0 }
  - { offset: 0xAB475, size: 0x8, addend: 0x0, symName: '__ZN3std11collections4hash3map24HashMap$LT$K$C$V$C$S$GT$3len17hbe47fbea66c91c27E', symObjAddr: 0x490, symBinAddr: 0x3D8F0, symSize: 0x10 }
  - { offset: 0xAB516, size: 0x8, addend: 0x0, symName: '__ZN3std11collections4hash3map24HashMap$LT$K$C$V$C$S$GT$4iter17h9bc4368a1eb6d06aE', symObjAddr: 0x4A0, symBinAddr: 0x3D900, symSize: 0x40 }
  - { offset: 0xAB561, size: 0x8, addend: 0x0, symName: '__ZN3std11collections4hash3map24HashMap$LT$K$C$V$C$S$GT$5entry17he5305a5238e00679E', symObjAddr: 0x4E0, symBinAddr: 0x3D940, symSize: 0xF0 }
  - { offset: 0xAB6FF, size: 0x8, addend: 0x0, symName: __ZN4pyo33err15PyDowncastError3new17h9632792f1c7e94c6E, symObjAddr: 0xEA0, symBinAddr: 0x3DC90, symSize: 0x80 }
  - { offset: 0xAB754, size: 0x8, addend: 0x0, symName: __ZN4pyo33err5PyErr10from_state17h34957bad701c8c42E, symObjAddr: 0x10B0, symBinAddr: 0x3DEA0, symSize: 0x70 }
  - { offset: 0xAB795, size: 0x8, addend: 0x0, symName: __ZN4pyo33err5PyErr10from_value17hd76cdd9f1a8ea1cdE, symObjAddr: 0x1120, symBinAddr: 0x3DF10, symSize: 0x150 }
  - { offset: 0xAB7EA, size: 0x8, addend: 0x0, symName: __ZN4pyo33err5PyErr10into_value17hb954eb6b742976d1E, symObjAddr: 0x1270, symBinAddr: 0x3E060, symSize: 0x120 }
  - { offset: 0xAB872, size: 0x8, addend: 0x0, symName: __ZN4pyo33err5PyErr10normalized17h428f0c846eacd510E, symObjAddr: 0x1390, symBinAddr: 0x3E180, symSize: 0xB0 }
  - { offset: 0xAB8CD, size: 0x8, addend: 0x0, symName: __ZN4pyo33err5PyErr11is_instance17h8c8ce5d924922d36E, symObjAddr: 0x1440, symBinAddr: 0x3E230, symSize: 0x50 }
  - { offset: 0xAB91A, size: 0x8, addend: 0x0, symName: __ZN4pyo33err5PyErr14is_instance_of17ha157ed1f9b8e5f85E, symObjAddr: 0x1C80, symBinAddr: 0x3E280, symSize: 0x40 }
  - { offset: 0xAB997, size: 0x8, addend: 0x0, symName: __ZN4pyo33err5PyErr15make_normalized17h96d8e1a13d2085c2E, symObjAddr: 0x1E00, symBinAddr: 0xA5AC0, symSize: 0x2D0 }
  - { offset: 0xABA20, size: 0x8, addend: 0x0, symName: __ZN4pyo33err5PyErr16write_unraisable17h21270c21d831be17E, symObjAddr: 0x20D0, symBinAddr: 0x3E2C0, symSize: 0x60 }
  - { offset: 0xABA7B, size: 0x8, addend: 0x0, symName: __ZN4pyo33err5PyErr22print_panic_and_unwind17h49d0b93008ba3a8fE, symObjAddr: 0x2150, symBinAddr: 0x3E340, symSize: 0x1D0 }
  - { offset: 0xABAF5, size: 0x8, addend: 0x0, symName: __ZN4pyo33err5PyErr3new17h4267a433437ba9feE, symObjAddr: 0x2790, symBinAddr: 0x3E510, symSize: 0xB0 }
  - { offset: 0xABB54, size: 0x8, addend: 0x0, symName: __ZN4pyo33err5PyErr3new17h5bec8e6d21be57b1E, symObjAddr: 0x2AF0, symBinAddr: 0x3E5C0, symSize: 0xA0 }
  - { offset: 0xABBB2, size: 0x8, addend: 0x0, symName: __ZN4pyo33err5PyErr3new17h5c242be70ecc78a4E, symObjAddr: 0x2B90, symBinAddr: 0x3E660, symSize: 0xB0 }
  - { offset: 0xABC11, size: 0x8, addend: 0x0, symName: __ZN4pyo33err5PyErr3new17h6dfb46f52b4740c8E, symObjAddr: 0x2D60, symBinAddr: 0x3E710, symSize: 0xA0 }
  - { offset: 0xABC6F, size: 0x8, addend: 0x0, symName: __ZN4pyo33err5PyErr3new17h83d3509589220ca9E, symObjAddr: 0x2FB0, symBinAddr: 0x3E7B0, symSize: 0xC0 }
  - { offset: 0xABCCE, size: 0x8, addend: 0x0, symName: __ZN4pyo33err5PyErr3new17hadcaf97960e1e3feE, symObjAddr: 0x31B0, symBinAddr: 0x3E870, symSize: 0xC0 }
  - { offset: 0xABD2D, size: 0x8, addend: 0x0, symName: __ZN4pyo33err5PyErr3new17hc50f432c508216f0E, symObjAddr: 0x34C0, symBinAddr: 0x3E930, symSize: 0xA0 }
  - { offset: 0xABD8B, size: 0x8, addend: 0x0, symName: __ZN4pyo33err5PyErr3new17heec1d4cc5231b659E, symObjAddr: 0x3560, symBinAddr: 0x3E9D0, symSize: 0xA0 }
  - { offset: 0xABDE9, size: 0x8, addend: 0x0, symName: __ZN4pyo33err5PyErr3new17hf0d55375c178eb46E, symObjAddr: 0x3690, symBinAddr: 0x3EA70, symSize: 0xB0 }
  - { offset: 0xABE48, size: 0x8, addend: 0x0, symName: __ZN4pyo33err5PyErr3new17hf351eb3e59dbf00eE, symObjAddr: 0x3740, symBinAddr: 0x3EB20, symSize: 0xB0 }
  - { offset: 0xABE9A, size: 0x8, addend: 0x0, symName: __ZN4pyo33err5PyErr4take17h588ef574ebf58a5eE, symObjAddr: 0x50D0, symBinAddr: 0x3F370, symSize: 0x20 }
  - { offset: 0xABEC9, size: 0x8, addend: 0x0, symName: __ZN4pyo33err5PyErr5_take17h6ff8ac5436d8d743E, symObjAddr: 0x52E0, symBinAddr: 0x3F390, symSize: 0x510 }
  - { offset: 0xAC01A, size: 0x8, addend: 0x0, symName: __ZN4pyo33err5PyErr5cause17h91f754425505e56dE, symObjAddr: 0x58A0, symBinAddr: 0x3F950, symSize: 0x70 }
  - { offset: 0xAC094, size: 0x8, addend: 0x0, symName: __ZN4pyo33err5PyErr5fetch17h9ad14ff2dd23874fE, symObjAddr: 0x5910, symBinAddr: 0x3F9C0, symSize: 0x70 }
  - { offset: 0xAC0C3, size: 0x8, addend: 0x0, symName: __ZN4pyo33err5PyErr5print17he140e602844e91baE, symObjAddr: 0x5980, symBinAddr: 0x3FA30, symSize: 0x30 }
  - { offset: 0xAC10E, size: 0x8, addend: 0x0, symName: __ZN4pyo33err5PyErr5value17he5c9ae02b863ea43E, symObjAddr: 0x59B0, symBinAddr: 0x3FA60, symSize: 0x30 }
  - { offset: 0xAC165, size: 0x8, addend: 0x0, symName: __ZN4pyo33err5PyErr7restore17hf1ff98de07fb98b1E, symObjAddr: 0x5A80, symBinAddr: 0x3FA90, symSize: 0x80 }
  - { offset: 0xAC1CF, size: 0x8, addend: 0x0, symName: __ZN4pyo33err5PyErr8get_type17h0e54703c49273834E, symObjAddr: 0x5B00, symBinAddr: 0x3FB10, symSize: 0x20 }
  - { offset: 0xAC217, size: 0x8, addend: 0x0, symName: __ZN4pyo33err5PyErr8new_type17hfaa8dc0cf0cc27d8E, symObjAddr: 0x5B20, symBinAddr: 0x3FB30, symSize: 0x390 }
  - { offset: 0xAC398, size: 0x8, addend: 0x0, symName: __ZN4pyo33err5PyErr9clone_ref17h40049afe2a1b95faE, symObjAddr: 0x5F00, symBinAddr: 0x3FF10, symSize: 0x70 }
  - { offset: 0xAC3D6, size: 0x8, addend: 0x0, symName: __ZN4pyo33err5PyErr9set_cause17h602b3ba4df4f68ecE, symObjAddr: 0x5F70, symBinAddr: 0x3FF80, symSize: 0x190 }
  - { offset: 0xAC467, size: 0x8, addend: 0x0, symName: __ZN4pyo33err5PyErr9traceback17h644f276e0028394bE, symObjAddr: 0x6140, symBinAddr: 0x40150, symSize: 0x20 }
  - { offset: 0xAC4DA, size: 0x8, addend: 0x0, symName: __ZN4pyo36pycell5impl_10BorrowFlag9decrement17h3b1ea34e44064a77E, symObjAddr: 0x6FD0, symBinAddr: 0x40240, symSize: 0x40 }
  - { offset: 0xAC4FC, size: 0x8, addend: 0x0, symName: __ZN4pyo36pycell5impl_10BorrowFlag9increment17hfc39f1811bb52855E, symObjAddr: 0x7010, symBinAddr: 0x40280, symSize: 0x40 }
  - { offset: 0xAC6B6, size: 0x8, addend: 0x0, symName: __ZN5alloc5alloc6Global10alloc_impl17he459e3472282902dE, symObjAddr: 0x7670, symBinAddr: 0x40490, symSize: 0x1F0 }
  - { offset: 0xACE28, size: 0x8, addend: 0x0, symName: '__ZN3std3sys12thread_local6native5eager16Storage$LT$T$GT$10initialize17h2ec9c467c3d5f984E', symObjAddr: 0x0, symBinAddr: 0xA5D90, symSize: 0x40 }
  - { offset: 0xACE57, size: 0x8, addend: 0x0, symName: '__ZN9hashbrown3raw21RawTable$LT$T$C$A$GT$14reserve_rehash28_$u7b$$u7b$closure$u7d$$u7d$17h95cfae7770d1cabcE', symObjAddr: 0x2F80, symBinAddr: 0x42F00, symSize: 0xA0 }
  - { offset: 0xAD03B, size: 0x8, addend: 0x0, symName: '__ZN9hashbrown3raw21RawTable$LT$T$C$A$GT$4find28_$u7b$$u7b$closure$u7d$$u7d$17h495b10e327dd0f9eE', symObjAddr: 0x3480, symBinAddr: 0x43400, symSize: 0xA0 }
  - { offset: 0xAD81D, size: 0x8, addend: 0x0, symName: '__ZN79_$LT$hashbrown..raw..RawTable$LT$T$C$A$GT$$u20$as$u20$core..ops..drop..Drop$GT$4drop17h848114d8b6994224E', symObjAddr: 0x280, symBinAddr: 0x40EF0, symSize: 0x30 }
  - { offset: 0xADA32, size: 0x8, addend: 0x0, symName: '__ZN9hashbrown3raw13RawTableInner14prepare_resize28_$u7b$$u7b$closure$u7d$$u7d$17h45561b600d2ccf7dE', symObjAddr: 0x6E0, symBinAddr: 0x412C0, symSize: 0xB0 }
  - { offset: 0xADC0B, size: 0x8, addend: 0x0, symName: '__ZN9hashbrown3raw13RawTableInner15rehash_in_place28_$u7b$$u7b$closure$u7d$$u7d$17h0ab550f5ac54365fE', symObjAddr: 0xC10, symBinAddr: 0x417F0, symSize: 0x1F0 }
  - { offset: 0xAE036, size: 0x8, addend: 0x0, symName: __ZN9hashbrown3raw19capacity_to_buckets17h409bc4e2ea9a113bE, symObjAddr: 0x1B40, symBinAddr: 0x42720, symSize: 0x370 }
  - { offset: 0xAEAE1, size: 0x8, addend: 0x0, symName: __ZN3std3sys12thread_local6native5eager7destroy17hb8c0e0df5dda5ac0E, symObjAddr: 0xA0, symBinAddr: 0x40D90, symSize: 0x30 }
  - { offset: 0xAEB17, size: 0x8, addend: 0x0, symName: '__ZN3std3sys12thread_local6native5eager7destroy28_$u7b$$u7b$closure$u7d$$u7d$17h9a7b3b7956558c7fE', symObjAddr: 0xD0, symBinAddr: 0x40DC0, symSize: 0x30 }
  - { offset: 0xB1396, size: 0x8, addend: 0x0, symName: '__ZN4core3fmt3num52_$LT$impl$u20$core..fmt..Debug$u20$for$u20$usize$GT$3fmt17hc02e4b4d18bab1bcE', symObjAddr: 0x180, symBinAddr: 0x40DF0, symSize: 0x80 }
  - { offset: 0xB1455, size: 0x8, addend: 0x0, symName: __ZN4core4char7convert18from_u32_unchecked18precondition_check17hb4b064650ec49352E, symObjAddr: 0x200, symBinAddr: 0x40E70, symSize: 0x60 }
  - { offset: 0xB14EB, size: 0x8, addend: 0x0, symName: '__ZN4core7convert3num18ptr_try_from_impls69_$LT$impl$u20$core..convert..TryFrom$LT$i64$GT$$u20$for$u20$isize$GT$8try_from17hfddb61aeabf541bcE', symObjAddr: 0x260, symBinAddr: 0x40ED0, symSize: 0x10 }
  - { offset: 0xB151F, size: 0x8, addend: 0x0, symName: '__ZN4core7convert3num18ptr_try_from_impls69_$LT$impl$u20$core..convert..TryFrom$LT$u64$GT$$u20$for$u20$usize$GT$8try_from17hdf46aa201054709fE', symObjAddr: 0x270, symBinAddr: 0x40EE0, symSize: 0x10 }
  - { offset: 0xB1D6B, size: 0x8, addend: 0x0, symName: __ZN8pyo3_ffi10dictobject12PyDict_Check17h13248f3bf59d621bE, symObjAddr: 0x2B0, symBinAddr: 0x40F20, symSize: 0x30 }
  - { offset: 0xB1D9D, size: 0x8, addend: 0x0, symName: __ZN8pyo3_ffi10modsupport15PyModule_Create17h45b000aea641cd32E, symObjAddr: 0x370, symBinAddr: 0x40F50, symSize: 0x20 }
  - { offset: 0xB1DCF, size: 0x8, addend: 0x0, symName: __ZN8pyo3_ffi7objimpl12PyType_IS_GC17h7af8c1ab2cd195e6E, symObjAddr: 0x390, symBinAddr: 0x40F70, symSize: 0x20 }
  - { offset: 0xB216E, size: 0x8, addend: 0x0, symName: '__ZN3std3sys12thread_local6native5eager16Storage$LT$T$GT$10initialize17h2ec9c467c3d5f984E', symObjAddr: 0x0, symBinAddr: 0xA5D90, symSize: 0x40 }
  - { offset: 0xB2224, size: 0x8, addend: 0x0, symName: '__ZN3std3sys12thread_local6native5eager16Storage$LT$T$GT$3get17h7cab621285c5484fE', symObjAddr: 0x40, symBinAddr: 0x40D30, symSize: 0x60 }
  - { offset: 0xB23C2, size: 0x8, addend: 0x0, symName: __ZN9hashbrown3raw11TableLayout20calculate_layout_for17hc60330a022a91fbcE, symObjAddr: 0x3B0, symBinAddr: 0x40F90, symSize: 0x2F0 }
  - { offset: 0xB275F, size: 0x8, addend: 0x0, symName: __ZN9hashbrown3raw13RawTableInner13drop_elements17had45abcaa75f5178E, symObjAddr: 0x6A0, symBinAddr: 0x41280, symSize: 0x40 }
  - { offset: 0xB2BBC, size: 0x8, addend: 0x0, symName: __ZN9hashbrown3raw13RawTableInner15rehash_in_place17h34b6f5612dbc4b2eE, symObjAddr: 0x790, symBinAddr: 0x41370, symSize: 0x480 }
  - { offset: 0xB340A, size: 0x8, addend: 0x0, symName: __ZN9hashbrown3raw13RawTableInner16drop_inner_table17h0dc1cf8f4168eccaE, symObjAddr: 0xE00, symBinAddr: 0x419E0, symSize: 0xC0 }
  - { offset: 0xB36EB, size: 0x8, addend: 0x0, symName: __ZN9hashbrown3raw13RawTableInner16fix_insert_index17h24ad68f3e230524cE, symObjAddr: 0xEC0, symBinAddr: 0x41AA0, symSize: 0x100 }
  - { offset: 0xB3970, size: 0x8, addend: 0x0, symName: __ZN9hashbrown3raw13RawTableInner17find_insert_index17h70df27da898234e8E, symObjAddr: 0xFC0, symBinAddr: 0x41BA0, symSize: 0xF0 }
  - { offset: 0xB3B72, size: 0x8, addend: 0x0, symName: __ZN9hashbrown3raw13RawTableInner17new_uninitialized17hccc7e6ec3709606cE, symObjAddr: 0x10B0, symBinAddr: 0x41C90, symSize: 0x340 }
  - { offset: 0xB3DC7, size: 0x8, addend: 0x0, symName: __ZN9hashbrown3raw13RawTableInner22fallible_with_capacity17h01d91b192d5df042E, symObjAddr: 0x13F0, symBinAddr: 0x41FD0, symSize: 0x3B0 }
  - { offset: 0xB4273, size: 0x8, addend: 0x0, symName: __ZN9hashbrown3raw13RawTableInner23prepare_rehash_in_place17h313515bb577954a7E, symObjAddr: 0x17A0, symBinAddr: 0x42380, symSize: 0x290 }
  - { offset: 0xB489A, size: 0x8, addend: 0x0, symName: __ZN9hashbrown3raw13RawTableInner26find_insert_index_in_group17h822dde84d9ae3b7cE, symObjAddr: 0x1A30, symBinAddr: 0x42610, symSize: 0x110 }
  - { offset: 0xB4A40, size: 0x8, addend: 0x0, symName: '__ZN9hashbrown3raw21RawIterRange$LT$T$GT$3new17h31c0933801a1d8ffE', symObjAddr: 0x1EB0, symBinAddr: 0x42A90, symSize: 0xC0 }
  - { offset: 0xB4D47, size: 0x8, addend: 0x0, symName: '__ZN9hashbrown3raw21RawIterRange$LT$T$GT$9next_impl17h6976ef9c12ca242eE', symObjAddr: 0x1F70, symBinAddr: 0x42B50, symSize: 0x220 }
  - { offset: 0xB5297, size: 0x8, addend: 0x0, symName: '__ZN9hashbrown3raw21RawTable$LT$T$C$A$GT$14insert_no_grow17hd2fc01b2cf277799E', symObjAddr: 0x2190, symBinAddr: 0x42D70, symSize: 0x190 }
  - { offset: 0xB5B0A, size: 0x8, addend: 0x0, symName: '__ZN9hashbrown3raw21RawTable$LT$T$C$A$GT$14reserve_rehash17hf3e3fe760bccce51E', symObjAddr: 0x2320, symBinAddr: 0xA5DD0, symSize: 0xC60 }
  - { offset: 0xB6914, size: 0x8, addend: 0x0, symName: '__ZN9hashbrown3raw21RawTable$LT$T$C$A$GT$4find17haae42c08b85c5dfbE', symObjAddr: 0x3020, symBinAddr: 0x42FA0, symSize: 0x460 }
  - { offset: 0xB6FA0, size: 0x8, addend: 0x0, symName: '__ZN9hashbrown3raw21RawTable$LT$T$C$A$GT$7reserve17h6467d6161cdba4dbE', symObjAddr: 0x3520, symBinAddr: 0x434A0, symSize: 0x9D }
  - { offset: 0xB7270, size: 0x8, addend: 0x0, symName: '__ZN3std4hash6random11RandomState3new28_$u7b$$u7b$closure$u7d$$u7d$17h83163218b972fb4bE', symObjAddr: 0x1F0, symBinAddr: 0x435F0, symSize: 0x20 }
  - { offset: 0xB732C, size: 0x8, addend: 0x0, symName: __ZN3std4hash6random11RandomState3new4KEYS27__rust_std_internal_init_fn17hadd14f8bcfa6bd1dE, symObjAddr: 0x210, symBinAddr: 0x43610, symSize: 0x20 }
  - { offset: 0xB734E, size: 0x8, addend: 0x0, symName: '__ZN3std4hash6random11RandomState3new4KEYS29_$u7b$$u7b$constant$u7d$$u7d$28_$u7b$$u7b$closure$u7d$$u7d$17h0e0d3104e7e820edE', symObjAddr: 0x230, symBinAddr: 0x43630, symSize: 0x30 }
  - { offset: 0xB739B, size: 0x8, addend: 0x0, symName: '__ZN71_$LT$std..hash..random..DefaultHasher$u20$as$u20$core..hash..Hasher$GT$6finish17hb8dc0334cd375ea1E', symObjAddr: 0x6F50, symBinAddr: 0x44820, symSize: 0x20 }
  - { offset: 0xB73E3, size: 0x8, addend: 0x0, symName: '__ZN71_$LT$std..hash..random..DefaultHasher$u20$as$u20$core..hash..Hasher$GT$9write_str17h9e3e3b6222e5f940E', symObjAddr: 0x6F70, symBinAddr: 0x44840, symSize: 0x20 }
  - { offset: 0xB7443, size: 0x8, addend: 0x0, symName: '__ZN74_$LT$std..hash..random..RandomState$u20$as$u20$core..hash..BuildHasher$GT$12build_hasher17h63d03cc97d6ee53eE', symObjAddr: 0x7100, symBinAddr: 0x44890, symSize: 0xF0 }
  - { offset: 0xB7E41, size: 0x8, addend: 0x0, symName: __ZN4core9panicking13panic_display17h7b6be770d002e3a6E, symObjAddr: 0x4A0, symBinAddr: 0x43860, symSize: 0x70 }
  - { offset: 0xB7F22, size: 0x8, addend: 0x0, symName: '__ZN185_$LT$core..ops..control_flow..ControlFlow$LT$B$C$C$GT$$u20$as$u20$core..ops..try_trait..FromResidual$LT$core..ops..control_flow..ControlFlow$LT$B$C$core..convert..Infallible$GT$$GT$$GT$13from_residual17h16ae909c45e0118dE', symObjAddr: 0x20, symBinAddr: 0x43540, symSize: 0x40 }
  - { offset: 0xB7F61, size: 0x8, addend: 0x0, symName: '__ZN185_$LT$core..ops..control_flow..ControlFlow$LT$B$C$C$GT$$u20$as$u20$core..ops..try_trait..FromResidual$LT$core..ops..control_flow..ControlFlow$LT$B$C$core..convert..Infallible$GT$$GT$$GT$13from_residual17h29d7810a1231493bE', symObjAddr: 0x60, symBinAddr: 0x43580, symSize: 0x20 }
  - { offset: 0xB7F9F, size: 0x8, addend: 0x0, symName: '__ZN185_$LT$core..ops..control_flow..ControlFlow$LT$B$C$C$GT$$u20$as$u20$core..ops..try_trait..FromResidual$LT$core..ops..control_flow..ControlFlow$LT$B$C$core..convert..Infallible$GT$$GT$$GT$13from_residual17h4b82584bbb9d6834E', symObjAddr: 0x80, symBinAddr: 0x435A0, symSize: 0x50 }
  - { offset: 0xB7FE9, size: 0x8, addend: 0x0, symName: __ZN4core3ops12control_flow11ControlFlow5Break17hee6248668cdef184E, symObjAddr: 0x380, symBinAddr: 0x43780, symSize: 0x40 }
  - { offset: 0xB802B, size: 0x8, addend: 0x0, symName: '__ZN95_$LT$core..ops..control_flow..ControlFlow$LT$B$C$C$GT$$u20$as$u20$core..ops..try_trait..Try$GT$11from_output17h37c3a36ec452a198E', symObjAddr: 0x7340, symBinAddr: 0x44A60, symSize: 0x10 }
  - { offset: 0xB8069, size: 0x8, addend: 0x0, symName: '__ZN95_$LT$core..ops..control_flow..ControlFlow$LT$B$C$C$GT$$u20$as$u20$core..ops..try_trait..Try$GT$11from_output17ha28cdc9b84585597E', symObjAddr: 0x7350, symBinAddr: 0x44A70, symSize: 0x10 }
  - { offset: 0xB80A7, size: 0x8, addend: 0x0, symName: '__ZN95_$LT$core..ops..control_flow..ControlFlow$LT$B$C$C$GT$$u20$as$u20$core..ops..try_trait..Try$GT$11from_output17hb523e7f258f2abf3E', symObjAddr: 0x7360, symBinAddr: 0x44A80, symSize: 0x10 }
  - { offset: 0xB80E5, size: 0x8, addend: 0x0, symName: '__ZN95_$LT$core..ops..control_flow..ControlFlow$LT$B$C$C$GT$$u20$as$u20$core..ops..try_trait..Try$GT$6branch17h1e2438fc6627316cE', symObjAddr: 0x7370, symBinAddr: 0x44A90, symSize: 0x80 }
  - { offset: 0xB815F, size: 0x8, addend: 0x0, symName: '__ZN95_$LT$core..ops..control_flow..ControlFlow$LT$B$C$C$GT$$u20$as$u20$core..ops..try_trait..Try$GT$6branch17h4a254b2b6d0df59dE', symObjAddr: 0x73F0, symBinAddr: 0x44B10, symSize: 0x60 }
  - { offset: 0xB81D7, size: 0x8, addend: 0x0, symName: '__ZN95_$LT$core..ops..control_flow..ControlFlow$LT$B$C$C$GT$$u20$as$u20$core..ops..try_trait..Try$GT$6branch17h888da14ea1824f78E', symObjAddr: 0x7450, symBinAddr: 0x44B70, symSize: 0x80 }
  - { offset: 0xB87C5, size: 0x8, addend: 0x0, symName: '__ZN44_$LT$$RF$T$u20$as$u20$core..fmt..Display$GT$3fmt17h2fdb4006456c6e42E', symObjAddr: 0x280, symBinAddr: 0x43680, symSize: 0x20 }
  - { offset: 0xB8955, size: 0x8, addend: 0x0, symName: __ZN4core4hash11BuildHasher8hash_one17h2505349d0ede697cE, symObjAddr: 0x3C0, symBinAddr: 0x437C0, symSize: 0x80 }
  - { offset: 0xBCF54, size: 0x8, addend: 0x0, symName: '__ZN50_$LT$T$u20$as$u20$core..convert..Into$LT$U$GT$$GT$4into17h5094870ec33e67f4E', symObjAddr: 0x65A0, symBinAddr: 0x443E0, symSize: 0x20 }
  - { offset: 0xBCF94, size: 0x8, addend: 0x0, symName: '__ZN50_$LT$T$u20$as$u20$core..convert..Into$LT$U$GT$$GT$4into17h84f87d6fd9d6641fE', symObjAddr: 0x65C0, symBinAddr: 0x44400, symSize: 0x20 }
  - { offset: 0xBCFD4, size: 0x8, addend: 0x0, symName: '__ZN50_$LT$T$u20$as$u20$core..convert..Into$LT$U$GT$$GT$4into17hfb00ceb3a71fbcffE', symObjAddr: 0x65E0, symBinAddr: 0x44420, symSize: 0x20 }
  - { offset: 0xBD086, size: 0x8, addend: 0x0, symName: __ZN4pyo35types3any5PyAny7getattr5inner17had49ab2d125d89b3E, symObjAddr: 0x3620, symBinAddr: 0x43DA0, symSize: 0x40 }
  - { offset: 0xBD0C5, size: 0x8, addend: 0x0, symName: '__ZN4pyo35types3any5PyAny7getattr5inner28_$u7b$$u7b$closure$u7d$$u7d$17hcedc7d97bb455686E', symObjAddr: 0x3660, symBinAddr: 0x43DE0, symSize: 0x80 }
  - { offset: 0xBD108, size: 0x8, addend: 0x0, symName: __ZN4pyo35types3any5PyAny7setattr5inner17h765a61fde2dc96ffE, symObjAddr: 0x3C10, symBinAddr: 0x44070, symSize: 0xE0 }
  - { offset: 0xBE4B5, size: 0x8, addend: 0x0, symName: __ZN4pyo35types3any14PyObject_Check17ha57e3ff63cac2e46E, symObjAddr: 0x23C0, symBinAddr: 0x43A40, symSize: 0x10 }
  - { offset: 0xBE4E2, size: 0x8, addend: 0x0, symName: '__ZN62_$LT$pyo3..types..any..PyAny$u20$as$u20$core..fmt..Display$GT$3fmt17heac3111e8d6491ffE', symObjAddr: 0x6810, symBinAddr: 0x44530, symSize: 0x2F0 }
  - { offset: 0xBE5BC, size: 0x8, addend: 0x0, symName: '__ZN73_$LT$pyo3..types..any..PyAny$u20$as$u20$pyo3..type_object..PyTypeInfo$GT$10is_type_of17hb207f31302264bc3E', symObjAddr: 0x6FB0, symBinAddr: 0x44860, symSize: 0x30 }
  - { offset: 0xBE5EE, size: 0x8, addend: 0x0, symName: '__ZN78_$LT$$RF$pyo3..types..any..PyAny$u20$as$u20$pyo3..conversion..FromPyObject$GT$7extract17h1715f6e4bf7d3155E', symObjAddr: 0x71F0, symBinAddr: 0x44980, symSize: 0x40 }
  - { offset: 0xBE6F2, size: 0x8, addend: 0x0, symName: '__ZN97_$LT$pyo3..types..none..PyNone$u20$as$u20$core..convert..AsRef$LT$pyo3..types..any..PyAny$GT$$GT$6as_ref17he4eb83578a1e49e1E', symObjAddr: 0x74D0, symBinAddr: 0x44BF0, symSize: 0xD }
  - { offset: 0xBEA22, size: 0x8, addend: 0x0, symName: __ZN4pyo38instance12PyNativeType18unchecked_downcast17hf591787327545ee6E, symObjAddr: 0x6500, symBinAddr: 0x44340, symSize: 0x60 }
  - { offset: 0xBEA57, size: 0x8, addend: 0x0, symName: __ZN4pyo38instance12PyNativeType2py17h6efa9a5acc889734E, symObjAddr: 0x6560, symBinAddr: 0x443A0, symSize: 0x20 }
  - { offset: 0xBEA88, size: 0x8, addend: 0x0, symName: __ZN4pyo38instance12PyNativeType2py17h75c1ea243f86219aE, symObjAddr: 0x6580, symBinAddr: 0x443C0, symSize: 0x20 }
  - { offset: 0xBEAC5, size: 0x8, addend: 0x0, symName: '__ZN49_$LT$T$u20$as$u20$pyo3..conversion..PyTryFrom$GT$18try_from_unchecked17h191396e22badbe33E', symObjAddr: 0x2A0, symBinAddr: 0x436A0, symSize: 0x30 }
  - { offset: 0xBEB05, size: 0x8, addend: 0x0, symName: '__ZN49_$LT$T$u20$as$u20$pyo3..conversion..PyTryFrom$GT$8try_from17hf116c143961dd3fcE', symObjAddr: 0x2D0, symBinAddr: 0x436D0, symSize: 0xB0 }
  - { offset: 0xBEB69, size: 0x8, addend: 0x0, symName: __ZN4pyo310conversion13FromPyPointer14from_owned_ptr17he4d271d0bf431049E, symObjAddr: 0x510, symBinAddr: 0x438D0, symSize: 0x20 }
  - { offset: 0xBEBBB, size: 0x8, addend: 0x0, symName: __ZN4pyo310conversion13FromPyPointer17from_borrowed_ptr17h117e64ee890f1cecE, symObjAddr: 0x530, symBinAddr: 0x438F0, symSize: 0x20 }
  - { offset: 0xBEC0D, size: 0x8, addend: 0x0, symName: __ZN4pyo310conversion13FromPyPointer17from_borrowed_ptr17h12bc18cd6932a088E, symObjAddr: 0x550, symBinAddr: 0x43910, symSize: 0x20 }
  - { offset: 0xBEC5F, size: 0x8, addend: 0x0, symName: __ZN4pyo310conversion13FromPyPointer21from_owned_ptr_or_err17hee7335a5fab7eaf8E, symObjAddr: 0x570, symBinAddr: 0x43930, symSize: 0x40 }
  - { offset: 0xBECB1, size: 0x8, addend: 0x0, symName: __ZN4pyo310conversion13FromPyPointer23from_owned_ptr_or_panic17h37c83f85bc7ef134E, symObjAddr: 0x5B0, symBinAddr: 0x43970, symSize: 0x30 }
  - { offset: 0xBED03, size: 0x8, addend: 0x0, symName: __ZN4pyo310conversion13FromPyPointer24from_borrowed_ptr_or_err17hef7c784b32766e38E, symObjAddr: 0x5E0, symBinAddr: 0x439A0, symSize: 0x40 }
  - { offset: 0xBED55, size: 0x8, addend: 0x0, symName: __ZN4pyo310conversion13FromPyPointer26from_borrowed_ptr_or_panic17h433a3f347451a772E, symObjAddr: 0x620, symBinAddr: 0x439E0, symSize: 0x30 }
  - { offset: 0xBEDA7, size: 0x8, addend: 0x0, symName: __ZN4pyo310conversion13FromPyPointer26from_borrowed_ptr_or_panic17hec4305914919f3d5E, symObjAddr: 0x650, symBinAddr: 0x43A10, symSize: 0x30 }
  - { offset: 0xBEDFF, size: 0x8, addend: 0x0, symName: '__ZN53_$LT$T$u20$as$u20$pyo3..conversion..FromPyPointer$GT$21from_owned_ptr_or_opt17h03996cfc2a106fdeE', symObjAddr: 0x6600, symBinAddr: 0x44440, symSize: 0xB0 }
  - { offset: 0xBEE6F, size: 0x8, addend: 0x0, symName: '__ZN53_$LT$T$u20$as$u20$pyo3..conversion..FromPyPointer$GT$24from_borrowed_ptr_or_opt17h1e42dbb27cdcdcdbE', symObjAddr: 0x66B0, symBinAddr: 0x444F0, symSize: 0x20 }
  - { offset: 0xBEEC1, size: 0x8, addend: 0x0, symName: '__ZN53_$LT$T$u20$as$u20$pyo3..conversion..FromPyPointer$GT$24from_borrowed_ptr_or_opt17haa69a8210d6b78e4E', symObjAddr: 0x66D0, symBinAddr: 0x44510, symSize: 0x20 }
  - { offset: 0xBFBDE, size: 0x8, addend: 0x0, symName: __ZN3std6thread6thread6Thread2id17h57f0e1aded280752E, symObjAddr: 0x260, symBinAddr: 0x43660, symSize: 0x20 }
  - { offset: 0xBFC8D, size: 0x8, addend: 0x0, symName: __ZN4core9core_arch3x867__m128i8as_i8x1617h7beb4a0ef7c2d6feE, symObjAddr: 0x440, symBinAddr: 0x43840, symSize: 0x11 }
  - { offset: 0xBFE69, size: 0x8, addend: 0x0, symName: __ZN4pyo35types3any5PyAny18downcast_unchecked17haf2ccacff70a0b99E, symObjAddr: 0x26D0, symBinAddr: 0x43A50, symSize: 0x20 }
  - { offset: 0xBFEAF, size: 0x8, addend: 0x0, symName: __ZN4pyo35types3any5PyAny2is17h333199da5615b9c1E, symObjAddr: 0x2710, symBinAddr: 0x43A70, symSize: 0x40 }
  - { offset: 0xBFEE8, size: 0x8, addend: 0x0, symName: __ZN4pyo35types3any5PyAny2py17h1c1af2f51496ec06E, symObjAddr: 0x2750, symBinAddr: 0x43AB0, symSize: 0x20 }
  - { offset: 0xBFF25, size: 0x8, addend: 0x0, symName: __ZN4pyo35types3any5PyAny3str17h0fb9e295dce7b681E, symObjAddr: 0x28C0, symBinAddr: 0x43AD0, symSize: 0x50 }
  - { offset: 0xBFFAD, size: 0x8, addend: 0x0, symName: __ZN4pyo35types3any5PyAny4iter17ha5a09fb09ae6605eE, symObjAddr: 0x2F90, symBinAddr: 0x43B20, symSize: 0x30 }
  - { offset: 0xBFFD0, size: 0x8, addend: 0x0, symName: __ZN4pyo35types3any5PyAny4repr17h83c62dad82d35866E, symObjAddr: 0x2FC0, symBinAddr: 0x43B50, symSize: 0x50 }
  - { offset: 0xBFFF3, size: 0x8, addend: 0x0, symName: __ZN4pyo35types3any5PyAny6as_ptr17h948428a7e35e923fE, symObjAddr: 0x30D0, symBinAddr: 0x43BA0, symSize: 0x10 }
  - { offset: 0xC002A, size: 0x8, addend: 0x0, symName: __ZN4pyo35types3any5PyAny7extract17h4eb526d68512b2e6E, symObjAddr: 0x3280, symBinAddr: 0x43BB0, symSize: 0x30 }
  - { offset: 0xC006A, size: 0x8, addend: 0x0, symName: __ZN4pyo35types3any5PyAny7extract17h835dcdc80fe5556fE, symObjAddr: 0x3370, symBinAddr: 0x43BE0, symSize: 0x30 }
  - { offset: 0xC0096, size: 0x8, addend: 0x0, symName: __ZN4pyo35types3any5PyAny7extract17h8dcfe7eebc29c68dE, symObjAddr: 0x33A0, symBinAddr: 0x43C10, symSize: 0x30 }
  - { offset: 0xC00C9, size: 0x8, addend: 0x0, symName: __ZN4pyo35types3any5PyAny7extract17hb8c35cdc8b0edeecE, symObjAddr: 0x3400, symBinAddr: 0x43C40, symSize: 0x30 }
  - { offset: 0xC00FC, size: 0x8, addend: 0x0, symName: __ZN4pyo35types3any5PyAny7getattr17h401011eda8ab2908E, symObjAddr: 0x34F0, symBinAddr: 0x43C70, symSize: 0x90 }
  - { offset: 0xC0135, size: 0x8, addend: 0x0, symName: __ZN4pyo35types3any5PyAny7getattr17h58c6e7fdd9cbbcf1E, symObjAddr: 0x3580, symBinAddr: 0x43D00, symSize: 0xA0 }
  - { offset: 0xC016E, size: 0x8, addend: 0x0, symName: __ZN4pyo35types3any5PyAny7setattr17hb15aafee54fe07a2E, symObjAddr: 0x3A00, symBinAddr: 0x43E60, symSize: 0xF0 }
  - { offset: 0xC01D3, size: 0x8, addend: 0x0, symName: __ZN4pyo35types3any5PyAny7setattr17hce851f5641065389E, symObjAddr: 0x3AF0, symBinAddr: 0x43F50, symSize: 0x120 }
  - { offset: 0xC0239, size: 0x8, addend: 0x0, symName: __ZN4pyo35types3any5PyAny8_getattr17h4ed74fdf374d7062E, symObjAddr: 0x41C0, symBinAddr: 0x44150, symSize: 0xA0 }
  - { offset: 0xC0498, size: 0x8, addend: 0x0, symName: __ZN4pyo35types3any5PyAny8downcast17h682dd4b4b5263cafE, symObjAddr: 0x4BA0, symBinAddr: 0x441F0, symSize: 0x30 }
  - { offset: 0xC04D1, size: 0x8, addend: 0x0, symName: __ZN4pyo35types3any5PyAny8downcast17h6e40c6c7605eaf0bE, symObjAddr: 0x4C00, symBinAddr: 0x44220, symSize: 0x30 }
  - { offset: 0xC0572, size: 0x8, addend: 0x0, symName: __ZN4pyo35types3any5PyAny8downcast17h859bf4158e25a855E, symObjAddr: 0x4E10, symBinAddr: 0x44250, symSize: 0x30 }
  - { offset: 0xC06A2, size: 0x8, addend: 0x0, symName: __ZN4pyo35types3any5PyAny8downcast17hccb6855ab63bbe51E, symObjAddr: 0x5230, symBinAddr: 0x44280, symSize: 0x30 }
  - { offset: 0xC0702, size: 0x8, addend: 0x0, symName: __ZN4pyo35types3any5PyAny8downcast17hd6cf9882ffd0ec85E, symObjAddr: 0x5350, symBinAddr: 0x442B0, symSize: 0x30 }
  - { offset: 0xC07FE, size: 0x8, addend: 0x0, symName: __ZN4pyo35types3any5PyAny8get_type17h8f4c1ffcba7e0cd6E, symObjAddr: 0x5720, symBinAddr: 0x442E0, symSize: 0x40 }
  - { offset: 0xC0859, size: 0x8, addend: 0x0, symName: __ZN4pyo35types4none6PyNone3get17h895faac41457fb05E, symObjAddr: 0x5D30, symBinAddr: 0x44320, symSize: 0x20 }
  - { offset: 0xC0900, size: 0x8, addend: 0x0, symName: '__ZN82_$LT$lock_api..mutex..MutexGuard$LT$R$C$T$GT$$u20$as$u20$core..ops..drop..Drop$GT$4drop17h12e1fceec02c89eeE', symObjAddr: 0x7270, symBinAddr: 0x449C0, symSize: 0x20 }
  - { offset: 0xC0942, size: 0x8, addend: 0x0, symName: '__ZN84_$LT$lock_api..mutex..MutexGuard$LT$R$C$T$GT$$u20$as$u20$core..ops..deref..Deref$GT$5deref17h4660c41c52a4ad8bE', symObjAddr: 0x7290, symBinAddr: 0x449E0, symSize: 0x20 }
  - { offset: 0xC0988, size: 0x8, addend: 0x0, symName: '__ZN87_$LT$lock_api..mutex..MutexGuard$LT$R$C$T$GT$$u20$as$u20$core..ops..deref..DerefMut$GT$9deref_mut17h03978ce37483cfc9E', symObjAddr: 0x72B0, symBinAddr: 0x44A00, symSize: 0x20 }
  - { offset: 0xC0B1D, size: 0x8, addend: 0x0, symName: '__ZN8lock_api5mutex18Mutex$LT$R$C$T$GT$20make_guard_unchecked17h48ad3a2fb3f455cdE', symObjAddr: 0x72D0, symBinAddr: 0x44A20, symSize: 0x10 }
  - { offset: 0xC0B7C, size: 0x8, addend: 0x0, symName: '__ZN8lock_api5mutex18Mutex$LT$R$C$T$GT$4lock17h1d2fe383934cc1e2E', symObjAddr: 0x72E0, symBinAddr: 0x44A30, symSize: 0x30 }
  - { offset: 0xC0CAF, size: 0x8, addend: 0x0, symName: '__ZN102_$LT$$RF$mut$u20$alloc..vec..Vec$LT$T$C$A$GT$$u20$as$u20$core..iter..traits..collect..IntoIterator$GT$9into_iter17h6c9a4270904d77f8E', symObjAddr: 0x0, symBinAddr: 0x44C00, symSize: 0x90 }
  - { offset: 0xC0D0B, size: 0x8, addend: 0x0, symName: '__ZN45_$LT$T$u20$as$u20$alloc..string..ToString$GT$9to_string17h5df9f6c6b0ee0d06E', symObjAddr: 0xE00, symBinAddr: 0x45760, symSize: 0x30 }
  - { offset: 0xC0D42, size: 0x8, addend: 0x0, symName: '__ZN45_$LT$T$u20$as$u20$alloc..string..ToString$GT$9to_string17h77de3042d420eb98E', symObjAddr: 0xE30, symBinAddr: 0x45790, symSize: 0x30 }
  - { offset: 0xC0D7F, size: 0x8, addend: 0x0, symName: '__ZN49_$LT$T$u20$as$u20$alloc..string..SpecToString$GT$14spec_to_string17h32814df657149f72E', symObjAddr: 0xE90, symBinAddr: 0x457C0, symSize: 0x120 }
  - { offset: 0xC0E4B, size: 0x8, addend: 0x0, symName: '__ZN49_$LT$T$u20$as$u20$alloc..string..SpecToString$GT$14spec_to_string17h7693ba185ff5bf8dE', symObjAddr: 0x10D0, symBinAddr: 0x458E0, symSize: 0x120 }
  - { offset: 0xC0F1D, size: 0x8, addend: 0x0, symName: '__ZN5alloc6string104_$LT$impl$u20$core..convert..From$LT$alloc..string..String$GT$$u20$for$u20$alloc..vec..Vec$LT$u8$GT$$GT$4from17hcefe9e8ca54d6af0E', symObjAddr: 0x3D50, symBinAddr: 0x475C0, symSize: 0x20 }
  - { offset: 0xC111D, size: 0x8, addend: 0x0, symName: '__ZN102_$LT$$RF$mut$u20$alloc..vec..Vec$LT$T$C$A$GT$$u20$as$u20$core..iter..traits..collect..IntoIterator$GT$9into_iter17h6c9a4270904d77f8E', symObjAddr: 0x0, symBinAddr: 0x44C00, symSize: 0x90 }
  - { offset: 0xC1588, size: 0x8, addend: 0x0, symName: '__ZN111_$LT$alloc..vec..Vec$LT$T$GT$$u20$as$u20$alloc..vec..spec_from_iter_nested..SpecFromIterNested$LT$T$C$I$GT$$GT$9from_iter17h2978f3d34cf8ce06E', symObjAddr: 0x90, symBinAddr: 0x44C90, symSize: 0x320 }
  - { offset: 0xC1814, size: 0x8, addend: 0x0, symName: '__ZN111_$LT$alloc..vec..Vec$LT$T$GT$$u20$as$u20$alloc..vec..spec_from_iter_nested..SpecFromIterNested$LT$T$C$I$GT$$GT$9from_iter17h2ea7c0ff6a126ac7E', symObjAddr: 0x3B0, symBinAddr: 0x44FB0, symSize: 0x310 }
  - { offset: 0xC1AA0, size: 0x8, addend: 0x0, symName: '__ZN111_$LT$alloc..vec..Vec$LT$T$GT$$u20$as$u20$alloc..vec..spec_from_iter_nested..SpecFromIterNested$LT$T$C$I$GT$$GT$9from_iter17h9099d500f63311acE', symObjAddr: 0x6C0, symBinAddr: 0x452C0, symSize: 0x310 }
  - { offset: 0xC2194, size: 0x8, addend: 0x0, symName: '__ZN112_$LT$alloc..vec..Vec$LT$T$C$A$GT$..retain_mut..BackshiftOnDrop$LT$T$C$A$GT$$u20$as$u20$core..ops..drop..Drop$GT$4drop17hc91f6304f9d022d7E', symObjAddr: 0x9D0, symBinAddr: 0x455D0, symSize: 0x170 }
  - { offset: 0xC23A7, size: 0x8, addend: 0x0, symName: '__ZN5alloc3vec16Vec$LT$T$C$A$GT$10retain_mut12process_loop17h23a17bda6bc4dbfcE', symObjAddr: 0x2260, symBinAddr: 0x45CE0, symSize: 0xB0 }
  - { offset: 0xC24FB, size: 0x8, addend: 0x0, symName: '__ZN5alloc3vec16Vec$LT$T$C$A$GT$10retain_mut12process_loop17h2d1083ef35a7842aE', symObjAddr: 0x2310, symBinAddr: 0x45D90, symSize: 0x120 }
  - { offset: 0xC2750, size: 0x8, addend: 0x0, symName: '__ZN5alloc3vec16Vec$LT$T$C$A$GT$6retain28_$u7b$$u7b$closure$u7d$$u7d$17hb1aab37323e82e6bE', symObjAddr: 0x30A0, symBinAddr: 0x46B20, symSize: 0x20 }
  - { offset: 0xC27B1, size: 0x8, addend: 0x0, symName: '__ZN5alloc3vec16Vec$LT$T$C$A$GT$7set_len18precondition_check17hd63eef1eec586d79E', symObjAddr: 0x31E0, symBinAddr: 0x46C60, symSize: 0x50 }
  - { offset: 0xC2E42, size: 0x8, addend: 0x0, symName: '__ZN72_$LT$alloc..vec..Vec$LT$T$C$A$GT$$u20$as$u20$core..ops..deref..Deref$GT$5deref17h59fd421b89ef780fE', symObjAddr: 0x4030, symBinAddr: 0x47820, symSize: 0x20 }
  - { offset: 0xC2E82, size: 0x8, addend: 0x0, symName: '__ZN72_$LT$alloc..vec..Vec$LT$T$C$A$GT$$u20$as$u20$core..ops..deref..Deref$GT$5deref17hebf78a78d7ab1666E', symObjAddr: 0x4050, symBinAddr: 0x47840, symSize: 0x20 }
  - { offset: 0xC2EC8, size: 0x8, addend: 0x0, symName: '__ZN67_$LT$alloc..vec..Vec$LT$T$GT$$u20$as$u20$core..default..Default$GT$7default17h2d59ad604110e05cE', symObjAddr: 0x3DE0, symBinAddr: 0x47610, symSize: 0x30 }
  - { offset: 0xC2F05, size: 0x8, addend: 0x0, symName: '__ZN67_$LT$alloc..vec..Vec$LT$T$GT$$u20$as$u20$core..default..Default$GT$7default17hed78e57d58a5ce3cE', symObjAddr: 0x3E10, symBinAddr: 0x47640, symSize: 0x30 }
  - { offset: 0xC2F42, size: 0x8, addend: 0x0, symName: '__ZN67_$LT$alloc..vec..Vec$LT$T$GT$$u20$as$u20$core..default..Default$GT$7default17hfec7ba675305bb96E', symObjAddr: 0x3E40, symBinAddr: 0x47670, symSize: 0x30 }
  - { offset: 0xC2F85, size: 0x8, addend: 0x0, symName: '__ZN70_$LT$alloc..vec..Vec$LT$T$C$A$GT$$u20$as$u20$core..ops..drop..Drop$GT$4drop17h0ab3159d46d26025E', symObjAddr: 0x3EE0, symBinAddr: 0x476D0, symSize: 0x30 }
  - { offset: 0xC3035, size: 0x8, addend: 0x0, symName: '__ZN70_$LT$alloc..vec..Vec$LT$T$C$A$GT$$u20$as$u20$core..ops..drop..Drop$GT$4drop17h0cc14f7bb66f1813E', symObjAddr: 0x3F10, symBinAddr: 0x47700, symSize: 0x20 }
  - { offset: 0xC30E5, size: 0x8, addend: 0x0, symName: '__ZN70_$LT$alloc..vec..Vec$LT$T$C$A$GT$$u20$as$u20$core..ops..drop..Drop$GT$4drop17h0fc3e786f5c97d2bE', symObjAddr: 0x3F30, symBinAddr: 0x47720, symSize: 0x30 }
  - { offset: 0xC3195, size: 0x8, addend: 0x0, symName: '__ZN70_$LT$alloc..vec..Vec$LT$T$C$A$GT$$u20$as$u20$core..ops..drop..Drop$GT$4drop17h53052cb1f0caa386E', symObjAddr: 0x3F60, symBinAddr: 0x47750, symSize: 0x20 }
  - { offset: 0xC3245, size: 0x8, addend: 0x0, symName: '__ZN70_$LT$alloc..vec..Vec$LT$T$C$A$GT$$u20$as$u20$core..ops..drop..Drop$GT$4drop17h7540a00ffed84243E', symObjAddr: 0x3F80, symBinAddr: 0x47770, symSize: 0x20 }
  - { offset: 0xC32F5, size: 0x8, addend: 0x0, symName: '__ZN70_$LT$alloc..vec..Vec$LT$T$C$A$GT$$u20$as$u20$core..ops..drop..Drop$GT$4drop17h75809620aca281eeE', symObjAddr: 0x3FA0, symBinAddr: 0x47790, symSize: 0x20 }
  - { offset: 0xC33A5, size: 0x8, addend: 0x0, symName: '__ZN70_$LT$alloc..vec..Vec$LT$T$C$A$GT$$u20$as$u20$core..ops..drop..Drop$GT$4drop17ha5eba8bde3823c44E', symObjAddr: 0x3FC0, symBinAddr: 0x477B0, symSize: 0x30 }
  - { offset: 0xC3455, size: 0x8, addend: 0x0, symName: '__ZN70_$LT$alloc..vec..Vec$LT$T$C$A$GT$$u20$as$u20$core..ops..drop..Drop$GT$4drop17hb4d46fd073a9231dE', symObjAddr: 0x3FF0, symBinAddr: 0x477E0, symSize: 0x20 }
  - { offset: 0xC3505, size: 0x8, addend: 0x0, symName: '__ZN70_$LT$alloc..vec..Vec$LT$T$C$A$GT$$u20$as$u20$core..ops..drop..Drop$GT$4drop17hd4f7152ece6b1285E', symObjAddr: 0x4010, symBinAddr: 0x47800, symSize: 0x20 }
  - { offset: 0xC35BB, size: 0x8, addend: 0x0, symName: '__ZN90_$LT$alloc..vec..Vec$LT$T$C$A$GT$$u20$as$u20$core..iter..traits..collect..IntoIterator$GT$9into_iter17h8b601f4521baa9fbE', symObjAddr: 0x41C0, symBinAddr: 0x478B0, symSize: 0xA0 }
  - { offset: 0xC37C1, size: 0x8, addend: 0x0, symName: '__ZN90_$LT$alloc..vec..Vec$LT$T$C$A$GT$$u20$as$u20$core..iter..traits..collect..IntoIterator$GT$9into_iter17h931203757f5ed60eE', symObjAddr: 0x4260, symBinAddr: 0x47950, symSize: 0xA0 }
  - { offset: 0xC39C7, size: 0x8, addend: 0x0, symName: '__ZN90_$LT$alloc..vec..Vec$LT$T$C$A$GT$$u20$as$u20$core..iter..traits..collect..IntoIterator$GT$9into_iter17hef1d21ea4444cdc4E', symObjAddr: 0x4300, symBinAddr: 0x479F0, symSize: 0xA0 }
  - { offset: 0xC3BD3, size: 0x8, addend: 0x0, symName: '__ZN95_$LT$alloc..vec..Vec$LT$T$GT$$u20$as$u20$core..iter..traits..collect..FromIterator$LT$T$GT$$GT$9from_iter17h28078c549d2e3ff0E', symObjAddr: 0x43A0, symBinAddr: 0x47A90, symSize: 0x30 }
  - { offset: 0xC3C14, size: 0x8, addend: 0x0, symName: '__ZN95_$LT$alloc..vec..Vec$LT$T$GT$$u20$as$u20$core..iter..traits..collect..FromIterator$LT$T$GT$$GT$9from_iter17h6de3f8737ef88f15E', symObjAddr: 0x43D0, symBinAddr: 0x47AC0, symSize: 0x30 }
  - { offset: 0xC3C55, size: 0x8, addend: 0x0, symName: '__ZN95_$LT$alloc..vec..Vec$LT$T$GT$$u20$as$u20$core..iter..traits..collect..FromIterator$LT$T$GT$$GT$9from_iter17hf7165a0ceb7010c7E', symObjAddr: 0x4400, symBinAddr: 0x47AF0, symSize: 0x30 }
  - { offset: 0xC3CA1, size: 0x8, addend: 0x0, symName: '__ZN97_$LT$alloc..vec..Vec$LT$T$C$A$GT$$u20$as$u20$alloc..vec..spec_extend..SpecExtend$LT$T$C$I$GT$$GT$11spec_extend17h2b33ceb744c4602cE', symObjAddr: 0x4430, symBinAddr: 0x47B20, symSize: 0x20 }
  - { offset: 0xC3CF3, size: 0x8, addend: 0x0, symName: '__ZN97_$LT$alloc..vec..Vec$LT$T$C$A$GT$$u20$as$u20$alloc..vec..spec_extend..SpecExtend$LT$T$C$I$GT$$GT$11spec_extend17h44fad0ea918032caE', symObjAddr: 0x4450, symBinAddr: 0x47B40, symSize: 0x20 }
  - { offset: 0xC3D45, size: 0x8, addend: 0x0, symName: '__ZN97_$LT$alloc..vec..Vec$LT$T$C$A$GT$$u20$as$u20$alloc..vec..spec_extend..SpecExtend$LT$T$C$I$GT$$GT$11spec_extend17he0307b1f0874932aE', symObjAddr: 0x4470, symBinAddr: 0x47B60, symSize: 0x20 }
  - { offset: 0xC3DA3, size: 0x8, addend: 0x0, symName: '__ZN98_$LT$alloc..vec..Vec$LT$T$GT$$u20$as$u20$alloc..vec..spec_from_iter..SpecFromIter$LT$T$C$I$GT$$GT$9from_iter17h3362182486fc86b1E', symObjAddr: 0x4490, symBinAddr: 0x47B80, symSize: 0x20 }
  - { offset: 0xC3DE2, size: 0x8, addend: 0x0, symName: '__ZN98_$LT$alloc..vec..Vec$LT$T$GT$$u20$as$u20$alloc..vec..spec_from_iter..SpecFromIter$LT$T$C$I$GT$$GT$9from_iter17h3bbffa7cd7a82278E', symObjAddr: 0x44B0, symBinAddr: 0x47BA0, symSize: 0x20 }
  - { offset: 0xC3E21, size: 0x8, addend: 0x0, symName: '__ZN98_$LT$alloc..vec..Vec$LT$T$GT$$u20$as$u20$alloc..vec..spec_from_iter..SpecFromIter$LT$T$C$I$GT$$GT$9from_iter17hc8b09ef7916cc20eE', symObjAddr: 0x44D0, symBinAddr: 0x47BC0, symSize: 0x1E }
  - { offset: 0xC6BA4, size: 0x8, addend: 0x0, symName: '__ZN42_$LT$$RF$T$u20$as$u20$core..fmt..Debug$GT$3fmt17h33ab4193be385250E', symObjAddr: 0xDE0, symBinAddr: 0x45740, symSize: 0x20 }
  - { offset: 0xC6C77, size: 0x8, addend: 0x0, symName: '__ZN4core5tuple66_$LT$impl$u20$core..default..Default$u20$for$u20$$LP$U$C$T$RP$$GT$7default17hea166cf139ff2479E', symObjAddr: 0x11F0, symBinAddr: 0x45A00, symSize: 0xA0 }
  - { offset: 0xC6CF4, size: 0x8, addend: 0x0, symName: __ZN4core9ub_checks23maybe_is_nonoverlapping7runtime17hf23a37fb7ac04724E, symObjAddr: 0x1290, symBinAddr: 0x45AA0, symSize: 0xC0 }
  - { offset: 0xC7E9C, size: 0x8, addend: 0x0, symName: '__ZN66_$LT$pyo3..pycell..PyBorrowError$u20$as$u20$core..fmt..Display$GT$3fmt17hba37692968637a61E', symObjAddr: 0x3DB0, symBinAddr: 0x475E0, symSize: 0x30 }
  - { offset: 0xC7EDF, size: 0x8, addend: 0x0, symName: '__ZN69_$LT$pyo3..pycell..PyBorrowMutError$u20$as$u20$core..fmt..Display$GT$3fmt17hff4e87220d58f9aeE', symObjAddr: 0x3EB0, symBinAddr: 0x476A0, symSize: 0x30 }
  - { offset: 0xC85DF, size: 0x8, addend: 0x0, symName: '__ZN5alloc3vec12Vec$LT$T$GT$13with_capacity17hdc1eb03b64993d14E', symObjAddr: 0x20E0, symBinAddr: 0x45B60, symSize: 0x50 }
  - { offset: 0xC8657, size: 0x8, addend: 0x0, symName: '__ZN5alloc3vec12Vec$LT$T$GT$3new17h0534f5e73a860c56E', symObjAddr: 0x2130, symBinAddr: 0x45BB0, symSize: 0x30 }
  - { offset: 0xC8674, size: 0x8, addend: 0x0, symName: '__ZN5alloc3vec12Vec$LT$T$GT$3new17h4a3fdcabf119a17dE', symObjAddr: 0x2160, symBinAddr: 0x45BE0, symSize: 0x30 }
  - { offset: 0xC86D0, size: 0x8, addend: 0x0, symName: '__ZN5alloc3vec12Vec$LT$T$GT$3new17h7e8c6f0120e281ffE', symObjAddr: 0x2190, symBinAddr: 0x45C10, symSize: 0x30 }
  - { offset: 0xC870B, size: 0x8, addend: 0x0, symName: '__ZN5alloc3vec12Vec$LT$T$GT$3new17h937713c565b2d3a2E', symObjAddr: 0x21C0, symBinAddr: 0x45C40, symSize: 0x30 }
  - { offset: 0xC8756, size: 0x8, addend: 0x0, symName: '__ZN5alloc3vec12Vec$LT$T$GT$3new17ha5702a887a8cec2cE', symObjAddr: 0x21F0, symBinAddr: 0x45C70, symSize: 0x30 }
  - { offset: 0xC8773, size: 0x8, addend: 0x0, symName: '__ZN5alloc3vec12Vec$LT$T$GT$3new17hba7c2a7770fad938E', symObjAddr: 0x2220, symBinAddr: 0x45CA0, symSize: 0x30 }
  - { offset: 0xC87DB, size: 0x8, addend: 0x0, symName: '__ZN5alloc3vec16Vec$LT$T$C$A$GT$10as_mut_ptr17h4979085d24111faaE', symObjAddr: 0x2250, symBinAddr: 0x45CD0, symSize: 0x10 }
  - { offset: 0xC8A54, size: 0x8, addend: 0x0, symName: '__ZN5alloc3vec16Vec$LT$T$C$A$GT$10retain_mut17h5f25a174f5b9bfccE', symObjAddr: 0x2430, symBinAddr: 0x45EB0, symSize: 0x150 }
  - { offset: 0xC8CA8, size: 0x8, addend: 0x0, symName: '__ZN5alloc3vec16Vec$LT$T$C$A$GT$13shrink_to_fit17h4e5c9c76f4df3cbeE', symObjAddr: 0x2580, symBinAddr: 0x46000, symSize: 0xB0 }
  - { offset: 0xC8ECE, size: 0x8, addend: 0x0, symName: '__ZN5alloc3vec16Vec$LT$T$C$A$GT$13shrink_to_fit17h5cc65e943e5e395fE', symObjAddr: 0x2630, symBinAddr: 0x460B0, symSize: 0xB0 }
  - { offset: 0xC9155, size: 0x8, addend: 0x0, symName: '__ZN5alloc3vec16Vec$LT$T$C$A$GT$16extend_desugared17h360495b4a1dccb5eE', symObjAddr: 0x26E0, symBinAddr: 0x46160, symSize: 0x210 }
  - { offset: 0xC96F4, size: 0x8, addend: 0x0, symName: '__ZN88_$LT$hashbrown..scopeguard..ScopeGuard$LT$T$C$F$GT$$u20$as$u20$core..ops..drop..Drop$GT$4drop17h4cd4cc21d63f224dE', symObjAddr: 0x40E0, symBinAddr: 0x47860, symSize: 0x20 }
  - { offset: 0xC972E, size: 0x8, addend: 0x0, symName: '__ZN88_$LT$hashbrown..scopeguard..ScopeGuard$LT$T$C$F$GT$$u20$as$u20$core..ops..drop..Drop$GT$4drop17hce2325dcc268822dE', symObjAddr: 0x4100, symBinAddr: 0x47880, symSize: 0x30 }
  - { offset: 0xC9841, size: 0x8, addend: 0x0, symName: '__ZN5alloc3vec16Vec$LT$T$C$A$GT$16extend_desugared17h6a73af4a965d09d3E', symObjAddr: 0x28F0, symBinAddr: 0x46370, symSize: 0x1F0 }
  - { offset: 0xC9C42, size: 0x8, addend: 0x0, symName: '__ZN5alloc3vec16Vec$LT$T$C$A$GT$16extend_desugared17hef0aeb3833d33836E', symObjAddr: 0x2AE0, symBinAddr: 0x46560, symSize: 0x210 }
  - { offset: 0xCA044, size: 0x8, addend: 0x0, symName: '__ZN5alloc3vec16Vec$LT$T$C$A$GT$16into_boxed_slice17h8fcdb4c0d82c315bE', symObjAddr: 0x2CF0, symBinAddr: 0x46770, symSize: 0x140 }
  - { offset: 0xCA33F, size: 0x8, addend: 0x0, symName: '__ZN5alloc3vec16Vec$LT$T$C$A$GT$16into_boxed_slice17hf6cc25318cd66dbeE', symObjAddr: 0x2E30, symBinAddr: 0x468B0, symSize: 0x140 }
  - { offset: 0xCA4FE, size: 0x8, addend: 0x0, symName: '__ZN5alloc3vec16Vec$LT$T$C$A$GT$3len17h4a761ea1b487875eE', symObjAddr: 0x2F70, symBinAddr: 0x469F0, symSize: 0x10 }
  - { offset: 0xCA540, size: 0x8, addend: 0x0, symName: '__ZN5alloc3vec16Vec$LT$T$C$A$GT$4push17h55fbe3c9edbd9fe7E', symObjAddr: 0x2F80, symBinAddr: 0x46A00, symSize: 0x20 }
  - { offset: 0xCA585, size: 0x8, addend: 0x0, symName: '__ZN5alloc3vec16Vec$LT$T$C$A$GT$4push17h787cadfdea0e201eE', symObjAddr: 0x2FA0, symBinAddr: 0x46A20, symSize: 0x20 }
  - { offset: 0xCA5CA, size: 0x8, addend: 0x0, symName: '__ZN5alloc3vec16Vec$LT$T$C$A$GT$4push17h8777b657768923b3E', symObjAddr: 0x2FC0, symBinAddr: 0x46A40, symSize: 0x20 }
  - { offset: 0xCA60F, size: 0x8, addend: 0x0, symName: '__ZN5alloc3vec16Vec$LT$T$C$A$GT$4push17hc208146ba59efab0E', symObjAddr: 0x2FE0, symBinAddr: 0x46A60, symSize: 0x20 }
  - { offset: 0xCA653, size: 0x8, addend: 0x0, symName: '__ZN5alloc3vec16Vec$LT$T$C$A$GT$4push17hcae46a5532ed01a0E', symObjAddr: 0x3000, symBinAddr: 0x46A80, symSize: 0x20 }
  - { offset: 0xCA697, size: 0x8, addend: 0x0, symName: '__ZN5alloc3vec16Vec$LT$T$C$A$GT$4push17hd3c7ada1d4f6b936E', symObjAddr: 0x3020, symBinAddr: 0x46AA0, symSize: 0x20 }
  - { offset: 0xCA6E9, size: 0x8, addend: 0x0, symName: '__ZN5alloc3vec16Vec$LT$T$C$A$GT$4push17hd6de2e6e623da532E', symObjAddr: 0x3040, symBinAddr: 0x46AC0, symSize: 0x20 }
  - { offset: 0xCA72D, size: 0x8, addend: 0x0, symName: '__ZN5alloc3vec16Vec$LT$T$C$A$GT$6retain17h92f95b24e36b859dE', symObjAddr: 0x3060, symBinAddr: 0x46AE0, symSize: 0x40 }
  - { offset: 0xCA89D, size: 0x8, addend: 0x0, symName: '__ZN5alloc3vec16Vec$LT$T$C$A$GT$7reserve17h27ada6aaa02c10f1E', symObjAddr: 0x30C0, symBinAddr: 0x46B40, symSize: 0x90 }
  - { offset: 0xCAAF5, size: 0x8, addend: 0x0, symName: '__ZN5alloc3vec16Vec$LT$T$C$A$GT$7reserve17he96f17c17b7bdc90E', symObjAddr: 0x3150, symBinAddr: 0x46BD0, symSize: 0x90 }
  - { offset: 0xCACDB, size: 0x8, addend: 0x0, symName: '__ZN5alloc3vec16Vec$LT$T$C$A$GT$8as_slice17h2f16b2f343f68f27E', symObjAddr: 0x3230, symBinAddr: 0x46CB0, symSize: 0x50 }
  - { offset: 0xCAE2C, size: 0x8, addend: 0x0, symName: '__ZN5alloc3vec16Vec$LT$T$C$A$GT$8as_slice17hfd9e145e01b77386E', symObjAddr: 0x3280, symBinAddr: 0x46D00, symSize: 0x50 }
  - { offset: 0xCAF0B, size: 0x8, addend: 0x0, symName: '__ZN5alloc3vec16Vec$LT$T$C$A$GT$8is_empty17h1e60d6bae5656397E', symObjAddr: 0x32D0, symBinAddr: 0x46D50, symSize: 0x20 }
  - { offset: 0xCAF83, size: 0x8, addend: 0x0, symName: '__ZN5alloc3vec16Vec$LT$T$C$A$GT$8is_empty17h59cdb0d060f421e3E', symObjAddr: 0x32F0, symBinAddr: 0x46D70, symSize: 0x20 }
  - { offset: 0xCAFFB, size: 0x8, addend: 0x0, symName: '__ZN5alloc3vec16Vec$LT$T$C$A$GT$8is_empty17h91e042723caf8a9dE', symObjAddr: 0x3310, symBinAddr: 0x46D90, symSize: 0x20 }
  - { offset: 0xCB073, size: 0x8, addend: 0x0, symName: '__ZN5alloc3vec16Vec$LT$T$C$A$GT$8is_empty17h9c9b0c8ae4a6ccdaE', symObjAddr: 0x3330, symBinAddr: 0x46DB0, symSize: 0x20 }
  - { offset: 0xCB1A6, size: 0x8, addend: 0x0, symName: '__ZN5alloc3vec16Vec$LT$T$C$A$GT$8push_mut17h2ba6cdc6dc6d5b89E', symObjAddr: 0x3350, symBinAddr: 0x46DD0, symSize: 0xD0 }
  - { offset: 0xCB43D, size: 0x8, addend: 0x0, symName: '__ZN5alloc3vec16Vec$LT$T$C$A$GT$8push_mut17h4f66748b10883303E', symObjAddr: 0x3420, symBinAddr: 0x46EA0, symSize: 0xF0 }
  - { offset: 0xCB6DF, size: 0x8, addend: 0x0, symName: '__ZN5alloc3vec16Vec$LT$T$C$A$GT$8push_mut17h595900ccc312cff8E', symObjAddr: 0x3510, symBinAddr: 0x46F90, symSize: 0x120 }
  - { offset: 0xCB981, size: 0x8, addend: 0x0, symName: '__ZN5alloc3vec16Vec$LT$T$C$A$GT$8push_mut17h8955364b192c40f9E', symObjAddr: 0x3630, symBinAddr: 0x470B0, symSize: 0xB0 }
  - { offset: 0xCBC24, size: 0x8, addend: 0x0, symName: '__ZN5alloc3vec16Vec$LT$T$C$A$GT$8push_mut17hb87c4cbe0a3da0f1E', symObjAddr: 0x36E0, symBinAddr: 0x47160, symSize: 0x100 }
  - { offset: 0xCBE92, size: 0x8, addend: 0x0, symName: '__ZN5alloc3vec16Vec$LT$T$C$A$GT$8push_mut17hec90cc5c817d7a22E', symObjAddr: 0x37E0, symBinAddr: 0x47260, symSize: 0xB0 }
  - { offset: 0xCC10E, size: 0x8, addend: 0x0, symName: '__ZN5alloc3vec16Vec$LT$T$C$A$GT$8push_mut17hf7755c3d81e6ff6eE', symObjAddr: 0x3890, symBinAddr: 0x47310, symSize: 0xF0 }
  - { offset: 0xCC4D7, size: 0x8, addend: 0x0, symName: '__ZN5alloc3vec16Vec$LT$T$C$A$GT$9split_off17hd16e2f4cbfed6567E', symObjAddr: 0x3980, symBinAddr: 0x47400, symSize: 0x1C0 }
  - { offset: 0xCD284, size: 0x8, addend: 0x0, symName: '__ZN45_$LT$T$u20$as$u20$alloc..string..ToString$GT$9to_string17h4de7630db28fa85bE', symObjAddr: 0x280, symBinAddr: 0x47DE0, symSize: 0x30 }
  - { offset: 0xCD2C1, size: 0x8, addend: 0x0, symName: '__ZN49_$LT$T$u20$as$u20$alloc..string..SpecToString$GT$14spec_to_string17hc242f60cd575b328E', symObjAddr: 0x400, symBinAddr: 0x47E10, symSize: 0x120 }
  - { offset: 0xCD80D, size: 0x8, addend: 0x0, symName: '__ZN4core3ptr8non_null16NonNull$LT$T$GT$13new_unchecked18precondition_check17ha1af7a66f305d80eE', symObjAddr: 0x17B0, symBinAddr: 0x48C30, symSize: 0x50 }
  - { offset: 0xCE31E, size: 0x8, addend: 0x0, symName: __ZN4core3ptr10swap_chunk17h3204e2b0ad71260fE, symObjAddr: 0xD70, symBinAddr: 0x482E0, symSize: 0x30 }
  - { offset: 0xCE357, size: 0x8, addend: 0x0, symName: __ZN4core3ptr10swap_chunk17h5689b2c31e57b525E, symObjAddr: 0xDA0, symBinAddr: 0x48310, symSize: 0x30 }
  - { offset: 0xCE390, size: 0x8, addend: 0x0, symName: __ZN4core3ptr10swap_chunk17h78e8e4c1e3cc72b1E, symObjAddr: 0xDD0, symBinAddr: 0x48340, symSize: 0x30 }
  - { offset: 0xCE3C9, size: 0x8, addend: 0x0, symName: __ZN4core3ptr10swap_chunk17hd30bf27c65d77afdE, symObjAddr: 0xE00, symBinAddr: 0x48370, symSize: 0x30 }
  - { offset: 0xCE78A, size: 0x8, addend: 0x0, symName: __ZN4core3ptr11write_bytes18precondition_check17h79a130f2f7e35f98E, symObjAddr: 0xE30, symBinAddr: 0x483A0, symSize: 0x90 }
  - { offset: 0xCE895, size: 0x8, addend: 0x0, symName: __ZN4core3ptr19copy_nonoverlapping18precondition_check17h5281b187ac7c504cE, symObjAddr: 0xEC0, symBinAddr: 0x48430, symSize: 0x150 }
  - { offset: 0xCEB1F, size: 0x8, addend: 0x0, symName: __ZN4core3ptr19swap_nonoverlapping18precondition_check17h2932a469fe2420cfE, symObjAddr: 0x1170, symBinAddr: 0x48630, symSize: 0x160 }
  - { offset: 0xCED6B, size: 0x8, addend: 0x0, symName: __ZN4core3ptr19swap_nonoverlapping17h3219cb197f90eb8cE, symObjAddr: 0x10C0, symBinAddr: 0x48580, symSize: 0xB0 }
  - { offset: 0xCEEB4, size: 0x8, addend: 0x0, symName: __ZN4core3ptr25swap_nonoverlapping_bytes17hf7cc466d885b038cE, symObjAddr: 0x12F0, symBinAddr: 0x48790, symSize: 0xD0 }
  - { offset: 0xCF05D, size: 0x8, addend: 0x0, symName: __ZN4core3ptr25swap_nonoverlapping_bytes25swap_nonoverlapping_short17h55c21a46e2e2704bE, symObjAddr: 0x13C0, symBinAddr: 0x48860, symSize: 0x160 }
  - { offset: 0xCF1F5, size: 0x8, addend: 0x0, symName: __ZN4core3ptr25swap_nonoverlapping_bytes26swap_nonoverlapping_chunks17hc16303c548a3e4b1E, symObjAddr: 0x1520, symBinAddr: 0x489C0, symSize: 0xC0 }
  - { offset: 0xCF3A0, size: 0x8, addend: 0x0, symName: __ZN4core3ptr4copy18precondition_check17h2efcd23a11836d68E, symObjAddr: 0x15E0, symBinAddr: 0x48A80, symSize: 0x120 }
  - { offset: 0xCF554, size: 0x8, addend: 0x0, symName: __ZN4core3ptr7replace18precondition_check17h79515a9cae47180aE, symObjAddr: 0x1720, symBinAddr: 0x48BA0, symSize: 0x90 }
  - { offset: 0xCF835, size: 0x8, addend: 0x0, symName: '__ZN68_$LT$core..num..error..ParseIntError$u20$as$u20$core..fmt..Debug$GT$3fmt17h1fbbfc8b3dcdb707E', symObjAddr: 0x38F0, symBinAddr: 0x49F00, symSize: 0x60 }
  - { offset: 0xCF875, size: 0x8, addend: 0x0, symName: '__ZN70_$LT$core..num..error..TryFromIntError$u20$as$u20$core..fmt..Debug$GT$3fmt17h0fbe9b3cf5053f77E', symObjAddr: 0x3C70, symBinAddr: 0x49F60, symSize: 0x50 }
  - { offset: 0xCFB73, size: 0x8, addend: 0x0, symName: '__ZN106_$LT$core..slice..iter..Iter$LT$T$GT$$u20$as$u20$core..iter..traits..double_ended..DoubleEndedIterator$GT$9next_back17h8836bfe5a116ec9dE', symObjAddr: 0x10, symBinAddr: 0x47BE0, symSize: 0xC0 }
  - { offset: 0xCFDB2, size: 0x8, addend: 0x0, symName: '__ZN91_$LT$core..slice..iter..Iter$LT$T$GT$$u20$as$u20$core..iter..traits..iterator..Iterator$GT$24__iterator_get_unchecked17h2f9ddb20e2f08331E', symObjAddr: 0x3DB0, symBinAddr: 0x49FB0, symSize: 0x20 }
  - { offset: 0xCFE0D, size: 0x8, addend: 0x0, symName: '__ZN91_$LT$core..slice..iter..Iter$LT$T$GT$$u20$as$u20$core..iter..traits..iterator..Iterator$GT$24__iterator_get_unchecked17ha5e7d2ef4d1d323aE', symObjAddr: 0x3DF0, symBinAddr: 0x49FD0, symSize: 0x20 }
  - { offset: 0xCFEB7, size: 0x8, addend: 0x0, symName: '__ZN91_$LT$core..slice..iter..Iter$LT$T$GT$$u20$as$u20$core..iter..traits..iterator..Iterator$GT$3any17hdd9b17448ebece40E', symObjAddr: 0x3E30, symBinAddr: 0x49FF0, symSize: 0xC0 }
  - { offset: 0xCFFAD, size: 0x8, addend: 0x0, symName: '__ZN91_$LT$core..slice..iter..Iter$LT$T$GT$$u20$as$u20$core..iter..traits..iterator..Iterator$GT$4next17h14283f01e709a966E', symObjAddr: 0x3EF0, symBinAddr: 0x4A0B0, symSize: 0x70 }
  - { offset: 0xD0074, size: 0x8, addend: 0x0, symName: '__ZN91_$LT$core..slice..iter..Iter$LT$T$GT$$u20$as$u20$core..iter..traits..iterator..Iterator$GT$4next17h329361034c3da0d3E', symObjAddr: 0x3F60, symBinAddr: 0x4A120, symSize: 0x70 }
  - { offset: 0xD013B, size: 0x8, addend: 0x0, symName: '__ZN91_$LT$core..slice..iter..Iter$LT$T$GT$$u20$as$u20$core..iter..traits..iterator..Iterator$GT$4next17h32fe921f2d57ac6eE', symObjAddr: 0x3FD0, symBinAddr: 0x4A190, symSize: 0x70 }
  - { offset: 0xD0202, size: 0x8, addend: 0x0, symName: '__ZN91_$LT$core..slice..iter..Iter$LT$T$GT$$u20$as$u20$core..iter..traits..iterator..Iterator$GT$4next17he7eeb22311bedc56E', symObjAddr: 0x4040, symBinAddr: 0x4A200, symSize: 0x70 }
  - { offset: 0xD02C9, size: 0x8, addend: 0x0, symName: '__ZN91_$LT$core..slice..iter..Iter$LT$T$GT$$u20$as$u20$core..iter..traits..iterator..Iterator$GT$9size_hint17h684f6c3427e0ba17E', symObjAddr: 0x4110, symBinAddr: 0x4A270, symSize: 0x60 }
  - { offset: 0xD0338, size: 0x8, addend: 0x0, symName: '__ZN91_$LT$core..slice..iter..Iter$LT$T$GT$$u20$as$u20$core..iter..traits..iterator..Iterator$GT$9size_hint17ha20e69327bfcfdfdE', symObjAddr: 0x4170, symBinAddr: 0x4A2D0, symSize: 0x60 }
  - { offset: 0xD03A7, size: 0x8, addend: 0x0, symName: '__ZN91_$LT$core..slice..iter..Iter$LT$T$GT$$u20$as$u20$core..iter..traits..iterator..Iterator$GT$9size_hint17hd0a32535de322c03E', symObjAddr: 0x41D0, symBinAddr: 0x4A330, symSize: 0x60 }
  - { offset: 0xD0452, size: 0x8, addend: 0x0, symName: '__ZN94_$LT$core..slice..iter..IterMut$LT$T$GT$$u20$as$u20$core..iter..traits..iterator..Iterator$GT$4next17h7179cdf930a6a9e8E', symObjAddr: 0x4310, symBinAddr: 0x4A470, symSize: 0x70 }
  - { offset: 0xD0664, size: 0x8, addend: 0x0, symName: '__ZN31_$LT$dyn$u20$core..any..Any$GT$12downcast_ref17h32f5b48178dbd2c1E', symObjAddr: 0xD0, symBinAddr: 0x47CA0, symSize: 0x80 }
  - { offset: 0xD075E, size: 0x8, addend: 0x0, symName: '__ZN31_$LT$dyn$u20$core..any..Any$GT$12downcast_ref17hf9884951369d3810E', symObjAddr: 0x150, symBinAddr: 0x47D20, symSize: 0x80 }
  - { offset: 0xD08D2, size: 0x8, addend: 0x0, symName: '__ZN54_$LT$dyn$u20$core..any..Any$u2b$core..marker..Send$GT$12downcast_ref17h1066cc564d188818E', symObjAddr: 0x3320, symBinAddr: 0x49EC0, symSize: 0x20 }
  - { offset: 0xD0909, size: 0x8, addend: 0x0, symName: '__ZN54_$LT$dyn$u20$core..any..Any$u2b$core..marker..Send$GT$12downcast_ref17hdd8025371c0c7401E', symObjAddr: 0x3340, symBinAddr: 0x49EE0, symSize: 0x20 }
  - { offset: 0xD0E19, size: 0x8, addend: 0x0, symName: '__ZN53_$LT$core..fmt..Error$u20$as$u20$core..fmt..Debug$GT$3fmt17hdc03fd1f5b4262aaE', symObjAddr: 0x32E0, symBinAddr: 0x49E80, symSize: 0x40 }
  - { offset: 0xD21C2, size: 0x8, addend: 0x0, symName: __ZN4core4iter8adapters3zip27TrustedRandomAccessNoCoerce4size17h0724783eebc52a53E, symObjAddr: 0x1F50, symBinAddr: 0x49120, symSize: 0x30 }
  - { offset: 0xD21F9, size: 0x8, addend: 0x0, symName: __ZN4core4iter8adapters3zip27TrustedRandomAccessNoCoerce4size17h12724b0ab50bdfc4E, symObjAddr: 0x1FB0, symBinAddr: 0x49150, symSize: 0x30 }
  - { offset: 0xD2342, size: 0x8, addend: 0x0, symName: __ZN4core4iter6traits8iterator8Iterator3zip17h3669e56d524d5fa9E, symObjAddr: 0x1CC0, symBinAddr: 0x49010, symSize: 0xD0 }
  - { offset: 0xD23B8, size: 0x8, addend: 0x0, symName: __ZN4core4iter6traits8iterator8Iterator4take17he8815aa090b66fffE, symObjAddr: 0x1D90, symBinAddr: 0x490E0, symSize: 0x20 }
  - { offset: 0xD2413, size: 0x8, addend: 0x0, symName: __ZN4core4iter6traits8iterator8Iterator9enumerate17h986c125fe3cee940E, symObjAddr: 0x1F30, symBinAddr: 0x49100, symSize: 0x20 }
  - { offset: 0xD2566, size: 0x8, addend: 0x0, symName: '__ZN50_$LT$T$u20$as$u20$core..convert..Into$LT$U$GT$$GT$4into17hf72968f1d41005b2E', symObjAddr: 0x31A0, symBinAddr: 0x49E10, symSize: 0x30 }
  - { offset: 0xD25AC, size: 0x8, addend: 0x0, symName: '__ZN53_$LT$T$u20$as$u20$core..convert..TryInto$LT$U$GT$$GT$8try_into17h2e93d788fcee316cE', symObjAddr: 0x31F0, symBinAddr: 0x49E40, symSize: 0x20 }
  - { offset: 0xD25EC, size: 0x8, addend: 0x0, symName: '__ZN53_$LT$T$u20$as$u20$core..convert..TryInto$LT$U$GT$$GT$8try_into17h4e4018797b4e4e62E', symObjAddr: 0x3210, symBinAddr: 0x49E60, symSize: 0x20 }
  - { offset: 0xD2780, size: 0x8, addend: 0x0, symName: __ZN4pyo35impl_10trampoline10trampoline17h0fb8396b7800f689E, symObjAddr: 0x22E0, symBinAddr: 0x49350, symSize: 0x180 }
  - { offset: 0xD2825, size: 0x8, addend: 0x0, symName: __ZN4pyo35impl_10trampoline10trampoline17h2540469d3864d42aE, symObjAddr: 0x2460, symBinAddr: 0x494D0, symSize: 0x150 }
  - { offset: 0xD28C9, size: 0x8, addend: 0x0, symName: __ZN4pyo35impl_10trampoline10trampoline17ha210f5f653f3fa36E, symObjAddr: 0x25B0, symBinAddr: 0x49620, symSize: 0x180 }
  - { offset: 0xD296D, size: 0x8, addend: 0x0, symName: __ZN4pyo35impl_10trampoline10trampoline17hb65e6fda49eccde9E, symObjAddr: 0x2730, symBinAddr: 0x497A0, symSize: 0x180 }
  - { offset: 0xD2A11, size: 0x8, addend: 0x0, symName: __ZN4pyo35impl_10trampoline10trampoline17hc984b3b82edce973E, symObjAddr: 0x28B0, symBinAddr: 0x49920, symSize: 0x180 }
  - { offset: 0xD2ABB, size: 0x8, addend: 0x0, symName: '__ZN4pyo35impl_10trampoline10trampoline28_$u7b$$u7b$closure$u7d$$u7d$17h0b70c1e2a181a360E', symObjAddr: 0x2A30, symBinAddr: 0x49AA0, symSize: 0x40 }
  - { offset: 0xD2B0A, size: 0x8, addend: 0x0, symName: '__ZN4pyo35impl_10trampoline10trampoline28_$u7b$$u7b$closure$u7d$$u7d$17h1b4a5ca5d721cc6eE', symObjAddr: 0x2A70, symBinAddr: 0x49AE0, symSize: 0x30 }
  - { offset: 0xD2B58, size: 0x8, addend: 0x0, symName: '__ZN4pyo35impl_10trampoline10trampoline28_$u7b$$u7b$closure$u7d$$u7d$17h6064e65885531f23E', symObjAddr: 0x2AA0, symBinAddr: 0x49B10, symSize: 0x30 }
  - { offset: 0xD2BA6, size: 0x8, addend: 0x0, symName: '__ZN4pyo35impl_10trampoline10trampoline28_$u7b$$u7b$closure$u7d$$u7d$17h6eb65da8c498974cE', symObjAddr: 0x2AD0, symBinAddr: 0x49B40, symSize: 0x40 }
  - { offset: 0xD2BF5, size: 0x8, addend: 0x0, symName: '__ZN4pyo35impl_10trampoline10trampoline28_$u7b$$u7b$closure$u7d$$u7d$17hc0d28583a7cba7c1E', symObjAddr: 0x2B10, symBinAddr: 0x49B80, symSize: 0x20 }
  - { offset: 0xD2C44, size: 0x8, addend: 0x0, symName: __ZN4pyo35impl_10trampoline33panic_result_into_callback_output17h1f3dd60b4504a1f5E, symObjAddr: 0x2B30, symBinAddr: 0x49BA0, symSize: 0x130 }
  - { offset: 0xD2D09, size: 0x8, addend: 0x0, symName: __ZN4pyo35impl_10trampoline33panic_result_into_callback_output17h44aa4cd451c351d4E, symObjAddr: 0x2C60, symBinAddr: 0x49CD0, symSize: 0x140 }
  - { offset: 0xD3220, size: 0x8, addend: 0x0, symName: __ZN4pyo311type_object12get_tp_alloc17h190b902aae618501E, symObjAddr: 0x2220, symBinAddr: 0x492F0, symSize: 0x60 }
  - { offset: 0xD35A6, size: 0x8, addend: 0x0, symName: __ZN3std3sys12thread_local20abort_on_dtor_unwind17h0d3172997a6c0029E, symObjAddr: 0x1D0, symBinAddr: 0x47DA0, symSize: 0x40 }
  - { offset: 0xD3739, size: 0x8, addend: 0x0, symName: __ZN4core3fmt9Arguments17from_str_nonconst17hcd44ac96d81dfa13E, symObjAddr: 0x800, symBinAddr: 0x47F30, symSize: 0x20 }
  - { offset: 0xD37C7, size: 0x8, addend: 0x0, symName: __ZN4core3fmt9Arguments23as_statically_known_str17h1d16e865b1bda8b7E, symObjAddr: 0x820, symBinAddr: 0x47F50, symSize: 0xD0 }
  - { offset: 0xD38BE, size: 0x8, addend: 0x0, symName: __ZN4core3fmt9Arguments3new17h0a1ea648a61f3074E, symObjAddr: 0x8F0, symBinAddr: 0x48020, symSize: 0x20 }
  - { offset: 0xD393E, size: 0x8, addend: 0x0, symName: __ZN4core3fmt9Arguments3new17h20ecc3252488dc1bE, symObjAddr: 0x930, symBinAddr: 0x48040, symSize: 0x20 }
  - { offset: 0xD398A, size: 0x8, addend: 0x0, symName: __ZN4core3fmt9Arguments3new17h2610df0c4959d067E, symObjAddr: 0x950, symBinAddr: 0x48060, symSize: 0x20 }
  - { offset: 0xD39D6, size: 0x8, addend: 0x0, symName: __ZN4core3fmt9Arguments3new17h29a0a81cb09413d0E, symObjAddr: 0x970, symBinAddr: 0x48080, symSize: 0x20 }
  - { offset: 0xD3A56, size: 0x8, addend: 0x0, symName: __ZN4core3fmt9Arguments3new17h2d613ff4ace287e2E, symObjAddr: 0x9B0, symBinAddr: 0x480A0, symSize: 0x20 }
  - { offset: 0xD3AF0, size: 0x8, addend: 0x0, symName: __ZN4core3fmt9Arguments3new17h41327c89fe7e574cE, symObjAddr: 0xA30, symBinAddr: 0x480C0, symSize: 0x20 }
  - { offset: 0xD3B22, size: 0x8, addend: 0x0, symName: __ZN4core3fmt9Arguments3new17h4bb269a11f2e208bE, symObjAddr: 0xA50, symBinAddr: 0x480E0, symSize: 0x20 }
  - { offset: 0xD3B88, size: 0x8, addend: 0x0, symName: __ZN4core3fmt9Arguments3new17h4df9fee1af817d07E, symObjAddr: 0xA70, symBinAddr: 0x48100, symSize: 0x20 }
  - { offset: 0xD3BD4, size: 0x8, addend: 0x0, symName: __ZN4core3fmt9Arguments3new17h51c55c99437bc689E, symObjAddr: 0xA90, symBinAddr: 0x48120, symSize: 0x20 }
  - { offset: 0xD3C3A, size: 0x8, addend: 0x0, symName: __ZN4core3fmt9Arguments3new17h63b42fb7346c5b32E, symObjAddr: 0xAD0, symBinAddr: 0x48140, symSize: 0x20 }
  - { offset: 0xD3C86, size: 0x8, addend: 0x0, symName: __ZN4core3fmt9Arguments3new17h6bfc77d2a74cf3aaE, symObjAddr: 0xAF0, symBinAddr: 0x48160, symSize: 0x20 }
  - { offset: 0xD3D06, size: 0x8, addend: 0x0, symName: __ZN4core3fmt9Arguments3new17h879335f4ca8cfb71E, symObjAddr: 0xB50, symBinAddr: 0x48180, symSize: 0x20 }
  - { offset: 0xD3DA0, size: 0x8, addend: 0x0, symName: __ZN4core3fmt9Arguments3new17hcc57e61ea589e8c7E, symObjAddr: 0xBD0, symBinAddr: 0x481A0, symSize: 0x20 }
  - { offset: 0xD3DEC, size: 0x8, addend: 0x0, symName: __ZN4core3fmt9Arguments3new17hcfe5de2308a5a816E, symObjAddr: 0xBF0, symBinAddr: 0x481C0, symSize: 0x20 }
  - { offset: 0xD3E52, size: 0x8, addend: 0x0, symName: __ZN4core3fmt9Arguments3new17hd823f751d2eeafdaE, symObjAddr: 0xC30, symBinAddr: 0x481E0, symSize: 0x20 }
  - { offset: 0xD3EB8, size: 0x8, addend: 0x0, symName: __ZN4core3fmt9Arguments3new17hf6b89990f59aafdcE, symObjAddr: 0xC90, symBinAddr: 0x48200, symSize: 0x20 }
  - { offset: 0xD3EEA, size: 0x8, addend: 0x0, symName: __ZN4core3fmt9Arguments8from_str17h3f0e5fa4b384d670E, symObjAddr: 0xCB0, symBinAddr: 0x48220, symSize: 0x20 }
  - { offset: 0xD3F0D, size: 0x8, addend: 0x0, symName: __ZN4core3fmt9Formatter9write_fmt17h7ec7e0fa922d31d7E, symObjAddr: 0xCD0, symBinAddr: 0x48240, symSize: 0xA0 }
  - { offset: 0xD4216, size: 0x8, addend: 0x0, symName: '__ZN92_$LT$hashbrown..map..Iter$LT$K$C$V$GT$$u20$as$u20$core..iter..traits..iterator..Iterator$GT$4next17hdbcbff6aaa8c24e2E', symObjAddr: 0x4230, symBinAddr: 0x4A390, symSize: 0xE0 }
  - { offset: 0xD44A2, size: 0x8, addend: 0x0, symName: '__ZN9hashbrown3map11make_hasher28_$u7b$$u7b$closure$u7d$$u7d$17hf25c6dc4430841ebE', symObjAddr: 0x44E0, symBinAddr: 0x4A640, symSize: 0x30 }
  - { offset: 0xD47B7, size: 0x8, addend: 0x0, symName: '__ZN4core3ptr8non_null16NonNull$LT$T$GT$20offset_from_unsigned17h28a7f1d38f17eb4bE', symObjAddr: 0x1800, symBinAddr: 0x48C80, symSize: 0x60 }
  - { offset: 0xD48CE, size: 0x8, addend: 0x0, symName: '__ZN4core3ptr8non_null16NonNull$LT$T$GT$20offset_from_unsigned17h36fcce75802092aaE', symObjAddr: 0x1860, symBinAddr: 0x48CE0, symSize: 0x60 }
  - { offset: 0xD4A06, size: 0x8, addend: 0x0, symName: '__ZN4core3ptr8non_null16NonNull$LT$T$GT$20offset_from_unsigned17h47d3b7fcacd9a41eE', symObjAddr: 0x18C0, symBinAddr: 0x48D40, symSize: 0x60 }
  - { offset: 0xD4B10, size: 0x8, addend: 0x0, symName: '__ZN4core3ptr8non_null16NonNull$LT$T$GT$20offset_from_unsigned17h5a79ac02d4450d8bE', symObjAddr: 0x1920, symBinAddr: 0x48DA0, symSize: 0x70 }
  - { offset: 0xD4C84, size: 0x8, addend: 0x0, symName: '__ZN4core3ptr8non_null16NonNull$LT$T$GT$20offset_from_unsigned17h6a6c71f430d8c4f5E', symObjAddr: 0x1990, symBinAddr: 0x48E10, symSize: 0x60 }
  - { offset: 0xD4D8E, size: 0x8, addend: 0x0, symName: '__ZN4core3ptr8non_null16NonNull$LT$T$GT$20offset_from_unsigned17h72b8210c80ed1643E', symObjAddr: 0x19F0, symBinAddr: 0x48E70, symSize: 0x60 }
  - { offset: 0xD4EF0, size: 0x8, addend: 0x0, symName: '__ZN4core3ptr8non_null16NonNull$LT$T$GT$3new17h44a601b8767065ffE', symObjAddr: 0x1AB0, symBinAddr: 0x48ED0, symSize: 0x50 }
  - { offset: 0xD4FAF, size: 0x8, addend: 0x0, symName: '__ZN4core3ptr8non_null16NonNull$LT$T$GT$3new17haf54875497a763c5E', symObjAddr: 0x1B00, symBinAddr: 0x48F20, symSize: 0x50 }
  - { offset: 0xD506E, size: 0x8, addend: 0x0, symName: '__ZN4core3ptr8non_null16NonNull$LT$T$GT$3new17hd63c93ac4ec6dfc7E', symObjAddr: 0x1B50, symBinAddr: 0x48F70, symSize: 0x50 }
  - { offset: 0xD5120, size: 0x8, addend: 0x0, symName: '__ZN4core3ptr8non_null16NonNull$LT$T$GT$3new17hf213bd263f1b2445E', symObjAddr: 0x1BA0, symBinAddr: 0x48FC0, symSize: 0x50 }
  - { offset: 0xD5220, size: 0x8, addend: 0x0, symName: '__ZN4core4iter8adapters7step_by15StepBy$LT$I$GT$3new17h3d200dcc6dfe94a7E', symObjAddr: 0x2010, symBinAddr: 0x49180, symSize: 0xD0 }
  - { offset: 0xD5318, size: 0x8, addend: 0x0, symName: '__ZN4core5slice4iter13Iter$LT$T$GT$3new17ha6cba4543ab685ebE', symObjAddr: 0x20E0, symBinAddr: 0x49250, symSize: 0x50 }
  - { offset: 0xD54B8, size: 0x8, addend: 0x0, symName: '__ZN4core5slice4iter13Iter$LT$T$GT$3new17hd791b40972753e07E', symObjAddr: 0x2130, symBinAddr: 0x492A0, symSize: 0x50 }
  - { offset: 0xD593C, size: 0x8, addend: 0x0, symName: '__ZN9hashbrown11rustc_entry62_$LT$impl$u20$hashbrown..map..HashMap$LT$K$C$V$C$S$C$A$GT$$GT$11rustc_entry17h95d5457048904a54E', symObjAddr: 0x4380, symBinAddr: 0x4A4E0, symSize: 0x160 }
  - { offset: 0xD5B5A, size: 0x8, addend: 0x0, symName: '__ZN9hashbrown3map28HashMap$LT$K$C$V$C$S$C$A$GT$4iter17h951e1837a2bae7d9E', symObjAddr: 0x4510, symBinAddr: 0x4A670, symSize: 0xDA }
  - { offset: 0xD5FDD, size: 0x8, addend: 0x0, symName: '__ZN81_$LT$pyo3..types..sequence..PySequence$u20$as$u20$pyo3..conversion..PyTryFrom$GT$18try_from_unchecked17h672998d3c0bbaa9eE', symObjAddr: 0x68A0, symBinAddr: 0x4CD40, symSize: 0x70 }
  - { offset: 0xD617E, size: 0x8, addend: 0x0, symName: '__ZN71_$LT$pyo3..types..bytes..PyBytes$u20$as$u20$core..ops..deref..Deref$GT$5deref17h368240c121d3a3cfE', symObjAddr: 0x63C0, symBinAddr: 0x4CCC0, symSize: 0x10 }
  - { offset: 0xD6406, size: 0x8, addend: 0x0, symName: __ZN4pyo38instance12PyNativeType2py17h893c50bffe28daa4E, symObjAddr: 0x5680, symBinAddr: 0x4CA10, symSize: 0x20 }
  - { offset: 0xD6448, size: 0x8, addend: 0x0, symName: '__ZN114_$LT$pyo3..pyclass_init..PyNativeTypeInitializer$LT$T$GT$$u20$as$u20$pyo3..pyclass_init..PyObjectInit$LT$T$GT$$GT$15into_new_object5inner17h99f7530c1f66e1efE', symObjAddr: 0x50, symBinAddr: 0x4A750, symSize: 0xF0 }
  - { offset: 0xD665A, size: 0x8, addend: 0x0, symName: __ZN4pyo310conversion13FromPyPointer14from_owned_ptr17hf0392bbf161548ffE, symObjAddr: 0x3D40, symBinAddr: 0x4C8F0, symSize: 0x20 }
  - { offset: 0xD66AC, size: 0x8, addend: 0x0, symName: __ZN4pyo310conversion13FromPyPointer21from_owned_ptr_or_err17h26bb0dfffa63212dE, symObjAddr: 0x3D60, symBinAddr: 0x4C910, symSize: 0x40 }
  - { offset: 0xD66FE, size: 0x8, addend: 0x0, symName: __ZN4pyo310conversion13FromPyPointer23from_owned_ptr_or_panic17h1e0abb8a1566eedeE, symObjAddr: 0x3DE0, symBinAddr: 0x4C950, symSize: 0x30 }
  - { offset: 0xD6771, size: 0x8, addend: 0x0, symName: '__ZN53_$LT$T$u20$as$u20$pyo3..conversion..FromPyPointer$GT$21from_owned_ptr_or_opt17h99bf0e14de70c046E', symObjAddr: 0x56E0, symBinAddr: 0x4CA30, symSize: 0xB0 }
  - { offset: 0xD6EE1, size: 0x8, addend: 0x0, symName: '__ZN4core3ptr9const_ptr33_$LT$impl$u20$$BP$const$u20$T$GT$20offset_from_unsigned18precondition_check17h31e351e8cdb86fadE', symObjAddr: 0x880, symBinAddr: 0x4A9D0, symSize: 0x50 }
  - { offset: 0xD6F87, size: 0x8, addend: 0x0, symName: '__ZN4core3ptr9const_ptr33_$LT$impl$u20$$BP$const$u20$T$GT$7is_null17h80e9bfa6be7ea359E', symObjAddr: 0x8F0, symBinAddr: 0x4AA20, symSize: 0x20 }
  - { offset: 0xD724E, size: 0x8, addend: 0x0, symName: '__ZN145_$LT$core..option..Option$LT$T$GT$$u20$as$u20$core..ops..try_trait..FromResidual$LT$core..option..Option$LT$core..convert..Infallible$GT$$GT$$GT$13from_residual17h018cfb4fe81b0a27E', symObjAddr: 0x380, symBinAddr: 0x4A840, symSize: 0x10 }
  - { offset: 0xD7281, size: 0x8, addend: 0x0, symName: '__ZN145_$LT$core..option..Option$LT$T$GT$$u20$as$u20$core..ops..try_trait..FromResidual$LT$core..option..Option$LT$core..convert..Infallible$GT$$GT$$GT$13from_residual17h1b3edeccb5efc99fE', symObjAddr: 0x390, symBinAddr: 0x4A850, symSize: 0x10 }
  - { offset: 0xD72B4, size: 0x8, addend: 0x0, symName: '__ZN145_$LT$core..option..Option$LT$T$GT$$u20$as$u20$core..ops..try_trait..FromResidual$LT$core..option..Option$LT$core..convert..Infallible$GT$$GT$$GT$13from_residual17h2006863fb6d3fad1E', symObjAddr: 0x3A0, symBinAddr: 0x4A860, symSize: 0x10 }
  - { offset: 0xD72E7, size: 0x8, addend: 0x0, symName: '__ZN145_$LT$core..option..Option$LT$T$GT$$u20$as$u20$core..ops..try_trait..FromResidual$LT$core..option..Option$LT$core..convert..Infallible$GT$$GT$$GT$13from_residual17h6ed95c50dd43db3aE', symObjAddr: 0x410, symBinAddr: 0x4A870, symSize: 0x10 }
  - { offset: 0xD731A, size: 0x8, addend: 0x0, symName: '__ZN145_$LT$core..option..Option$LT$T$GT$$u20$as$u20$core..ops..try_trait..FromResidual$LT$core..option..Option$LT$core..convert..Infallible$GT$$GT$$GT$13from_residual17h79cca5aafa954699E', symObjAddr: 0x420, symBinAddr: 0x4A880, symSize: 0x10 }
  - { offset: 0xD734D, size: 0x8, addend: 0x0, symName: '__ZN145_$LT$core..option..Option$LT$T$GT$$u20$as$u20$core..ops..try_trait..FromResidual$LT$core..option..Option$LT$core..convert..Infallible$GT$$GT$$GT$13from_residual17hb2deea776db91435E', symObjAddr: 0x460, symBinAddr: 0x4A890, symSize: 0x10 }
  - { offset: 0xD7380, size: 0x8, addend: 0x0, symName: '__ZN145_$LT$core..option..Option$LT$T$GT$$u20$as$u20$core..ops..try_trait..FromResidual$LT$core..option..Option$LT$core..convert..Infallible$GT$$GT$$GT$13from_residual17hde90cc8a3e753c3fE', symObjAddr: 0x490, symBinAddr: 0x4A8A0, symSize: 0x10 }
  - { offset: 0xD9A0D, size: 0x8, addend: 0x0, symName: '__ZN66_$LT$core..option..Option$LT$T$GT$$u20$as$u20$core..fmt..Debug$GT$3fmt17h3939cf800f1ff8baE', symObjAddr: 0x5A60, symBinAddr: 0x4CBE0, symSize: 0x90 }
  - { offset: 0xD9A77, size: 0x8, addend: 0x0, symName: '__ZN68_$LT$core..option..Option$LT$T$GT$$u20$as$u20$core..clone..Clone$GT$5clone17hb5fea23e4b0f6667E', symObjAddr: 0x5E10, symBinAddr: 0x4CC70, symSize: 0x50 }
  - { offset: 0xD9AD2, size: 0x8, addend: 0x0, symName: '__ZN72_$LT$core..option..Option$LT$T$GT$$u20$as$u20$core..default..Default$GT$7default17h02237ead5bf94c48E', symObjAddr: 0x63D0, symBinAddr: 0x4CCD0, symSize: 0x10 }
  - { offset: 0xD9AFA, size: 0x8, addend: 0x0, symName: '__ZN72_$LT$core..option..Option$LT$T$GT$$u20$as$u20$core..default..Default$GT$7default17h84a9b0f7dfd6cc58E', symObjAddr: 0x63E0, symBinAddr: 0x4CCE0, symSize: 0x10 }
  - { offset: 0xD9B22, size: 0x8, addend: 0x0, symName: '__ZN72_$LT$core..option..Option$LT$T$GT$$u20$as$u20$core..default..Default$GT$7default17hfefb71b2b340fb83E', symObjAddr: 0x63F0, symBinAddr: 0x4CCF0, symSize: 0x10 }
  - { offset: 0xD9B50, size: 0x8, addend: 0x0, symName: '__ZN75_$LT$core..option..Option$LT$T$GT$$u20$as$u20$core..ops..try_trait..Try$GT$6branch17h9d6dc6f90346cc8eE', symObjAddr: 0x6770, symBinAddr: 0x4CD00, symSize: 0x40 }
  - { offset: 0xDA7D5, size: 0x8, addend: 0x0, symName: '__ZN4core3str6traits108_$LT$impl$u20$core..slice..index..SliceIndex$LT$str$GT$$u20$for$u20$core..ops..range..Range$LT$usize$GT$$GT$13get_unchecked18precondition_check17hdba308342b509bc0E', symObjAddr: 0x910, symBinAddr: 0x4AA40, symSize: 0x70 }
  - { offset: 0xDA83D, size: 0x8, addend: 0x0, symName: '__ZN4core3str6traits54_$LT$impl$u20$core..cmp..PartialEq$u20$for$u20$str$GT$2eq17h048b3d57100bc9baE', symObjAddr: 0x980, symBinAddr: 0x4AAB0, symSize: 0x80 }
  - { offset: 0xDAA68, size: 0x8, addend: 0x0, symName: '__ZN4core5slice4iter87_$LT$impl$u20$core..iter..traits..collect..IntoIterator$u20$for$u20$$RF$$u5b$T$u5d$$GT$9into_iter17h70b3b00bc3f0b5baE', symObjAddr: 0xA00, symBinAddr: 0x4AB30, symSize: 0x50 }
  - { offset: 0xDAD26, size: 0x8, addend: 0x0, symName: '__ZN4core5tuple66_$LT$impl$u20$core..default..Default$u20$for$u20$$LP$U$C$T$RP$$GT$7default17hb93476a66fe8f598E', symObjAddr: 0xA50, symBinAddr: 0x4AB80, symSize: 0x70 }
  - { offset: 0xDAFFB, size: 0x8, addend: 0x0, symName: __ZN4core3fmt2rt8Argument11new_display17h1b1d99c74dd13bffE, symObjAddr: 0x690, symBinAddr: 0x4A8B0, symSize: 0x30 }
  - { offset: 0xDB067, size: 0x8, addend: 0x0, symName: __ZN4core3fmt2rt8Argument11new_display17h29f35f417cc605f6E, symObjAddr: 0x6F0, symBinAddr: 0x4A8E0, symSize: 0x30 }
  - { offset: 0xDB0AC, size: 0x8, addend: 0x0, symName: __ZN4core3fmt2rt8Argument11new_display17h661ea45109fe0dbfE, symObjAddr: 0x720, symBinAddr: 0x4A910, symSize: 0x30 }
  - { offset: 0xDB37A, size: 0x8, addend: 0x0, symName: '__ZN5alloc3fmt6format28_$u7b$$u7b$closure$u7d$$u7d$17h3a120702d2bbaaddE', symObjAddr: 0x5910, symBinAddr: 0x4CBB0, symSize: 0x30 }
  - { offset: 0xDB3AB, size: 0x8, addend: 0x0, symName: __ZN5alloc3fmt6format17hd0300940326b3517E, symObjAddr: 0x5840, symBinAddr: 0x4CAE0, symSize: 0xD0 }
  - { offset: 0xDB4DC, size: 0x8, addend: 0x0, symName: __ZN4core3fmt2rt8Argument11new_display17ha6718bf9612beac6E, symObjAddr: 0x7B0, symBinAddr: 0x4A940, symSize: 0x30 }
  - { offset: 0xDB514, size: 0x8, addend: 0x0, symName: __ZN4core3fmt2rt8Argument11new_display17hb0143632d30f526bE, symObjAddr: 0x7E0, symBinAddr: 0x4A970, symSize: 0x30 }
  - { offset: 0xDB53F, size: 0x8, addend: 0x0, symName: __ZN4core3fmt2rt8Argument11new_display17hf66f3d0c84a6c6b8E, symObjAddr: 0x810, symBinAddr: 0x4A9A0, symSize: 0x30 }
  - { offset: 0xDB6FD, size: 0x8, addend: 0x0, symName: '__ZN4core6option15Option$LT$T$GT$10ok_or_else17h19026383f47096d5E', symObjAddr: 0xAC0, symBinAddr: 0x4ABF0, symSize: 0xA0 }
  - { offset: 0xDB782, size: 0x8, addend: 0x0, symName: '__ZN4core6option15Option$LT$T$GT$10ok_or_else17h3546826c24c546f1E', symObjAddr: 0xC00, symBinAddr: 0x4AC90, symSize: 0xA0 }
  - { offset: 0xDB7ED, size: 0x8, addend: 0x0, symName: '__ZN4core6option15Option$LT$T$GT$10ok_or_else17h683674d2d058fb45E', symObjAddr: 0xD40, symBinAddr: 0x4AD30, symSize: 0xA0 }
  - { offset: 0xDB858, size: 0x8, addend: 0x0, symName: '__ZN4core6option15Option$LT$T$GT$10ok_or_else17h9fd8ad3edeb9487aE', symObjAddr: 0xF20, symBinAddr: 0x4ADD0, symSize: 0xA0 }
  - { offset: 0xDB8D0, size: 0x8, addend: 0x0, symName: '__ZN4core6option15Option$LT$T$GT$10ok_or_else17hb51ba971c3056e9cE', symObjAddr: 0x1100, symBinAddr: 0x4AE70, symSize: 0xA0 }
  - { offset: 0xDB987, size: 0x8, addend: 0x0, symName: '__ZN4core6option15Option$LT$T$GT$11map_or_else17h8fddf2b99e741a1aE', symObjAddr: 0x1380, symBinAddr: 0x4AF10, symSize: 0xB0 }
  - { offset: 0xDBA36, size: 0x8, addend: 0x0, symName: '__ZN4core6option15Option$LT$T$GT$14unwrap_or_else17h01cf49cac278565eE', symObjAddr: 0x1430, symBinAddr: 0x4AFC0, symSize: 0x70 }
  - { offset: 0xDBA88, size: 0x8, addend: 0x0, symName: '__ZN4core6option15Option$LT$T$GT$14unwrap_or_else17h49beb38ff9e0c839E', symObjAddr: 0x1540, symBinAddr: 0x4B030, symSize: 0x50 }
  - { offset: 0xDBACC, size: 0x8, addend: 0x0, symName: '__ZN4core6option15Option$LT$T$GT$14unwrap_or_else17h4f4559ab91d4b4dcE', symObjAddr: 0x1590, symBinAddr: 0x4B080, symSize: 0x50 }
  - { offset: 0xDBB10, size: 0x8, addend: 0x0, symName: '__ZN4core6option15Option$LT$T$GT$14unwrap_or_else17h579d00f024d480cfE', symObjAddr: 0x1630, symBinAddr: 0x4B0D0, symSize: 0x50 }
  - { offset: 0xDBB61, size: 0x8, addend: 0x0, symName: '__ZN4core6option15Option$LT$T$GT$14unwrap_or_else17h5ffbddece510490eE', symObjAddr: 0x1680, symBinAddr: 0x4B120, symSize: 0x50 }
  - { offset: 0xDBBA5, size: 0x8, addend: 0x0, symName: '__ZN4core6option15Option$LT$T$GT$14unwrap_or_else17h7c17764bede4fa13E', symObjAddr: 0x1720, symBinAddr: 0x4B170, symSize: 0x50 }
  - { offset: 0xDBC03, size: 0x8, addend: 0x0, symName: '__ZN4core6option15Option$LT$T$GT$14unwrap_or_else17h96cbfb3ac90606e2E', symObjAddr: 0x17C0, symBinAddr: 0x4B1C0, symSize: 0x50 }
  - { offset: 0xDBC47, size: 0x8, addend: 0x0, symName: '__ZN4core6option15Option$LT$T$GT$14unwrap_or_else17hbc252bbbd8845234E', symObjAddr: 0x1860, symBinAddr: 0x4B210, symSize: 0x50 }
  - { offset: 0xDBC98, size: 0x8, addend: 0x0, symName: '__ZN4core6option15Option$LT$T$GT$14unwrap_or_else17hda39eaabf86ae46dE', symObjAddr: 0x1900, symBinAddr: 0x4B260, symSize: 0x50 }
  - { offset: 0xDBCDC, size: 0x8, addend: 0x0, symName: '__ZN4core6option15Option$LT$T$GT$14unwrap_or_else17hff8b9cc09ba6fc4fE', symObjAddr: 0x19A0, symBinAddr: 0x4B2B0, symSize: 0x50 }
  - { offset: 0xDBD3E, size: 0x8, addend: 0x0, symName: '__ZN4core6option15Option$LT$T$GT$17unwrap_or_default17hb10c1a317d18d644E', symObjAddr: 0x1A60, symBinAddr: 0x4B300, symSize: 0x60 }
  - { offset: 0xDBD6B, size: 0x8, addend: 0x0, symName: '__ZN4core6option15Option$LT$T$GT$3map17h1e4c233c8551e585E', symObjAddr: 0x1BC0, symBinAddr: 0x4B360, symSize: 0x60 }
  - { offset: 0xDBDD6, size: 0x8, addend: 0x0, symName: '__ZN4core6option15Option$LT$T$GT$3map17h2a62afaa8a3e9909E', symObjAddr: 0x1D20, symBinAddr: 0x4B3C0, symSize: 0x60 }
  - { offset: 0xDBE41, size: 0x8, addend: 0x0, symName: '__ZN4core6option15Option$LT$T$GT$3map17h31893d75405661a9E', symObjAddr: 0x1D80, symBinAddr: 0x4B420, symSize: 0x50 }
  - { offset: 0xDBEAC, size: 0x8, addend: 0x0, symName: '__ZN4core6option15Option$LT$T$GT$3map17h32b8cf5f7a6b0876E', symObjAddr: 0x1DD0, symBinAddr: 0x4B470, symSize: 0x90 }
  - { offset: 0xDBF19, size: 0x8, addend: 0x0, symName: '__ZN4core6option15Option$LT$T$GT$3map17h3743e58fc9f185ecE', symObjAddr: 0x1EE0, symBinAddr: 0x4B500, symSize: 0x60 }
  - { offset: 0xDBF9C, size: 0x8, addend: 0x0, symName: '__ZN4core6option15Option$LT$T$GT$3map17h3e470ff4b5d6c2f2E', symObjAddr: 0x1F40, symBinAddr: 0x4B560, symSize: 0x90 }
  - { offset: 0xDC025, size: 0x8, addend: 0x0, symName: '__ZN4core6option15Option$LT$T$GT$3map17h43c82b1ef7ffd20bE', symObjAddr: 0x1FD0, symBinAddr: 0x4B5F0, symSize: 0x60 }
  - { offset: 0xDC09D, size: 0x8, addend: 0x0, symName: '__ZN4core6option15Option$LT$T$GT$3map17h465e4efe0730c0aeE', symObjAddr: 0x2030, symBinAddr: 0x4B650, symSize: 0x50 }
  - { offset: 0xDC120, size: 0x8, addend: 0x0, symName: '__ZN4core6option15Option$LT$T$GT$3map17h4e0291233c2120d7E', symObjAddr: 0x2080, symBinAddr: 0x4B6A0, symSize: 0xB0 }
  - { offset: 0xDC18D, size: 0x8, addend: 0x0, symName: '__ZN4core6option15Option$LT$T$GT$3map17h58e88933cee430c0E', symObjAddr: 0x2130, symBinAddr: 0x4B750, symSize: 0x60 }
  - { offset: 0xDC205, size: 0x8, addend: 0x0, symName: '__ZN4core6option15Option$LT$T$GT$3map17h81f2b45c30514531E', symObjAddr: 0x21F0, symBinAddr: 0x4B7B0, symSize: 0x50 }
  - { offset: 0xDC288, size: 0x8, addend: 0x0, symName: '__ZN4core6option15Option$LT$T$GT$3map17h894830357f7eb0f7E', symObjAddr: 0x22D0, symBinAddr: 0x4B800, symSize: 0x50 }
  - { offset: 0xDC2F3, size: 0x8, addend: 0x0, symName: '__ZN4core6option15Option$LT$T$GT$3map17h8e6ec1364411f491E', symObjAddr: 0x2320, symBinAddr: 0x4B850, symSize: 0x50 }
  - { offset: 0xDC3A4, size: 0x8, addend: 0x0, symName: '__ZN4core6option15Option$LT$T$GT$3map17h921755dfe8307e27E', symObjAddr: 0x23D0, symBinAddr: 0x4B8A0, symSize: 0x80 }
  - { offset: 0xDC410, size: 0x8, addend: 0x0, symName: '__ZN4core6option15Option$LT$T$GT$3map17h991f269b21a3a4c9E', symObjAddr: 0x2450, symBinAddr: 0x4B920, symSize: 0x50 }
  - { offset: 0xDC47B, size: 0x8, addend: 0x0, symName: '__ZN4core6option15Option$LT$T$GT$3map17ha0c751e1a09c8780E', symObjAddr: 0x24A0, symBinAddr: 0x4B970, symSize: 0x60 }
  - { offset: 0xDC4E6, size: 0x8, addend: 0x0, symName: '__ZN4core6option15Option$LT$T$GT$3map17hab9d15697fc5b405E', symObjAddr: 0x2580, symBinAddr: 0x4B9D0, symSize: 0x60 }
  - { offset: 0xDC55E, size: 0x8, addend: 0x0, symName: '__ZN4core6option15Option$LT$T$GT$3map17hafaa0f8d85e4b50eE', symObjAddr: 0x25E0, symBinAddr: 0x4BA30, symSize: 0x60 }
  - { offset: 0xDC5E1, size: 0x8, addend: 0x0, symName: '__ZN4core6option15Option$LT$T$GT$3map17hcbf7209e285478b5E', symObjAddr: 0x27C0, symBinAddr: 0x4BA90, symSize: 0x90 }
  - { offset: 0xDC659, size: 0x8, addend: 0x0, symName: '__ZN4core6option15Option$LT$T$GT$3map17he431228f25162db9E', symObjAddr: 0x2950, symBinAddr: 0x4BB20, symSize: 0x50 }
  - { offset: 0xDC6C4, size: 0x8, addend: 0x0, symName: '__ZN4core6option15Option$LT$T$GT$3map17hfd7dc4e73f1c4b6fE', symObjAddr: 0x29A0, symBinAddr: 0x4BB70, symSize: 0x80 }
  - { offset: 0xDC73C, size: 0x8, addend: 0x0, symName: '__ZN4core6option15Option$LT$T$GT$4take17h00a665323cfbd4a2E', symObjAddr: 0x2A20, symBinAddr: 0x4BBF0, symSize: 0x60 }
  - { offset: 0xDC793, size: 0x8, addend: 0x0, symName: '__ZN4core6option15Option$LT$T$GT$4take17h3bbdb2cbba799e53E', symObjAddr: 0x2A80, symBinAddr: 0x4BC50, symSize: 0x20 }
  - { offset: 0xDC7EA, size: 0x8, addend: 0x0, symName: '__ZN4core6option15Option$LT$T$GT$4take17h6ecdc3e78dc873f2E', symObjAddr: 0x2AA0, symBinAddr: 0x4BC70, symSize: 0x20 }
  - { offset: 0xDC834, size: 0x8, addend: 0x0, symName: '__ZN4core6option15Option$LT$T$GT$5ok_or17ha6222052585ee548E', symObjAddr: 0x2AC0, symBinAddr: 0x4BC90, symSize: 0x90 }
  - { offset: 0xDC8A3, size: 0x8, addend: 0x0, symName: '__ZN4core6option15Option$LT$T$GT$6as_ref17h03d9e8d6ed0f7e1aE', symObjAddr: 0x2B50, symBinAddr: 0x4BD20, symSize: 0x50 }
  - { offset: 0xDC907, size: 0x8, addend: 0x0, symName: '__ZN4core6option15Option$LT$T$GT$6as_ref17h095eae02a1594defE', symObjAddr: 0x2BA0, symBinAddr: 0x4BD70, symSize: 0x50 }
  - { offset: 0xDC95E, size: 0x8, addend: 0x0, symName: '__ZN4core6option15Option$LT$T$GT$6as_ref17h0e8ae515fab1191aE', symObjAddr: 0x2BF0, symBinAddr: 0x4BDC0, symSize: 0x40 }
  - { offset: 0xDC9C2, size: 0x8, addend: 0x0, symName: '__ZN4core6option15Option$LT$T$GT$6as_ref17h2c2510e743199a94E', symObjAddr: 0x2C30, symBinAddr: 0x4BE00, symSize: 0x50 }
  - { offset: 0xDCA26, size: 0x8, addend: 0x0, symName: '__ZN4core6option15Option$LT$T$GT$6as_ref17h41c5f70c3ee195f6E', symObjAddr: 0x2C80, symBinAddr: 0x4BE50, symSize: 0x50 }
  - { offset: 0xDCA8A, size: 0x8, addend: 0x0, symName: '__ZN4core6option15Option$LT$T$GT$6as_ref17hbc3674963d489b22E', symObjAddr: 0x2CD0, symBinAddr: 0x4BEA0, symSize: 0x50 }
  - { offset: 0xDCAEE, size: 0x8, addend: 0x0, symName: '__ZN4core6option15Option$LT$T$GT$6as_ref17hc028e60c576087e5E', symObjAddr: 0x2D20, symBinAddr: 0x4BEF0, symSize: 0x40 }
  - { offset: 0xDCBA5, size: 0x8, addend: 0x0, symName: '__ZN4core6option15Option$LT$T$GT$6as_ref17hd88749345a7ab629E', symObjAddr: 0x2D60, symBinAddr: 0x4BF30, symSize: 0x50 }
  - { offset: 0xDCC09, size: 0x8, addend: 0x0, symName: '__ZN4core6option15Option$LT$T$GT$6as_ref17he7d5c6dd5310879fE', symObjAddr: 0x2DB0, symBinAddr: 0x4BF80, symSize: 0x50 }
  - { offset: 0xDCC53, size: 0x8, addend: 0x0, symName: '__ZN4core6option15Option$LT$T$GT$6expect17h919dae19af24aedfE', symObjAddr: 0x2E00, symBinAddr: 0x4BFD0, symSize: 0x60 }
  - { offset: 0xDCC8E, size: 0x8, addend: 0x0, symName: '__ZN4core6option15Option$LT$T$GT$6expect17h9da14a8d3c97672dE', symObjAddr: 0x2E60, symBinAddr: 0x4C030, symSize: 0x60 }
  - { offset: 0xDCCC9, size: 0x8, addend: 0x0, symName: '__ZN4core6option15Option$LT$T$GT$6expect17he3345364218ead4bE', symObjAddr: 0x2EC0, symBinAddr: 0x4C090, symSize: 0x80 }
  - { offset: 0xDCD1D, size: 0x8, addend: 0x0, symName: '__ZN4core6option15Option$LT$T$GT$6map_or17h26bf06fe59f8ed40E', symObjAddr: 0x2FD0, symBinAddr: 0x4C110, symSize: 0x90 }
  - { offset: 0xDCDA7, size: 0x8, addend: 0x0, symName: '__ZN4core6option15Option$LT$T$GT$6map_or17h386852978ec61c2eE', symObjAddr: 0x3060, symBinAddr: 0x4C1A0, symSize: 0x90 }
  - { offset: 0xDCE3E, size: 0x8, addend: 0x0, symName: '__ZN4core6option15Option$LT$T$GT$6map_or17h54a16729781278f3E', symObjAddr: 0x3180, symBinAddr: 0x4C230, symSize: 0xA0 }
  - { offset: 0xDCEB1, size: 0x8, addend: 0x0, symName: '__ZN4core6option15Option$LT$T$GT$6map_or17hbb96b9498601b456E', symObjAddr: 0x33D0, symBinAddr: 0x4C2D0, symSize: 0x90 }
  - { offset: 0xDCF3B, size: 0x8, addend: 0x0, symName: '__ZN4core6option15Option$LT$T$GT$6map_or17hc2609eb72c8b4b85E', symObjAddr: 0x3460, symBinAddr: 0x4C360, symSize: 0x90 }
  - { offset: 0xDCFD6, size: 0x8, addend: 0x0, symName: '__ZN4core6option15Option$LT$T$GT$7is_none17h0104ade6bdcfdd93E', symObjAddr: 0x3590, symBinAddr: 0x4C3F0, symSize: 0x30 }
  - { offset: 0xDD03C, size: 0x8, addend: 0x0, symName: '__ZN4core6option15Option$LT$T$GT$7is_none17hc5f216d888f07cf5E', symObjAddr: 0x35C0, symBinAddr: 0x4C420, symSize: 0x30 }
  - { offset: 0xDD0A2, size: 0x8, addend: 0x0, symName: '__ZN4core6option15Option$LT$T$GT$7is_none17hf7abe2b66dfccce4E', symObjAddr: 0x35F0, symBinAddr: 0x4C450, symSize: 0x30 }
  - { offset: 0xDD0EC, size: 0x8, addend: 0x0, symName: '__ZN4core6option15Option$LT$T$GT$7is_some17h1bbcdb2977ff4df1E', symObjAddr: 0x3620, symBinAddr: 0x4C480, symSize: 0x30 }
  - { offset: 0xDD118, size: 0x8, addend: 0x0, symName: '__ZN4core6option15Option$LT$T$GT$7is_some17h304f1b245aeb99f9E', symObjAddr: 0x3650, symBinAddr: 0x4C4B0, symSize: 0x20 }
  - { offset: 0xDD144, size: 0x8, addend: 0x0, symName: '__ZN4core6option15Option$LT$T$GT$7is_some17h3f851a5cb2db7af1E', symObjAddr: 0x3670, symBinAddr: 0x4C4D0, symSize: 0x30 }
  - { offset: 0xDD17D, size: 0x8, addend: 0x0, symName: '__ZN4core6option15Option$LT$T$GT$7is_some17h47bcf9f51f4ac745E', symObjAddr: 0x36A0, symBinAddr: 0x4C500, symSize: 0x20 }
  - { offset: 0xDD1A9, size: 0x8, addend: 0x0, symName: '__ZN4core6option15Option$LT$T$GT$7is_some17h4b475ad860dda70dE', symObjAddr: 0x36C0, symBinAddr: 0x4C520, symSize: 0x30 }
  - { offset: 0xDD1E2, size: 0x8, addend: 0x0, symName: '__ZN4core6option15Option$LT$T$GT$7is_some17hb9c1538c5a48bc8bE', symObjAddr: 0x36F0, symBinAddr: 0x4C550, symSize: 0x30 }
  - { offset: 0xDD21B, size: 0x8, addend: 0x0, symName: '__ZN4core6option15Option$LT$T$GT$7is_some17hcf9d463e988037edE', symObjAddr: 0x3720, symBinAddr: 0x4C580, symSize: 0x30 }
  - { offset: 0xDD247, size: 0x8, addend: 0x0, symName: '__ZN4core6option15Option$LT$T$GT$7is_some17hcfda7febb59decb9E', symObjAddr: 0x3750, symBinAddr: 0x4C5B0, symSize: 0x30 }
  - { offset: 0xDD273, size: 0x8, addend: 0x0, symName: '__ZN4core6option15Option$LT$T$GT$7is_some17hd24665812b6e4b6cE', symObjAddr: 0x3780, symBinAddr: 0x4C5E0, symSize: 0x30 }
  - { offset: 0xDD29F, size: 0x8, addend: 0x0, symName: '__ZN4core6option15Option$LT$T$GT$7is_some17hf9203f22b47ef61bE', symObjAddr: 0x37B0, symBinAddr: 0x4C610, symSize: 0x30 }
  - { offset: 0xDD2CB, size: 0x8, addend: 0x0, symName: '__ZN4core6option15Option$LT$T$GT$8and_then17hc1906b02f9afa320E', symObjAddr: 0x3880, symBinAddr: 0x4C640, symSize: 0x60 }
  - { offset: 0xDD3F0, size: 0x8, addend: 0x0, symName: '__ZN4core6option15Option$LT$T$GT$8as_deref17hdfc26b5fd90dc96fE', symObjAddr: 0x38E0, symBinAddr: 0x4C6A0, symSize: 0x70 }
  - { offset: 0xDD499, size: 0x8, addend: 0x0, symName: '__ZN4core6option15Option$LT$T$GT$9unwrap_or17h5db66659acd6990eE', symObjAddr: 0x3950, symBinAddr: 0x4C710, symSize: 0x70 }
  - { offset: 0xDD4F1, size: 0x8, addend: 0x0, symName: '__ZN4core6option15Option$LT$T$GT$9unwrap_or17h776dfc3a412774ffE', symObjAddr: 0x39C0, symBinAddr: 0x4C780, symSize: 0x50 }
  - { offset: 0xDD52C, size: 0x8, addend: 0x0, symName: '__ZN4core6option47Option$LT$core..result..Result$LT$T$C$E$GT$$GT$9transpose17h95ad482a26a7195dE', symObjAddr: 0x3A50, symBinAddr: 0x4C7D0, symSize: 0x120 }
  - { offset: 0xDD59F, size: 0x8, addend: 0x0, symName: __ZN4pyo35types5bytes7PyBytes8as_bytes17h4945ff0e7e149a83E, symObjAddr: 0x4540, symBinAddr: 0x4C980, symSize: 0x90 }
  - { offset: 0xDD63A, size: 0x8, addend: 0x0, symName: '__ZN96_$LT$core..option..Option$LT$T$GT$$u20$as$u20$parking_lot..util..UncheckedOptionExt$LT$T$GT$$GT$16unchecked_unwrap17h15221a22fa286adfE', symObjAddr: 0x6C10, symBinAddr: 0x4CDB0, symSize: 0x30 }
  - { offset: 0xDD66B, size: 0x8, addend: 0x0, symName: '__ZN96_$LT$core..option..Option$LT$T$GT$$u20$as$u20$parking_lot..util..UncheckedOptionExt$LT$T$GT$$GT$16unchecked_unwrap17he6b016e8137127bcE', symObjAddr: 0x6C40, symBinAddr: 0x4CDE0, symSize: 0x30 }
  - { offset: 0xDD6F5, size: 0x8, addend: 0x0, symName: __ZN9hashbrown7control5group4sse25Group44convert_special_to_empty_and_full_to_deleted17h9b4ca9db0bd70c77E, symObjAddr: 0x6CA0, symBinAddr: 0x4CE10, symSize: 0xC8 }
  - { offset: 0xDD7E9, size: 0x8, addend: 0x0, symName: '__ZN45_$LT$T$u20$as$u20$alloc..string..ToString$GT$9to_string17h066adfa7c701ca34E', symObjAddr: 0xED0, symBinAddr: 0x4D930, symSize: 0x30 }
  - { offset: 0xDD826, size: 0x8, addend: 0x0, symName: '__ZN49_$LT$T$u20$as$u20$alloc..string..SpecToString$GT$14spec_to_string17h66bd2761d644dbe8E', symObjAddr: 0xF60, symBinAddr: 0x4D960, symSize: 0x120 }
  - { offset: 0xDDB2B, size: 0x8, addend: 0x0, symName: '__ZN64_$LT$alloc..ffi..c_str..NulError$u20$as$u20$core..fmt..Debug$GT$3fmt17h7817ca7eabfa00afE', symObjAddr: 0x5390, symBinAddr: 0x4F890, symSize: 0x60 }
  - { offset: 0xDDB6B, size: 0x8, addend: 0x0, symName: '__ZN68_$LT$alloc..ffi..c_str..CString$u20$as$u20$core..ops..drop..Drop$GT$4drop17h3d4360fb2a724726E', symObjAddr: 0x5980, symBinAddr: 0x4F910, symSize: 0x60 }
  - { offset: 0xDDBD7, size: 0x8, addend: 0x0, symName: '__ZN70_$LT$alloc..ffi..c_str..CString$u20$as$u20$core..ops..deref..Deref$GT$5deref17h0bb1dc05de021484E', symObjAddr: 0x6270, symBinAddr: 0x4F980, symSize: 0x20 }
  - { offset: 0xDDC65, size: 0x8, addend: 0x0, symName: '__ZN97_$LT$alloc..ffi..c_str..CString$u20$as$u20$core..borrow..Borrow$LT$core..ffi..c_str..CStr$GT$$GT$6borrow17h833df172a4882857E', symObjAddr: 0x6F40, symBinAddr: 0x4FB70, symSize: 0x11 }
  - { offset: 0xDE4D9, size: 0x8, addend: 0x0, symName: '__ZN4core3num20_$LT$impl$u20$u8$GT$16from_ascii_radix17he47a1f5df81632f3E', symObjAddr: 0x1740, symBinAddr: 0x4DB80, symSize: 0x400 }
  - { offset: 0xDE78C, size: 0x8, addend: 0x0, symName: '__ZN4core3num23_$LT$impl$u20$isize$GT$13unchecked_neg18precondition_check17hfb39ba1480607373E', symObjAddr: 0x1B90, symBinAddr: 0x4DF80, symSize: 0x60 }
  - { offset: 0xDE843, size: 0x8, addend: 0x0, symName: '__ZN4core3num23_$LT$impl$u20$usize$GT$13unchecked_add18precondition_check17h5e18fbc88fef89d5E', symObjAddr: 0x1C60, symBinAddr: 0x4DFE0, symSize: 0x60 }
  - { offset: 0xDE8C3, size: 0x8, addend: 0x0, symName: '__ZN4core3num59_$LT$impl$u20$core..str..traits..FromStr$u20$for$u20$u8$GT$8from_str17ha954837184b8dedbE', symObjAddr: 0x1CC0, symBinAddr: 0x4E040, symSize: 0x30 }
  - { offset: 0xE082D, size: 0x8, addend: 0x0, symName: __ZN4core3cmp9PartialEq2ne17hb71c062225378678E, symObjAddr: 0x1720, symBinAddr: 0x4DB60, symSize: 0x20 }
  - { offset: 0xE08CA, size: 0x8, addend: 0x0, symName: '__ZN4core5slice29_$LT$impl$u20$$u5b$T$u5d$$GT$8contains17ha15dec10aa38a559E', symObjAddr: 0x1E40, symBinAddr: 0x4E1C0, symSize: 0x30 }
  - { offset: 0xE097A, size: 0x8, addend: 0x0, symName: __ZN4core5slice3raw14from_raw_parts17h8edc66a08d6ae9d8E, symObjAddr: 0x1E70, symBinAddr: 0x4E1F0, symSize: 0x50 }
  - { offset: 0xE09C2, size: 0x8, addend: 0x0, symName: __ZN4core5slice3raw14from_raw_parts18precondition_check17h08a0590c8705fc75E, symObjAddr: 0x1EC0, symBinAddr: 0x4E240, symSize: 0x100 }
  - { offset: 0xE0B12, size: 0x8, addend: 0x0, symName: __ZN4core5slice3raw18from_raw_parts_mut18precondition_check17ha6a9c8e03e3ac8eeE, symObjAddr: 0x2010, symBinAddr: 0x4E340, symSize: 0x100 }
  - { offset: 0xE0CC2, size: 0x8, addend: 0x0, symName: '__ZN53_$LT$T$u20$as$u20$core..slice..cmp..SliceContains$GT$14slice_contains17hc04afe06745e8279E', symObjAddr: 0x4A80, symBinAddr: 0x4F6B0, symSize: 0x70 }
  - { offset: 0xE0E9E, size: 0x8, addend: 0x0, symName: __ZN4core3str8converts19from_utf8_unchecked17h1e4cc078972c90d2E, symObjAddr: 0x1CF0, symBinAddr: 0x4E070, symSize: 0x20 }
  - { offset: 0xE0EEA, size: 0x8, addend: 0x0, symName: '__ZN4core4iter6traits8iterator8Iterator12try_for_each4call28_$u7b$$u7b$closure$u7d$$u7d$17hb01a9cf36b89c031E', symObjAddr: 0x1D10, symBinAddr: 0x4E090, symSize: 0x50 }
  - { offset: 0xE0F5C, size: 0x8, addend: 0x0, symName: '__ZN4core4iter6traits8iterator8Iterator8find_map5check28_$u7b$$u7b$closure$u7d$$u7d$17ha291a024f5ea9d6cE', symObjAddr: 0x1D60, symBinAddr: 0x4E0E0, symSize: 0x70 }
  - { offset: 0xE0FDF, size: 0x8, addend: 0x0, symName: '__ZN4core4iter6traits8iterator8Iterator8find_map5check28_$u7b$$u7b$closure$u7d$$u7d$17hf1506a511c1ba845E', symObjAddr: 0x1DD0, symBinAddr: 0x4E150, symSize: 0x70 }
  - { offset: 0xE13C4, size: 0x8, addend: 0x0, symName: '__ZN4pyo33err9err_state10PyErrState4lazy28_$u7b$$u7b$closure$u7d$$u7d$17h4c34aeb4f848c7c6E', symObjAddr: 0x25B0, symBinAddr: 0x4E770, symSize: 0x60 }
  - { offset: 0xE1426, size: 0x8, addend: 0x0, symName: __ZN4pyo33err9err_state10raise_lazy17h3d1391f549404a32E, symObjAddr: 0x2BF0, symBinAddr: 0x4EDB0, symSize: 0x120 }
  - { offset: 0xE1499, size: 0x8, addend: 0x0, symName: '__ZN4pyo33err9err_state20PyErrStateNormalized10ptraceback28_$u7b$$u7b$closure$u7d$$u7d$17h4c466b33a3881680E', symObjAddr: 0x2D40, symBinAddr: 0x4EF00, symSize: 0x30 }
  - { offset: 0xE14F3, size: 0x8, addend: 0x0, symName: __ZN4pyo33err9err_state30lazy_into_normalized_ffi_tuple17h8ad41cd04843fcb7E, symObjAddr: 0x2EA0, symBinAddr: 0x4F060, symSize: 0xA0 }
  - { offset: 0xE1594, size: 0x8, addend: 0x0, symName: '__ZN58_$LT$T$u20$as$u20$pyo3..err..err_state..PyErrArguments$GT$9arguments17h4792f8a707d49a62E', symObjAddr: 0x4D00, symBinAddr: 0x4F7D0, symSize: 0x20 }
  - { offset: 0xE15E2, size: 0x8, addend: 0x0, symName: '__ZN58_$LT$T$u20$as$u20$pyo3..err..err_state..PyErrArguments$GT$9arguments17h8d4cee214110267cE', symObjAddr: 0x4D20, symBinAddr: 0x4F7F0, symSize: 0x20 }
  - { offset: 0xE1636, size: 0x8, addend: 0x0, symName: '__ZN81_$LT$pyo3..err..err_state..PyErrStateNormalized$u20$as$u20$core..clone..Clone$GT$5clone17hab0036cd788b5b3aE', symObjAddr: 0x6C50, symBinAddr: 0x4F9D0, symSize: 0xC0 }
  - { offset: 0xE168F, size: 0x8, addend: 0x0, symName: '__ZN4pyo33err5impls94_$LT$impl$u20$pyo3..err..err_state..PyErrArguments$u20$for$u20$alloc..ffi..c_str..NulError$GT$9arguments17h9343731e28acef6fE', symObjAddr: 0x22D0, symBinAddr: 0x4E490, symSize: 0x70 }
  - { offset: 0xE17D5, size: 0x8, addend: 0x0, symName: __ZN4pyo38instance12PyNativeType18unchecked_downcast17hdc90523e523f191cE, symObjAddr: 0x4A00, symBinAddr: 0x4F650, symSize: 0x60 }
  - { offset: 0xE1A27, size: 0x8, addend: 0x0, symName: __ZN4pyo35types4dict6PyDict8set_item5inner17h496fba819fb5fdd5E, symObjAddr: 0x4500, symBinAddr: 0x4F550, symSize: 0x100 }
  - { offset: 0xE1A76, size: 0x8, addend: 0x0, symName: '__ZN69_$LT$pyo3..types..dict..PyDict$u20$as$u20$core..ops..deref..Deref$GT$5deref17hc3083acc1826443bE', symObjAddr: 0x5F40, symBinAddr: 0x4F970, symSize: 0x10 }
  - { offset: 0xE1AA8, size: 0x8, addend: 0x0, symName: '__ZN75_$LT$pyo3..types..dict..PyDict$u20$as$u20$pyo3..type_object..PyTypeInfo$GT$10is_type_of17h4024630876264478E', symObjAddr: 0x6950, symBinAddr: 0x4F9A0, symSize: 0x30 }
  - { offset: 0xE1ADA, size: 0x8, addend: 0x0, symName: '__ZN91_$LT$$RF$pyo3..types..dict..PyDict$u20$as$u20$core..iter..traits..collect..IntoIterator$GT$9into_iter17h15d7a2e7179f0efbE', symObjAddr: 0x6EE0, symBinAddr: 0x4FB10, symSize: 0x60 }
  - { offset: 0xE1DF6, size: 0x8, addend: 0x0, symName: '__ZN4pyo35impl_8pymodule9ModuleDef11make_module28_$u7b$$u7b$closure$u7d$$u7d$17h66911cc34007eacaE', symObjAddr: 0x3000, symBinAddr: 0x4F1C0, symSize: 0x240 }
  - { offset: 0xE1EA7, size: 0x8, addend: 0x0, symName: '__ZN4pyo35impl_8pymodule9ModuleDef11make_module28_$u7b$$u7b$closure$u7d$$u7d$17hb2f13bbc8822f2fdE', symObjAddr: 0x3240, symBinAddr: 0x4F400, symSize: 0x30 }
  - { offset: 0xE205B, size: 0x8, addend: 0x0, symName: '__ZN49_$LT$T$u20$as$u20$pyo3..conversion..PyTryFrom$GT$18try_from_unchecked17h20a26b4311a37349E', symObjAddr: 0x12C0, symBinAddr: 0x4DA80, symSize: 0x30 }
  - { offset: 0xE209B, size: 0x8, addend: 0x0, symName: '__ZN49_$LT$T$u20$as$u20$pyo3..conversion..PyTryFrom$GT$8try_from17h7aa04f600239d18fE', symObjAddr: 0x1510, symBinAddr: 0x4DAB0, symSize: 0xB0 }
  - { offset: 0xE20FF, size: 0x8, addend: 0x0, symName: __ZN4pyo310conversion13FromPyPointer14from_owned_ptr17h6e582f4d4cce0658E, symObjAddr: 0x2110, symBinAddr: 0x4E440, symSize: 0x20 }
  - { offset: 0xE2151, size: 0x8, addend: 0x0, symName: __ZN4pyo310conversion13FromPyPointer23from_owned_ptr_or_panic17he6a9282a6c7a9f66E, symObjAddr: 0x2200, symBinAddr: 0x4E460, symSize: 0x30 }
  - { offset: 0xE21A9, size: 0x8, addend: 0x0, symName: '__ZN53_$LT$T$u20$as$u20$pyo3..conversion..FromPyPointer$GT$21from_owned_ptr_or_opt17h2193aeb81477cb70E', symObjAddr: 0x4AF0, symBinAddr: 0x4F720, symSize: 0xB0 }
  - { offset: 0xE2413, size: 0x8, addend: 0x0, symName: __ZN8pyo3_ffi8pyerrors22PyExceptionClass_Check17hfc50766e3f85c308E, symObjAddr: 0x6E40, symBinAddr: 0x4FA90, symSize: 0x50 }
  - { offset: 0xE243F, size: 0x8, addend: 0x0, symName: __ZN8pyo3_ffi8pyerrors25PyExceptionInstance_Check17h7329d837448aab81E, symObjAddr: 0x6E90, symBinAddr: 0x4FAE0, symSize: 0x30 }
  - { offset: 0xE290C, size: 0x8, addend: 0x0, symName: '__ZN66_$LT$std..thread..id..ThreadId$u20$as$u20$core..cmp..PartialEq$GT$2eq17h477ba5b6c6fb3f4dE', symObjAddr: 0x5830, symBinAddr: 0x4F8F0, symSize: 0x20 }
  - { offset: 0xE29BC, size: 0x8, addend: 0x0, symName: __ZN3std9panicking12catch_unwind7do_call17h07aa4a20124fa9ecE, symObjAddr: 0xAE0, symBinAddr: 0x4D560, symSize: 0x60 }
  - { offset: 0xE2AA4, size: 0x8, addend: 0x0, symName: __ZN3std9panicking12catch_unwind7do_call17h603fae463812dc06E, symObjAddr: 0xB40, symBinAddr: 0x4D5C0, symSize: 0x50 }
  - { offset: 0xE2B58, size: 0x8, addend: 0x0, symName: __ZN3std9panicking12catch_unwind7do_call17hcac0ce933bc9c4ecE, symObjAddr: 0xB90, symBinAddr: 0x4D610, symSize: 0x70 }
  - { offset: 0xE2C40, size: 0x8, addend: 0x0, symName: __ZN3std9panicking12catch_unwind7do_call17hde6f07559df7fbebE, symObjAddr: 0xC00, symBinAddr: 0x4D680, symSize: 0x70 }
  - { offset: 0xE2D28, size: 0x8, addend: 0x0, symName: __ZN3std9panicking12catch_unwind7do_call17hf5ee6b6126272c65E, symObjAddr: 0xC70, symBinAddr: 0x4D6F0, symSize: 0x60 }
  - { offset: 0xE2E10, size: 0x8, addend: 0x0, symName: __ZN3std9panicking12catch_unwind8do_catch17h1f6194a73d96f8a1E, symObjAddr: 0xCD0, symBinAddr: 0x4D750, symSize: 0x60 }
  - { offset: 0xE2EA5, size: 0x8, addend: 0x0, symName: __ZN3std9panicking12catch_unwind8do_catch17h2838f6186b779249E, symObjAddr: 0xD30, symBinAddr: 0x4D7B0, symSize: 0x60 }
  - { offset: 0xE2F3A, size: 0x8, addend: 0x0, symName: __ZN3std9panicking12catch_unwind8do_catch17h5814099f171653c7E, symObjAddr: 0xD90, symBinAddr: 0x4D810, symSize: 0x60 }
  - { offset: 0xE2FCF, size: 0x8, addend: 0x0, symName: __ZN3std9panicking12catch_unwind8do_catch17he46f7a7e5fb92ba1E, symObjAddr: 0xDF0, symBinAddr: 0x4D870, symSize: 0x60 }
  - { offset: 0xE3064, size: 0x8, addend: 0x0, symName: __ZN3std9panicking12catch_unwind8do_catch17he6c8b9d90e7dbda8E, symObjAddr: 0xE50, symBinAddr: 0x4D8D0, symSize: 0x60 }
  - { offset: 0xE32CC, size: 0x8, addend: 0x0, symName: '__ZN3std6thread5local17LocalKey$LT$T$GT$4with17h1acadd61a7234398E', symObjAddr: 0x50, symBinAddr: 0x4CEE0, symSize: 0x50 }
  - { offset: 0xE3383, size: 0x8, addend: 0x0, symName: '__ZN3std6thread5local17LocalKey$LT$T$GT$4with17h230660107f49eba0E', symObjAddr: 0xA0, symBinAddr: 0x4CF30, symSize: 0x80 }
  - { offset: 0xE3450, size: 0x8, addend: 0x0, symName: '__ZN3std6thread5local17LocalKey$LT$T$GT$8try_with17h668417e99f3016c4E', symObjAddr: 0x460, symBinAddr: 0x4CFB0, symSize: 0x110 }
  - { offset: 0xE3607, size: 0x8, addend: 0x0, symName: '__ZN3std6thread5local17LocalKey$LT$T$GT$8try_with17h8c0ae7ea3c348f2eE', symObjAddr: 0x570, symBinAddr: 0x4D0C0, symSize: 0xB0 }
  - { offset: 0xE37CA, size: 0x8, addend: 0x0, symName: '__ZN3std6thread5local17LocalKey$LT$T$GT$8try_with17h95dbcbda9f0eb7c2E', symObjAddr: 0x620, symBinAddr: 0x4D170, symSize: 0xF0 }
  - { offset: 0xE398D, size: 0x8, addend: 0x0, symName: '__ZN3std6thread5local17LocalKey$LT$T$GT$8try_with17haeaf695a3474a32eE', symObjAddr: 0x710, symBinAddr: 0x4D260, symSize: 0xC0 }
  - { offset: 0xE3B44, size: 0x8, addend: 0x0, symName: '__ZN3std6thread5local17LocalKey$LT$T$GT$8try_with17hbcafa74bfeb826c0E', symObjAddr: 0x7D0, symBinAddr: 0x4D320, symSize: 0xC0 }
  - { offset: 0xE3CFA, size: 0x8, addend: 0x0, symName: '__ZN3std6thread5local17LocalKey$LT$T$GT$8try_with17hd8cea83b9a612421E', symObjAddr: 0x890, symBinAddr: 0x4D3E0, symSize: 0xD0 }
  - { offset: 0xE3EB0, size: 0x8, addend: 0x0, symName: '__ZN3std6thread5local17LocalKey$LT$T$GT$8try_with17hf6fd1ac72e9d0132E', symObjAddr: 0x960, symBinAddr: 0x4D4B0, symSize: 0xB0 }
  - { offset: 0xE4348, size: 0x8, addend: 0x0, symName: __ZN4pyo33err9err_state10PyErrState10normalized17h2531a43dfe4e1c62E, symObjAddr: 0x2340, symBinAddr: 0x4E500, symSize: 0x140 }
  - { offset: 0xE4384, size: 0x8, addend: 0x0, symName: __ZN4pyo33err9err_state10PyErrState4lazy17h9c3b1e8b0cda8147E, symObjAddr: 0x2480, symBinAddr: 0x4E640, symSize: 0x130 }
  - { offset: 0xE43F8, size: 0x8, addend: 0x0, symName: __ZN4pyo33err9err_state10PyErrState7restore17hfe8f0f6ad2de143cE, symObjAddr: 0x2610, symBinAddr: 0x4E7D0, symSize: 0x340 }
  - { offset: 0xE4535, size: 0x8, addend: 0x0, symName: __ZN4pyo33err9err_state10PyErrState9normalize17h08a444a2b9da3454E, symObjAddr: 0x2950, symBinAddr: 0x4EB10, symSize: 0x2A0 }
  - { offset: 0xE46AA, size: 0x8, addend: 0x0, symName: __ZN4pyo33err9err_state20PyErrStateNormalized10ptraceback17h8239bc7220c57a23E, symObjAddr: 0x2D10, symBinAddr: 0x4EED0, symSize: 0x30 }
  - { offset: 0xE46E5, size: 0x8, addend: 0x0, symName: __ZN4pyo33err9err_state20PyErrStateNormalized25from_normalized_ffi_tuple17had04db9b0b54d81dE, symObjAddr: 0x2D70, symBinAddr: 0x4EF30, symSize: 0x110 }
  - { offset: 0xE4749, size: 0x8, addend: 0x0, symName: __ZN4pyo33err9err_state20PyErrStateNormalized5ptype17h97319886a39dd37cE, symObjAddr: 0x2E80, symBinAddr: 0x4F040, symSize: 0x20 }
  - { offset: 0xE48B2, size: 0x8, addend: 0x0, symName: __ZN4pyo35impl_8pymodule9ModuleDef11make_module17he1d8155b9f8d2a03E, symObjAddr: 0x2F40, symBinAddr: 0x4F100, symSize: 0xC0 }
  - { offset: 0xE4926, size: 0x8, addend: 0x0, symName: __ZN4pyo35types4dict14PyDictIterator14next_unchecked17h6e8d0ed0de703be9E, symObjAddr: 0x3BC0, symBinAddr: 0x4F430, symSize: 0xB0 }
  - { offset: 0xE49B0, size: 0x8, addend: 0x0, symName: __ZN4pyo35types4dict6PyDict3len17ha664b846aec2dc83E, symObjAddr: 0x3EA0, symBinAddr: 0x4F4E0, symSize: 0x20 }
  - { offset: 0xE49D2, size: 0x8, addend: 0x0, symName: __ZN4pyo35types4dict6PyDict3new17ha5f68edccfbc84a1E, symObjAddr: 0x3EC0, symBinAddr: 0x4F500, symSize: 0x20 }
  - { offset: 0xE49FF, size: 0x8, addend: 0x0, symName: __ZN4pyo35types4dict6PyDict4_len17he3ee164aad225eadE, symObjAddr: 0x3EE0, symBinAddr: 0x4F520, symSize: 0x30 }
  - { offset: 0xE4B5B, size: 0x8, addend: 0x0, symName: __ZN5alloc3ffi5c_str7CString3new17h041022dc0887b880E, symObjAddr: 0x4D40, symBinAddr: 0x4F810, symSize: 0x30 }
  - { offset: 0xE4B87, size: 0x8, addend: 0x0, symName: __ZN5alloc3ffi5c_str7CString3new17h73168a2defee3667E, symObjAddr: 0x4D70, symBinAddr: 0x4F840, symSize: 0x30 }
  - { offset: 0xE4BB3, size: 0x8, addend: 0x0, symName: __ZN5alloc3ffi5c_str7CString3new17haefc57b30be2a3f6E, symObjAddr: 0x4DA0, symBinAddr: 0x4F870, symSize: 0x20 }
  - { offset: 0xE4EBB, size: 0x8, addend: 0x0, symName: '__ZN102_$LT$core..iter..adapters..map..Map$LT$I$C$F$GT$$u20$as$u20$core..iter..traits..iterator..Iterator$GT$8try_fold17hbf0a48987672e671E', symObjAddr: 0x0, symBinAddr: 0x4FB90, symSize: 0x50 }
  - { offset: 0xE4F20, size: 0x8, addend: 0x0, symName: '__ZN5alloc6string94_$LT$impl$u20$core..convert..From$LT$$RF$str$GT$$u20$for$u20$alloc..borrow..Cow$LT$str$GT$$GT$4from17hcc444c45e7d6287fE', symObjAddr: 0x4040, symBinAddr: 0x50A00, symSize: 0x30 }
  - { offset: 0xE5392, size: 0x8, addend: 0x0, symName: '__ZN66_$LT$alloc..borrow..Cow$LT$B$GT$$u20$as$u20$core..fmt..Display$GT$3fmt17hfc0281307386906fE', symObjAddr: 0x41C0, symBinAddr: 0x50A60, symSize: 0x80 }
  - { offset: 0xE544A, size: 0x8, addend: 0x0, symName: '__ZN71_$LT$alloc..borrow..Cow$LT$B$GT$$u20$as$u20$core..ops..deref..Deref$GT$5deref17h1b91d2657a5da425E', symObjAddr: 0x4560, symBinAddr: 0x50AE0, symSize: 0x70 }
  - { offset: 0xE549F, size: 0x8, addend: 0x0, symName: '__ZN71_$LT$alloc..borrow..Cow$LT$B$GT$$u20$as$u20$core..ops..deref..Deref$GT$5deref17hbfe439c523554c0cE', symObjAddr: 0x45D0, symBinAddr: 0x50B50, symSize: 0x60 }
  - { offset: 0xE55CF, size: 0x8, addend: 0x0, symName: '__ZN5alloc3str56_$LT$impl$u20$alloc..borrow..ToOwned$u20$for$u20$str$GT$8to_owned17h80f33a2de4b8fa2fE', symObjAddr: 0x3FA0, symBinAddr: 0x509B0, symSize: 0x50 }
  - { offset: 0xE6396, size: 0x8, addend: 0x0, symName: '__ZN4core3cmp5impls54_$LT$impl$u20$core..cmp..PartialEq$u20$for$u20$i32$GT$2ne17he555044fbcb0b761E', symObjAddr: 0x950, symBinAddr: 0x4FC70, symSize: 0x20 }
  - { offset: 0xE63D9, size: 0x8, addend: 0x0, symName: '__ZN4core3cmp5impls54_$LT$impl$u20$core..cmp..PartialEq$u20$for$u20$i64$GT$2eq17h55114d7caca1ab78E', symObjAddr: 0x970, symBinAddr: 0x4FC90, symSize: 0x20 }
